Archive member included because of file (symbol)

d:/mingw/bin/../lib/gcc/mingw32/4.5.2/../../../libadvapi32.a(dgxgs00245.o)
                              winmisc.o (GetUserNameA@8)
d:/mingw/bin/../lib/gcc/mingw32/4.5.2/../../../libadvapi32.a(dgxgs00172.o)
                              winpgnt.o (EqualSid@8)
d:/mingw/bin/../lib/gcc/mingw32/4.5.2/../../../libadvapi32.a(dgxgs00412.o)
                              winpgnt.o (RegOpenKeyA@12)
d:/mingw/bin/../lib/gcc/mingw32/4.5.2/../../../libadvapi32.a(dgxgs00400.o)
                              winpgnt.o (RegEnumKeyA@16)
d:/mingw/bin/../lib/gcc/mingw32/4.5.2/../../../libadvapi32.a(dgxgs00386.o)
                              winpgnt.o (RegCloseKey@4)
d:/mingw/bin/../lib/gcc/mingw32/4.5.2/../../../libadvapi32.a(dgxgs00196.o)
                              winpgntc.o (GetLengthSid@4)
d:/mingw/bin/../lib/gcc/mingw32/4.5.2/../../../libadvapi32.a(dgxgs00083.o)
                              winpgntc.o (CopySid@12)
d:/mingw/bin/../lib/gcc/mingw32/4.5.2/../../../libadvapi32.a(dgxgh.o)
                              d:/mingw/bin/../lib/gcc/mingw32/4.5.2/../../../libadvapi32.a(dgxgs00245.o) (_head_libadvapi32_a)
d:/mingw/bin/../lib/gcc/mingw32/4.5.2/../../../libadvapi32.a(dgxgt.o)
                              d:/mingw/bin/../lib/gcc/mingw32/4.5.2/../../../libadvapi32.a(dgxgh.o) (_libadvapi32_a_iname)
d:/mingw/bin/../lib/gcc/mingw32/4.5.2/../../../libcomdlg32.a(demds00011.o)
                              winutils.o (GetSaveFileNameA@4)
d:/mingw/bin/../lib/gcc/mingw32/4.5.2/../../../libcomdlg32.a(demds00009.o)
                              winutils.o (GetOpenFileNameA@4)
d:/mingw/bin/../lib/gcc/mingw32/4.5.2/../../../libcomdlg32.a(demdh.o)
                              d:/mingw/bin/../lib/gcc/mingw32/4.5.2/../../../libcomdlg32.a(demds00011.o) (_head_libcomdlg32_a)
d:/mingw/bin/../lib/gcc/mingw32/4.5.2/../../../libcomdlg32.a(demdt.o)
                              d:/mingw/bin/../lib/gcc/mingw32/4.5.2/../../../libcomdlg32.a(demdh.o) (_libcomdlg32_a_iname)
d:/mingw/bin/../lib/gcc/mingw32/4.5.2/../../../libgdi32.a(dkfhs00201.o)
                              winpgnt.o (GetStockObject@4)
d:/mingw/bin/../lib/gcc/mingw32/4.5.2/../../../libgdi32.a(dkfhh.o)
                              d:/mingw/bin/../lib/gcc/mingw32/4.5.2/../../../libgdi32.a(dkfhs00201.o) (_head_libgdi32_a)
d:/mingw/bin/../lib/gcc/mingw32/4.5.2/../../../libgdi32.a(dkfht.o)
                              d:/mingw/bin/../lib/gcc/mingw32/4.5.2/../../../libgdi32.a(dkfhh.o) (_libgdi32_a_iname)
d:/mingw/bin/../lib/gcc/mingw32/4.5.2/../../../libshell32.a(dukis00151.o)
                              winpgnt.o (Shell_NotifyIconA@8)
d:/mingw/bin/../lib/gcc/mingw32/4.5.2/../../../libshell32.a(dukis00144.o)
                              winpgnt.o (ShellExecuteA@24)
d:/mingw/bin/../lib/gcc/mingw32/4.5.2/../../../libshell32.a(dukih.o)
                              d:/mingw/bin/../lib/gcc/mingw32/4.5.2/../../../libshell32.a(dukis00151.o) (_head_libshell32_a)
d:/mingw/bin/../lib/gcc/mingw32/4.5.2/../../../libshell32.a(dukit.o)
                              d:/mingw/bin/../lib/gcc/mingw32/4.5.2/../../../libshell32.a(dukih.o) (_libshell32_a_iname)
d:/mingw/bin/../lib/gcc/mingw32/4.5.2/../../../libuser32.a(daois00632.o)
                              winhelp.o (WinHelpA@16)
d:/mingw/bin/../lib/gcc/mingw32/4.5.2/../../../libuser32.a(daois00434.o)
                              winpgnt.o (MessageBoxA@16)
d:/mingw/bin/../lib/gcc/mingw32/4.5.2/../../../libuser32.a(daois00147.o)
                              winpgnt.o (DialogBoxParamA@20)
d:/mingw/bin/../lib/gcc/mingw32/4.5.2/../../../libuser32.a(daois00182.o)
                              winpgnt.o (EndDialog@8)
d:/mingw/bin/../lib/gcc/mingw32/4.5.2/../../../libuser32.a(daois00250.o)
                              winpgnt.o (GetDesktopWindow@0)
d:/mingw/bin/../lib/gcc/mingw32/4.5.2/../../../libuser32.a(daois00348.o)
                              winpgnt.o (GetWindowRect@8)
d:/mingw/bin/../lib/gcc/mingw32/4.5.2/../../../libuser32.a(daois00534.o)
                              winpgnt.o (SetForegroundWindow@4)
d:/mingw/bin/../lib/gcc/mingw32/4.5.2/../../../libuser32.a(daois00572.o)
                              winpgnt.o (SetWindowPos@28)
d:/mingw/bin/../lib/gcc/mingw32/4.5.2/../../../libuser32.a(daois00530.o)
                              winpgnt.o (SetDlgItemTextA@12)
d:/mingw/bin/../lib/gcc/mingw32/4.5.2/../../../libuser32.a(daois00445.o)
                              winpgnt.o (MoveWindow@24)
d:/mingw/bin/../lib/gcc/mingw32/4.5.2/../../../libuser32.a(daois00255.o)
                              winpgnt.o (GetDlgItemTextA@16)
d:/mingw/bin/../lib/gcc/mingw32/4.5.2/../../../libuser32.a(daois00433.o)
                              winpgnt.o (MessageBeep@4)
d:/mingw/bin/../lib/gcc/mingw32/4.5.2/../../../libuser32.a(daois00409.o)
                              winpgnt.o (LoadIconA@8)
d:/mingw/bin/../lib/gcc/mingw32/4.5.2/../../../libuser32.a(daois00142.o)
                              winpgnt.o (DestroyIcon@4)
d:/mingw/bin/../lib/gcc/mingw32/4.5.2/../../../libuser32.a(daois00505.o)
                              winpgnt.o (SendDlgItemMessageA@20)
d:/mingw/bin/../lib/gcc/mingw32/4.5.2/../../../libuser32.a(daois00287.o)
                              winpgnt.o (GetMenuItemInfoA@16)
d:/mingw/bin/../lib/gcc/mingw32/4.5.2/../../../libuser32.a(daois00134.o)
                              winpgnt.o (DefWindowProcA@16)
d:/mingw/bin/../lib/gcc/mingw32/4.5.2/../../../libuser32.a(daois00491.o)
                              winpgnt.o (RegisterWindowMessageA@4)
d:/mingw/bin/../lib/gcc/mingw32/4.5.2/../../../libuser32.a(daois00283.o)
                              winpgnt.o (GetMenuDefaultItem@12)
d:/mingw/bin/../lib/gcc/mingw32/4.5.2/../../../libuser32.a(daois00466.o)
                              winpgnt.o (PostMessageA@16)
d:/mingw/bin/../lib/gcc/mingw32/4.5.2/../../../libuser32.a(daois00468.o)
                              winpgnt.o (PostQuitMessage@4)
d:/mingw/bin/../lib/gcc/mingw32/4.5.2/../../../libuser32.a(daois00602.o)
                              winpgnt.o (TrackPopupMenu@28)
d:/mingw/bin/../lib/gcc/mingw32/4.5.2/../../../libuser32.a(daois00508.o)
                              winpgnt.o (SendMessageA@16)
d:/mingw/bin/../lib/gcc/mingw32/4.5.2/../../../libuser32.a(daois00080.o)
                              winpgnt.o (CreateDialogParamA@20)
d:/mingw/bin/../lib/gcc/mingw32/4.5.2/../../../libuser32.a(daois00585.o)
                              winpgnt.o (ShowWindow@8)
d:/mingw/bin/../lib/gcc/mingw32/4.5.2/../../../libuser32.a(daois00247.o)
                              winpgnt.o (GetCursorPos@4)
d:/mingw/bin/../lib/gcc/mingw32/4.5.2/../../../libuser32.a(daois00285.o)
                              winpgnt.o (GetMenuItemCount@4)
d:/mingw/bin/../lib/gcc/mingw32/4.5.2/../../../libuser32.a(daois00495.o)
                              winpgnt.o (RemoveMenu@12)
d:/mingw/bin/../lib/gcc/mingw32/4.5.2/../../../libuser32.a(daois00365.o)
                              winpgnt.o (InsertMenuItemA@16)
d:/mingw/bin/../lib/gcc/mingw32/4.5.2/../../../libuser32.a(daois00144.o)
                              winpgnt.o (DestroyWindow@4)
d:/mingw/bin/../lib/gcc/mingw32/4.5.2/../../../libuser32.a(daois00180.o)
                              winpgnt.o (EnableWindow@8)
d:/mingw/bin/../lib/gcc/mingw32/4.5.2/../../../libuser32.a(daois00516.o)
                              winpgnt.o (SetActiveWindow@4)
d:/mingw/bin/../lib/gcc/mingw32/4.5.2/../../../libuser32.a(daois00253.o)
                              winpgnt.o (GetDlgItem@8)
d:/mingw/bin/../lib/gcc/mingw32/4.5.2/../../../libuser32.a(daois00342.o)
                              winpgnt.o (GetWindowLongA@8)
d:/mingw/bin/../lib/gcc/mingw32/4.5.2/../../../libuser32.a(daois00569.o)
                              winpgnt.o (SetWindowLongA@12)
d:/mingw/bin/../lib/gcc/mingw32/4.5.2/../../../libuser32.a(daois00090.o)
                              winpgnt.o (CreateWindowExA@48)
d:/mingw/bin/../lib/gcc/mingw32/4.5.2/../../../libuser32.a(daois00089.o)
                              winpgnt.o (CreatePopupMenu@0)
d:/mingw/bin/../lib/gcc/mingw32/4.5.2/../../../libuser32.a(daois00088.o)
                              winpgnt.o (CreateMenu@0)
d:/mingw/bin/../lib/gcc/mingw32/4.5.2/../../../libuser32.a(daois00006.o)
                              winpgnt.o (AppendMenuA@16)
d:/mingw/bin/../lib/gcc/mingw32/4.5.2/../../../libuser32.a(daois00540.o)
                              winpgnt.o (SetMenuDefaultItem@12)
d:/mingw/bin/../lib/gcc/mingw32/4.5.2/../../../libuser32.a(daois00293.o)
                              winpgnt.o (GetMessageA@16)
d:/mingw/bin/../lib/gcc/mingw32/4.5.2/../../../libuser32.a(daois00394.o)
                              winpgnt.o (IsWindow@4)
d:/mingw/bin/../lib/gcc/mingw32/4.5.2/../../../libuser32.a(daois00384.o)
                              winpgnt.o (IsDialogMessageA@8)
d:/mingw/bin/../lib/gcc/mingw32/4.5.2/../../../libuser32.a(daois00608.o)
                              winpgnt.o (TranslateMessage@4)
d:/mingw/bin/../lib/gcc/mingw32/4.5.2/../../../libuser32.a(daois00149.o)
                              winpgnt.o (DispatchMessageA@4)
d:/mingw/bin/../lib/gcc/mingw32/4.5.2/../../../libuser32.a(daois00143.o)
                              winpgnt.o (DestroyMenu@4)
d:/mingw/bin/../lib/gcc/mingw32/4.5.2/../../../libuser32.a(daois00405.o)
                              winpgnt.o (LoadCursorA@8)
d:/mingw/bin/../lib/gcc/mingw32/4.5.2/../../../libuser32.a(daois00479.o)
                              winpgnt.o (RegisterClassA@4)
d:/mingw/bin/../lib/gcc/mingw32/4.5.2/../../../libuser32.a(daois00210.o)
                              winpgntc.o (FindWindowA@8)
d:/mingw/bin/../lib/gcc/mingw32/4.5.2/../../../libuser32.a(daois00437.o)
                              winutils.o (MessageBoxIndirectA@4)
d:/mingw/bin/../lib/gcc/mingw32/4.5.2/../../../libuser32.a(daoih.o)
                              d:/mingw/bin/../lib/gcc/mingw32/4.5.2/../../../libuser32.a(daois00632.o) (_head_libuser32_a)
d:/mingw/bin/../lib/gcc/mingw32/4.5.2/../../../libuser32.a(daoit.o)
                              d:/mingw/bin/../lib/gcc/mingw32/4.5.2/../../../libuser32.a(daoih.o) (_libuser32_a_iname)
d:/mingw/bin/../lib/gcc/mingw32/4.5.2/../../../libmingw32.a(tlssup.o)
                              d:/mingw/bin/../lib/gcc/mingw32/4.5.2/../../../crt2.o (__dyn_tls_init_callback)
d:/mingw/bin/../lib/gcc/mingw32/4.5.2/../../../libmingw32.a(CRTglob.o)
                              d:/mingw/bin/../lib/gcc/mingw32/4.5.2/../../../crt2.o (_CRT_glob)
d:/mingw/bin/../lib/gcc/mingw32/4.5.2/../../../libmingw32.a(CRTfmode.o)
                              d:/mingw/bin/../lib/gcc/mingw32/4.5.2/../../../crt2.o (_CRT_fmode)
d:/mingw/bin/../lib/gcc/mingw32/4.5.2/../../../libmingw32.a(txtmode.o)
                              d:/mingw/bin/../lib/gcc/mingw32/4.5.2/../../../crt2.o (_fmode)
d:/mingw/bin/../lib/gcc/mingw32/4.5.2/../../../libmingw32.a(cpu_features.o)
                              d:/mingw/bin/../lib/gcc/mingw32/4.5.2/../../../crt2.o (__cpu_features_init)
d:/mingw/bin/../lib/gcc/mingw32/4.5.2/../../../libmingw32.a(pseudo-reloc.o)
                              d:/mingw/bin/../lib/gcc/mingw32/4.5.2/../../../crt2.o (_pei386_runtime_relocator)
d:/mingw/bin/../lib/gcc/mingw32/4.5.2/../../../libmingw32.a(gccmain.o)
                              d:/mingw/bin/../lib/gcc/mingw32/4.5.2/../../../crt2.o (__main)
d:/mingw/bin/../lib/gcc/mingw32/4.5.2/../../../libmingw32.a(main.o)
                              d:/mingw/bin/../lib/gcc/mingw32/4.5.2/../../../crt2.o (main)
d:/mingw/bin/../lib/gcc/mingw32/4.5.2/../../../libmingw32.a(CRT_fp10.o)
                              d:/mingw/bin/../lib/gcc/mingw32/4.5.2/../../../crt2.o (_fpreset)
d:/mingw/bin/../lib/gcc/mingw32/4.5.2/../../../libmingw32.a(crtst.o)
                              d:/mingw/bin/../lib/gcc/mingw32/4.5.2/../../../libmingw32.a(tlssup.o) (_CRT_MT)
d:/mingw/bin/../lib/gcc/mingw32/4.5.2/../../../libmingw32.a(tlsthrd.o)
                              d:/mingw/bin/../lib/gcc/mingw32/4.5.2/../../../libmingw32.a(tlssup.o) (__mingw_TLScallback)
d:/mingw/bin/../lib/gcc/mingw32/4.5.2/../../../libmingw32.a(pseudo-reloc-list.o)
                              d:/mingw/bin/../lib/gcc/mingw32/4.5.2/../../../libmingw32.a(pseudo-reloc.o) (__RUNTIME_PSEUDO_RELOC_LIST_END__)
d:/mingw/bin/../lib/gcc/mingw32/4.5.2/libgcc.a(_umoddi3.o)
                              sshbn.o (__umoddi3)
d:/mingw/bin/../lib/gcc/mingw32/4.5.2/libgcc.a(_udivdi3.o)
                              sshbn.o (__udivdi3)
d:/mingw/bin/../lib/gcc/mingw32/4.5.2/libgcc.a(_chkstk.o)
                              sshpubk.o (__chkstk)
d:/mingw/bin/../lib/gcc/mingw32/4.5.2/libgcc.a(_ctors.o)
                              d:/mingw/bin/../lib/gcc/mingw32/4.5.2/../../../libmingw32.a(gccmain.o) (__CTOR_LIST__)
d:/mingw/bin/../lib/gcc/mingw32/4.5.2/../../../libmsvcrt.a(duyms00590.o)
                              d:/mingw/bin/../lib/gcc/mingw32/4.5.2/../../../crt2.o (_imp__atexit)
d:/mingw/bin/../lib/gcc/mingw32/4.5.2/../../../libmsvcrt.a(duyms00383.o)
                              d:/mingw/bin/../lib/gcc/mingw32/4.5.2/../../../crt2.o (_imp___onexit)
d:/mingw/bin/../lib/gcc/mingw32/4.5.2/../../../libmsvcrt.a(duyms00266.o)
                              d:/mingw/bin/../lib/gcc/mingw32/4.5.2/../../../crt2.o (_imp___iob)
d:/mingw/bin/../lib/gcc/mingw32/4.5.2/../../../libmsvcrt.a(duyms00099.o)
                              d:/mingw/bin/../lib/gcc/mingw32/4.5.2/../../../crt2.o (_imp____set_app_type)
d:/mingw/bin/../lib/gcc/mingw32/4.5.2/../../../libmsvcrt.a(duyms00055.o)
                              d:/mingw/bin/../lib/gcc/mingw32/4.5.2/../../../crt2.o (__getmainargs)
d:/mingw/bin/../lib/gcc/mingw32/4.5.2/../../../libmsvcrt.a(duyms00079.o)
                              d:/mingw/bin/../lib/gcc/mingw32/4.5.2/../../../crt2.o (__p__fmode)
d:/mingw/bin/../lib/gcc/mingw32/4.5.2/../../../libmsvcrt.a(duyms00077.o)
                              d:/mingw/bin/../lib/gcc/mingw32/4.5.2/../../../crt2.o (__p__environ)
d:/mingw/bin/../lib/gcc/mingw32/4.5.2/../../../libmsvcrt.a(duyms00147.o)
                              d:/mingw/bin/../lib/gcc/mingw32/4.5.2/../../../crt2.o (_cexit)
d:/mingw/bin/../lib/gcc/mingw32/4.5.2/../../../libmsvcrt.a(duyms00426.o)
                              d:/mingw/bin/../lib/gcc/mingw32/4.5.2/../../../crt2.o (_setmode)
d:/mingw/bin/../lib/gcc/mingw32/4.5.2/../../../libmsvcrt.a(duyms00706.o)
                              d:/mingw/bin/../lib/gcc/mingw32/4.5.2/../../../crt2.o (signal)
d:/mingw/bin/../lib/gcc/mingw32/4.5.2/../../../libmsvcrt.a(duyms00065.o)
                              misc.o (_imp____mb_cur_max)
d:/mingw/bin/../lib/gcc/mingw32/4.5.2/../../../libmsvcrt.a(duyms00392.o)
                              misc.o (_imp___pctype)
d:/mingw/bin/../lib/gcc/mingw32/4.5.2/../../../libmsvcrt.a(duyms00732.o)
                              misc.o (strtoul)
d:/mingw/bin/../lib/gcc/mingw32/4.5.2/../../../libmsvcrt.a(duyms00268.o)
                              misc.o (_isctype)
d:/mingw/bin/../lib/gcc/mingw32/4.5.2/../../../libmsvcrt.a(duyms00731.o)
                              misc.o (strtol)
d:/mingw/bin/../lib/gcc/mingw32/4.5.2/../../../libmsvcrt.a(duyms00137.o)
                              misc.o (_assert)
d:/mingw/bin/../lib/gcc/mingw32/4.5.2/../../../libmsvcrt.a(duyms00676.o)
                              misc.o (malloc)
d:/mingw/bin/../lib/gcc/mingw32/4.5.2/../../../libmsvcrt.a(duyms00717.o)
                              misc.o (strcpy)
d:/mingw/bin/../lib/gcc/mingw32/4.5.2/../../../libmsvcrt.a(duyms00698.o)
                              misc.o (realloc)
d:/mingw/bin/../lib/gcc/mingw32/4.5.2/../../../libmsvcrt.a(duyms00490.o)
                              misc.o (_vsnprintf)
d:/mingw/bin/../lib/gcc/mingw32/4.5.2/../../../libmsvcrt.a(duyms00625.o)
                              misc.o (free)
d:/mingw/bin/../lib/gcc/mingw32/4.5.2/../../../libmsvcrt.a(duyms00613.o)
                              misc.o (fgets)
d:/mingw/bin/../lib/gcc/mingw32/4.5.2/../../../libmsvcrt.a(duyms00583.o)
                              sshbn.o (abort)
d:/mingw/bin/../lib/gcc/mingw32/4.5.2/../../../libmsvcrt.a(duyms00683.o)
                              sshbn.o (memmove)
d:/mingw/bin/../lib/gcc/mingw32/4.5.2/../../../libmsvcrt.a(duyms00709.o)
                              sshdss.o (sprintf)
d:/mingw/bin/../lib/gcc/mingw32/4.5.2/../../../libmsvcrt.a(duyms00611.o)
                              sshpubk.o (fgetc)
d:/mingw/bin/../lib/gcc/mingw32/4.5.2/../../../libmsvcrt.a(duyms00746.o)
                              sshpubk.o (ungetc)
d:/mingw/bin/../lib/gcc/mingw32/4.5.2/../../../libmsvcrt.a(duyms00624.o)
                              sshpubk.o (fread)
d:/mingw/bin/../lib/gcc/mingw32/4.5.2/../../../libmsvcrt.a(duyms00607.o)
                              sshpubk.o (fclose)
d:/mingw/bin/../lib/gcc/mingw32/4.5.2/../../../libmsvcrt.a(duyms00618.o)
                              sshpubk.o (fopen)
d:/mingw/bin/../lib/gcc/mingw32/4.5.2/../../../libmsvcrt.a(duyms00715.o)
                              sshpubk.o (strcmp)
d:/mingw/bin/../lib/gcc/mingw32/4.5.2/../../../libmsvcrt.a(duyms00592.o)
                              sshpubk.o (atoi)
d:/mingw/bin/../lib/gcc/mingw32/4.5.2/../../../libmsvcrt.a(duyms00633.o)
                              sshpubk.o (fwrite)
d:/mingw/bin/../lib/gcc/mingw32/4.5.2/../../../libmsvcrt.a(duyms00620.o)
                              sshpubk.o (fputc)
d:/mingw/bin/../lib/gcc/mingw32/4.5.2/../../../libmsvcrt.a(duyms00619.o)
                              sshpubk.o (fprintf)
d:/mingw/bin/../lib/gcc/mingw32/4.5.2/../../../libmsvcrt.a(duyms00724.o)
                              sshrsa.o (strncpy)
d:/mingw/bin/../lib/gcc/mingw32/4.5.2/../../../libmsvcrt.a(duyms00726.o)
                              winhelp.o (strrchr)
d:/mingw/bin/../lib/gcc/mingw32/4.5.2/../../../libmsvcrt.a(duyms00718.o)
                              winhelp.o (strcspn)
d:/mingw/bin/../lib/gcc/mingw32/4.5.2/../../../libmsvcrt.a(duyms00637.o)
                              winmisc.o (getenv)
d:/mingw/bin/../lib/gcc/mingw32/4.5.2/../../../libmsvcrt.a(duyms00714.o)
                              winmisc.o (strchr)
d:/mingw/bin/../lib/gcc/mingw32/4.5.2/../../../libmsvcrt.a(duyms00621.o)
                              winmisc.o (fputs)
d:/mingw/bin/../lib/gcc/mingw32/4.5.2/../../../libmsvcrt.a(duyms00610.o)
                              winmisc.o (fflush)
d:/mingw/bin/../lib/gcc/mingw32/4.5.2/../../../libmsvcrt.a(duyms00681.o)
                              winpgnt.o (memcmp)
d:/mingw/bin/../lib/gcc/mingw32/4.5.2/../../../libmsvcrt.a(duyms00713.o)
                              winpgnt.o (strcat)
d:/mingw/bin/../lib/gcc/mingw32/4.5.2/../../../libmsvcrt.a(duyms00604.o)
                              winpgnt.o (exit)
d:/mingw/bin/../lib/gcc/mingw32/4.5.2/../../../libmsvcrt.a(duyms00538.o)
                              d:/mingw/bin/../lib/gcc/mingw32/4.5.2/../../../libmingw32.a(tlssup.o) (_imp___winmajor)
d:/mingw/bin/../lib/gcc/mingw32/4.5.2/../../../libmsvcrt.a(duyms00748.o)
                              d:/mingw/bin/../lib/gcc/mingw32/4.5.2/../../../libmingw32.a(pseudo-reloc.o) (vfprintf)
d:/mingw/bin/../lib/gcc/mingw32/4.5.2/../../../libmsvcrt.a(duyms00682.o)
                              d:/mingw/bin/../lib/gcc/mingw32/4.5.2/../../../libmingw32.a(pseudo-reloc.o) (memcpy)
d:/mingw/bin/../lib/gcc/mingw32/4.5.2/../../../libmsvcrt.a(duyms00595.o)
                              d:/mingw/bin/../lib/gcc/mingw32/4.5.2/../../../libmingw32.a(tlsthrd.o) (calloc)
d:/mingw/bin/../lib/gcc/mingw32/4.5.2/../../../libmsvcrt.a(duymh.o)
                              d:/mingw/bin/../lib/gcc/mingw32/4.5.2/../../../libmsvcrt.a(duyms00590.o) (_head_libmsvcrt_a)
d:/mingw/bin/../lib/gcc/mingw32/4.5.2/../../../libmsvcrt.a(duymt.o)
                              d:/mingw/bin/../lib/gcc/mingw32/4.5.2/../../../libmsvcrt.a(duymh.o) (_libmsvcrt_a_iname)
d:/mingw/bin/../lib/gcc/mingw32/4.5.2/../../../libkernel32.a(dchds01140.o)
                              d:/mingw/bin/../lib/gcc/mingw32/4.5.2/../../../crt2.o (SetUnhandledExceptionFilter@4)
d:/mingw/bin/../lib/gcc/mingw32/4.5.2/../../../libkernel32.a(dchds00279.o)
                              d:/mingw/bin/../lib/gcc/mingw32/4.5.2/../../../crt2.o (ExitProcess@4)
d:/mingw/bin/../lib/gcc/mingw32/4.5.2/../../../libkernel32.a(dchds00529.o)
                              d:/mingw/bin/../lib/gcc/mingw32/4.5.2/crtbegin.o (GetModuleHandleA@4)
d:/mingw/bin/../lib/gcc/mingw32/4.5.2/../../../libkernel32.a(dchds00577.o)
                              d:/mingw/bin/../lib/gcc/mingw32/4.5.2/crtbegin.o (GetProcAddress@8)
d:/mingw/bin/../lib/gcc/mingw32/4.5.2/../../../libkernel32.a(dchds00527.o)
                              winhelp.o (GetModuleFileNameA@12)
d:/mingw/bin/../lib/gcc/mingw32/4.5.2/../../../libkernel32.a(dchds00671.o)
                              winmisc.o (GetVersionExA@4)
d:/mingw/bin/../lib/gcc/mingw32/4.5.2/../../../libkernel32.a(dchds00817.o)
                              winmisc.o (LoadLibraryA@4)
d:/mingw/bin/../lib/gcc/mingw32/4.5.2/../../../libkernel32.a(dchds00619.o)
                              winmisc.o (GetSystemDirectoryA@8)
d:/mingw/bin/../lib/gcc/mingw32/4.5.2/../../../libkernel32.a(dchds01267.o)
                              winmisc.o (WriteFile@20)
d:/mingw/bin/../lib/gcc/mingw32/4.5.2/../../../libkernel32.a(dchds00016.o)
                              winmisc.o (AllocConsole@0)
d:/mingw/bin/../lib/gcc/mingw32/4.5.2/../../../libkernel32.a(dchds00608.o)
                              winmisc.o (GetStdHandle@4)
d:/mingw/bin/../lib/gcc/mingw32/4.5.2/../../../libkernel32.a(dchds00877.o)
                              winpgnt.o (OpenFileMappingA@12)
d:/mingw/bin/../lib/gcc/mingw32/4.5.2/../../../libkernel32.a(dchds00829.o)
                              winpgnt.o (LocalFree@4)
d:/mingw/bin/../lib/gcc/mingw32/4.5.2/../../../libkernel32.a(dchds00844.o)
                              winpgnt.o (MapViewOfFile@20)
d:/mingw/bin/../lib/gcc/mingw32/4.5.2/../../../libkernel32.a(dchds01188.o)
                              winpgnt.o (UnmapViewOfFile@4)
d:/mingw/bin/../lib/gcc/mingw32/4.5.2/../../../libkernel32.a(dchds00082.o)
                              winpgnt.o (CloseHandle@4)
d:/mingw/bin/../lib/gcc/mingw32/4.5.2/../../../libkernel32.a(dchds00510.o)
                              winpgnt.o (GetLastError@0)
d:/mingw/bin/../lib/gcc/mingw32/4.5.2/../../../libkernel32.a(dchds00447.o)
                              winpgntc.o (GetCurrentProcessId@0)
d:/mingw/bin/../lib/gcc/mingw32/4.5.2/../../../libkernel32.a(dchds00885.o)
                              winpgntc.o (OpenProcess@12)
d:/mingw/bin/../lib/gcc/mingw32/4.5.2/../../../libkernel32.a(dchds00825.o)
                              winpgntc.o (LocalAlloc@8)
d:/mingw/bin/../lib/gcc/mingw32/4.5.2/../../../libkernel32.a(dchds00451.o)
                              winpgntc.o (GetCurrentThreadId@0)
d:/mingw/bin/../lib/gcc/mingw32/4.5.2/../../../libkernel32.a(dchds00136.o)
                              winpgntc.o (CreateFileMappingA@24)
d:/mingw/bin/../lib/gcc/mingw32/4.5.2/../../../libkernel32.a(dchds00444.o)
                              winutils.o (GetCurrentDirectoryA@8)
d:/mingw/bin/../lib/gcc/mingw32/4.5.2/../../../libkernel32.a(dchds01052.o)
                              winutils.o (SetCurrentDirectoryA@4)
d:/mingw/bin/../lib/gcc/mingw32/4.5.2/../../../libkernel32.a(dchds00352.o)
                              d:/mingw/bin/../lib/gcc/mingw32/4.5.2/../../../libmingw32.a(tlssup.o) (FreeLibrary@4)
d:/mingw/bin/../lib/gcc/mingw32/4.5.2/../../../libkernel32.a(dchds01215.o)
                              d:/mingw/bin/../lib/gcc/mingw32/4.5.2/../../../libmingw32.a(pseudo-reloc.o) (VirtualQuery@12)
d:/mingw/bin/../lib/gcc/mingw32/4.5.2/../../../libkernel32.a(dchds01213.o)
                              d:/mingw/bin/../lib/gcc/mingw32/4.5.2/../../../libmingw32.a(pseudo-reloc.o) (VirtualProtect@16)
d:/mingw/bin/../lib/gcc/mingw32/4.5.2/../../../libkernel32.a(dchds00388.o)
                              d:/mingw/bin/../lib/gcc/mingw32/4.5.2/../../../libmingw32.a(main.o) (GetCommandLineA@0)
d:/mingw/bin/../lib/gcc/mingw32/4.5.2/../../../libkernel32.a(dchds00606.o)
                              d:/mingw/bin/../lib/gcc/mingw32/4.5.2/../../../libmingw32.a(main.o) (GetStartupInfoA@4)
d:/mingw/bin/../lib/gcc/mingw32/4.5.2/../../../libkernel32.a(dchds01173.o)
                              d:/mingw/bin/../lib/gcc/mingw32/4.5.2/../../../libmingw32.a(tlsthrd.o) (TlsGetValue@4)
d:/mingw/bin/../lib/gcc/mingw32/4.5.2/../../../libkernel32.a(dchds00207.o)
                              d:/mingw/bin/../lib/gcc/mingw32/4.5.2/../../../libmingw32.a(tlsthrd.o) (DeleteCriticalSection@4)
d:/mingw/bin/../lib/gcc/mingw32/4.5.2/../../../libkernel32.a(dchds00734.o)
                              d:/mingw/bin/../lib/gcc/mingw32/4.5.2/../../../libmingw32.a(tlsthrd.o) (InitializeCriticalSection@4)
d:/mingw/bin/../lib/gcc/mingw32/4.5.2/../../../libkernel32.a(dchds00236.o)
                              d:/mingw/bin/../lib/gcc/mingw32/4.5.2/../../../libmingw32.a(tlsthrd.o) (EnterCriticalSection@4)
d:/mingw/bin/../lib/gcc/mingw32/4.5.2/../../../libkernel32.a(dchds00814.o)
                              d:/mingw/bin/../lib/gcc/mingw32/4.5.2/../../../libmingw32.a(tlsthrd.o) (LeaveCriticalSection@4)
d:/mingw/bin/../lib/gcc/mingw32/4.5.2/../../../libkernel32.a(dchdh.o)
                              d:/mingw/bin/../lib/gcc/mingw32/4.5.2/../../../libkernel32.a(dchds01140.o) (_head_libkernel32_a)
d:/mingw/bin/../lib/gcc/mingw32/4.5.2/../../../libkernel32.a(dchdt.o)
                              d:/mingw/bin/../lib/gcc/mingw32/4.5.2/../../../libkernel32.a(dchdh.o) (_libkernel32_a_iname)

Allocating common symbols
Common symbol       size              file

p_WSAEnumNetworkEvents
                    0x4               winpgnt.o
p_WSAAsyncSelect    0x4               winpgnt.o
__DTOR_LIST__       0x8               d:/mingw/bin/../lib/gcc/mingw32/4.5.2/libgcc.a(_ctors.o)
loaded_session      0x4               winpgnt.o
term                0x4               winpgnt.o
p_select            0x4               winpgnt.o
default_port        0x4               winpgnt.o
hinst               0x4               winpgnt.o
__mingw_gMTKeyDtor  0x10              d:/mingw/bin/../lib/gcc/mingw32/4.5.2/../../../libmingw32.a(tlssup.o)
logbox              0x4               winpgnt.o
p_WSAGetLastError   0x4               winpgnt.o
osVersion           0x94              winmisc.o
__CTOR_LIST__       0x8               d:/mingw/bin/../lib/gcc/mingw32/4.5.2/libgcc.a(_ctors.o)
p_GetSecurityInfo   0x4               winpgntc.o
cmdline_session_name
                    0x4               winpgnt.o
__mingw_gMTRemoveKeyDtor
                    0x10              d:/mingw/bin/../lib/gcc/mingw32/4.5.2/../../../libmingw32.a(tlssup.o)
__mingw_usemthread_dll
                    0x10              d:/mingw/bin/../lib/gcc/mingw32/4.5.2/../../../libmingw32.a(tlssup.o)
hwnd                0x4               winpgnt.o
logctx              0x4               winpgnt.o
default_protocol    0x4               winpgnt.o
p_WSAEventSelect    0x4               winpgnt.o

Discarded input sections

 .drectve       0x00000000       0x1c winmisc.o
 .drectve       0x00000000      0x194 winpgnt.o
 .drectve       0x00000000       0x24 winpgntc.o
 .drectve       0x00000000       0x3c d:/mingw/bin/../lib/gcc/mingw32/4.5.2/libgcc.a(_ctors.o)
 .text          0x00000000        0x8 d:/mingw/bin/../lib/gcc/mingw32/4.5.2/../../../libmsvcrt.a(duyms00099.o)

Memory Configuration

Name             Origin             Length             Attributes
*default*        0x00000000         0xffffffff

Linker script and memory map

                0x00400000                __image_base__ = 0x400000
                0x00000000                __dll__ = 0x0
                0x00400000                ___ImageBase = 0x400000
                0x00001000                __section_alignment__ = 0x1000
                0x00000200                __file_alignment__ = 0x200
                0x00000004                __major_os_version__ = 0x4
                0x00000000                __minor_os_version__ = 0x0
                0x00000001                __major_image_version__ = 0x1
                0x00000000                __minor_image_version__ = 0x0
                0x00000004                __major_subsystem_version__ = 0x4
                0x00000000                __minor_subsystem_version__ = 0x0
                0x00000002                __subsystem__ = 0x2
                0x00200000                __size_of_stack_reserve__ = 0x200000
                0x00001000                __size_of_stack_commit__ = 0x1000
                0x00100000                __size_of_heap_reserve__ = 0x100000
                0x00001000                __size_of_heap_commit__ = 0x1000
                0x00000000                __loader_flags__ = 0x0
                0x00000000                __dll_characteristics__ = 0x0
LOAD d:/mingw/bin/../lib/gcc/mingw32/4.5.2/../../../crt2.o
LOAD d:/mingw/bin/../lib/gcc/mingw32/4.5.2/crtbegin.o
LOAD misc.o
LOAD pageant.res.o
LOAD sshaes.o
LOAD sshbn.o
LOAD sshdes.o
LOAD sshdss.o
LOAD sshmd5.o
LOAD sshpubk.o
LOAD sshrsa.o
LOAD sshsh256.o
LOAD sshsh512.o
LOAD sshsha.o
LOAD tree234.o
LOAD version.o
LOAD winhelp.o
LOAD winmisc.o
LOAD winpgnt.o
LOAD winpgntc.o
LOAD winutils.o
LOAD d:/mingw/bin/../lib/gcc/mingw32/4.5.2/../../../libadvapi32.a
LOAD d:/mingw/bin/../lib/gcc/mingw32/4.5.2/../../../libcomctl32.a
LOAD d:/mingw/bin/../lib/gcc/mingw32/4.5.2/../../../libcomdlg32.a
LOAD d:/mingw/bin/../lib/gcc/mingw32/4.5.2/../../../libgdi32.a
LOAD d:/mingw/bin/../lib/gcc/mingw32/4.5.2/../../../libimm32.a
LOAD d:/mingw/bin/../lib/gcc/mingw32/4.5.2/../../../libole32.a
LOAD d:/mingw/bin/../lib/gcc/mingw32/4.5.2/../../../libshell32.a
LOAD d:/mingw/bin/../lib/gcc/mingw32/4.5.2/../../../libuser32.a
LOAD d:/mingw/bin/../lib/gcc/mingw32/4.5.2/../../../libwinmm.a
LOAD d:/mingw/bin/../lib/gcc/mingw32/4.5.2/../../../libwinspool.a
LOAD d:/mingw/bin/../lib/gcc/mingw32/4.5.2/../../../libmingw32.a
LOAD d:/mingw/bin/../lib/gcc/mingw32/4.5.2/libgcc_eh.a
LOAD d:/mingw/bin/../lib/gcc/mingw32/4.5.2/libgcc.a
LOAD d:/mingw/bin/../lib/gcc/mingw32/4.5.2/../../../libmoldname.a
LOAD d:/mingw/bin/../lib/gcc/mingw32/4.5.2/../../../libmingwex.a
LOAD d:/mingw/bin/../lib/gcc/mingw32/4.5.2/../../../libmsvcrt.a
LOAD d:/mingw/bin/../lib/gcc/mingw32/4.5.2/../../../libgdi32.a
LOAD d:/mingw/bin/../lib/gcc/mingw32/4.5.2/../../../libcomdlg32.a
LOAD d:/mingw/bin/../lib/gcc/mingw32/4.5.2/../../../libuser32.a
LOAD d:/mingw/bin/../lib/gcc/mingw32/4.5.2/../../../libkernel32.a
LOAD d:/mingw/bin/../lib/gcc/mingw32/4.5.2/../../../libadvapi32.a
LOAD d:/mingw/bin/../lib/gcc/mingw32/4.5.2/../../../libshell32.a
LOAD d:/mingw/bin/../lib/gcc/mingw32/4.5.2/../../../libmingw32.a
LOAD d:/mingw/bin/../lib/gcc/mingw32/4.5.2/libgcc_eh.a
LOAD d:/mingw/bin/../lib/gcc/mingw32/4.5.2/libgcc.a
LOAD d:/mingw/bin/../lib/gcc/mingw32/4.5.2/../../../libmoldname.a
LOAD d:/mingw/bin/../lib/gcc/mingw32/4.5.2/../../../libmingwex.a
LOAD d:/mingw/bin/../lib/gcc/mingw32/4.5.2/../../../libmsvcrt.a
LOAD d:/mingw/bin/../lib/gcc/mingw32/4.5.2/crtend.o
                0x000002e0                . = SIZEOF_HEADERS
                0x00001000                . = ALIGN (__section_alignment__)

.text           0x00401000    0x19000
 *(.init)
 *(.text)
 .text          0x00401000      0x2f0 d:/mingw/bin/../lib/gcc/mingw32/4.5.2/../../../crt2.o
                0x00401000                atexit
                0x00401010                _onexit
                0x00401140                WinMainCRTStartup
                0x00401160                mainCRTStartup
 .text          0x004012f0       0xd0 d:/mingw/bin/../lib/gcc/mingw32/4.5.2/crtbegin.o
                0x004012f0                __gcc_register_frame
                0x0040137c                __gcc_deregister_frame
 .text          0x004013c0      0xb28 misc.o
                0x004013c0                parse_blocksize
                0x0040147c                ctrlparse
                0x00401524                base64_encode_atom
                0x004015e8                bufchain_init
                0x00401604                bufchain_size
                0x00401610                bufchain_prefix
                0x00401630                bufchain_fetch
                0x004016c4                safemalloc
                0x0040172c                bufchain_add
                0x004017f4                dupcat
                0x004018ac                dupstr
                0x00401900                new_prompts
                0x0040195c                saferealloc
                0x004019d8                dupvprintf
                0x00401a50                dupprintf
                0x00401a6c                add_prompt
                0x00401ae4                safefree
                0x00401afc                bufchain_consume
                0x00401b9c                bufchain_clear
                0x00401bd4                fgetline
                0x00401c70                free_prompts
                0x00401cfc                debug_printf
                0x00401d30                debug_memdump
                0x00401ea0                cfg_launchable
                0x00401ecc                cfg_dest
 .text          0x00401ee8     0x24c0 sshaes.o
                0x00403c80                aes_iv
                0x00403efc                aes_ssh2_decrypt_blk
                0x00404008                aes_ssh2_encrypt_blk
                0x00404020                aes_free_context
                0x0040402c                aes_make_context
                0x004042d0                aes128_key
                0x004042e8                aes192_key
                0x00404300                aes256_key
                0x00404318                aes256_encrypt_pubkey
                0x00404360                aes256_decrypt_pubkey
 .text          0x004043a8     0x2c08 sshbn.o
                0x00404f78                bn_restore_invariant
                0x00404f9c                copybn
                0x00404fd8                freebn
                0x00404ffc                modmul
                0x004053f8                decbn
                0x00405448                bignum_from_bytes
                0x00405510                ssh1_read_bignum
                0x00405578                bignum_bitcount
                0x004055a4                ssh1_bignum_length
                0x004055d0                ssh2_bignum_length
                0x004055fc                bignum_byte
                0x0040565c                bignum_bit
                0x004056b4                bignum_set_bit
                0x00405710                bn_power_2
                0x00405754                ssh1_write_bignum
                0x004057dc                bignum_cmp
                0x00405844                bignum_rshift
                0x0040590c                bigmuladd
                0x00405b90                bigmul
                0x00405bb4                bigadd
                0x00405c70                bigsub
                0x00405d58                bignum_bitmask
                0x00405dd8                bignum_from_long
                0x00405e0c                bignum_add_long
                0x00405e98                bignum_mod_short
                0x00405f5c                diagbn
                0x00406094                bigdiv
                0x004060c0                bigmod
                0x004060f0                modpow_simple
                0x004065f0                biggcd
                0x00406680                modinv
                0x00406868                modpow
                0x00406e04                bignum_decimal
 .text          0x00406fb0     0x2318 sshdes.o
                0x00408db0                des3_decrypt_pubkey
                0x00408eb4                des3_encrypt_pubkey
                0x00408fb8                des3_decrypt_pubkey_ossh
                0x0040910c                des3_encrypt_pubkey_ossh
                0x00409260                des_encrypt_xdmauth
                0x00409294                des_decrypt_xdmauth
 .text          0x004092c8     0x1768 sshdss.o
 .text          0x0040aa30      0xe1c sshmd5.o
                0x0040aa4c                hmacmd5_free_context
                0x0040aa58                hmacmd5_make_context
                0x0040aa74                MD5Init
                0x0040aaac                MD5Update
                0x0040b37c                MD5Final
                0x0040b640                MD5Simple
                0x0040b6a8                hmacmd5_key
                0x0040b824                hmacmd5_do_hmac
 .text          0x0040b84c     0x2430 sshpubk.o
                0x0040bdb4                loadrsakey
                0x0040be64                rsakey_encrypted
                0x0040bef8                rsakey_pubblob
                0x0040bff0                saversakey
                0x0040c330                base64_decode_atom
                0x0040c564                find_pubkey_alg
                0x0040c5a8                ssh2_load_userkey
                0x0040d00c                ssh2_userkey_loadpub
                0x0040d20c                ssh2_userkey_encrypted
                0x0040d370                base64_lines
                0x0040d390                base64_encode
                0x0040d428                ssh2_save_userkey
                0x0040db24                key_type
                0x0040dc60                key_type_to_str
 .text          0x0040dc7c     0x2268 sshrsa.o
                0x0040ecd4                makekey
                0x0040edf4                makeprivate
                0x0040ee04                rsaencrypt
                0x0040eee8                crt_modpow
                0x0040f518                rsadecrypt
                0x0040f52c                rsastr_len
                0x0040f58c                rsastr_fmt
                0x0040f71c                rsa_fingerprint
                0x0040f910                rsa_verify
                0x0040fa7c                rsa_public_blob
                0x0040fb2c                rsa_public_blob_len
                0x0040fb94                freersakey
                0x0040fcec                ssh_rsakex_newkey
                0x0040fcf8                ssh_rsakex_freekey
                0x0040fd04                ssh_rsakex_klen
                0x0040fd1c                ssh_rsakex_encrypt
 .text          0x0040fee4      0xaf8 sshsh256.o
                0x0040ff4c                SHA256_Core_Init
                0x0040ff8c                SHA256_Block
                0x004106c8                SHA256_Init
                0x0041071c                SHA256_Bytes
                0x00410830                SHA256_Final
                0x00410958                SHA256_Simple
 .text          0x004109dc     0x1c40 sshsh512.o
                0x004109dc                SHA512_Init
                0x00410a38                SHA512_Bytes
                0x004123fc                SHA512_Final
                0x0041259c                SHA512_Simple
 .text          0x0041261c      0xa1c sshsha.o
                0x004126b4                SHATransform
                0x004128c4                SHA_Init
                0x00412904                SHA_Bytes
                0x00412bbc                SHA_Final
                0x00412f54                SHA_Simple
                0x00412fc4                hmac_sha1_simple
 .text          0x00413038     0x11cc tree234.o
                0x00413e7c                newtree234
                0x00413ea4                freetree234
                0x00413ec0                count234
                0x00413ed8                add234
                0x00413efc                addpos234
                0x00413f20                index234
                0x00413f9c                findrelpos234
                0x004140f4                find234
                0x00414128                findrel234
                0x00414158                findpos234
                0x00414188                delpos234
                0x004141b8                del234
 .text          0x00414204        0x0 version.o
 .text          0x00414204      0x238 winhelp.o
                0x00414204                init_help
                0x0041432c                shutdown_help
                0x00414334                has_help
                0x00414340                launch_help
                0x004143f4                quit_help
 .text          0x0041443c      0x394 winmisc.o
                0x0041443c                platform_get_x_display
                0x00414458                filename_from_str
                0x004144a0                filename_to_str
                0x004144a8                filename_equal
                0x004144d0                filename_is_null
                0x004144e0                init_winver
                0x00414510                load_system32_dll
                0x004145b4                get_username
                0x00414700                dputs
 .text          0x004147d0     0x3cec winpgnt.o
                0x00417ac0                modalfatalbox
                0x00417b14                random_byte
                0x00417b50                old_keyfile_warning
                0x00417b80                spawn_cmd
                0x00417c14                agent_schedule_callback
                0x00417c38                cleanup_exit
                0x00417c50                WinMain@16
 .text          0x004184bc      0x57c winpgntc.o
                0x004184bc                agent_exists
                0x004184e4                init_advapi
                0x0041860c                get_user_sid
                0x004187a0                agent_query
 .text          0x00418a38      0x54c winutils.o
                0x00418a98                request_file
                0x00418b5c                filereq_new
                0x00418b7c                filereq_free
                0x00418b88                message_box
                0x00418c00                pgp_fingerprints
                0x00418c2c                split_into_argv
 .text          0x00418f84        0x8 d:/mingw/bin/../lib/gcc/mingw32/4.5.2/../../../libadvapi32.a(dgxgs00245.o)
                0x00418f84                GetUserNameA@8
 .text          0x00418f8c        0x8 d:/mingw/bin/../lib/gcc/mingw32/4.5.2/../../../libadvapi32.a(dgxgs00172.o)
                0x00418f8c                EqualSid@8
 .text          0x00418f94        0x8 d:/mingw/bin/../lib/gcc/mingw32/4.5.2/../../../libadvapi32.a(dgxgs00412.o)
                0x00418f94                RegOpenKeyA@12
 .text          0x00418f9c        0x8 d:/mingw/bin/../lib/gcc/mingw32/4.5.2/../../../libadvapi32.a(dgxgs00400.o)
                0x00418f9c                RegEnumKeyA@16
 .text          0x00418fa4        0x8 d:/mingw/bin/../lib/gcc/mingw32/4.5.2/../../../libadvapi32.a(dgxgs00386.o)
                0x00418fa4                RegCloseKey@4
 .text          0x00418fac        0x8 d:/mingw/bin/../lib/gcc/mingw32/4.5.2/../../../libadvapi32.a(dgxgs00196.o)
                0x00418fac                GetLengthSid@4
 .text          0x00418fb4        0x8 d:/mingw/bin/../lib/gcc/mingw32/4.5.2/../../../libadvapi32.a(dgxgs00083.o)
                0x00418fb4                CopySid@12
 .text          0x00418fbc        0x0 d:/mingw/bin/../lib/gcc/mingw32/4.5.2/../../../libadvapi32.a(dgxgh.o)
 .text          0x00418fbc        0x0 d:/mingw/bin/../lib/gcc/mingw32/4.5.2/../../../libadvapi32.a(dgxgt.o)
 .text          0x00418fbc        0x8 d:/mingw/bin/../lib/gcc/mingw32/4.5.2/../../../libcomdlg32.a(demds00011.o)
                0x00418fbc                GetSaveFileNameA@4
 .text          0x00418fc4        0x8 d:/mingw/bin/../lib/gcc/mingw32/4.5.2/../../../libcomdlg32.a(demds00009.o)
                0x00418fc4                GetOpenFileNameA@4
 .text          0x00418fcc        0x0 d:/mingw/bin/../lib/gcc/mingw32/4.5.2/../../../libcomdlg32.a(demdh.o)
 .text          0x00418fcc        0x0 d:/mingw/bin/../lib/gcc/mingw32/4.5.2/../../../libcomdlg32.a(demdt.o)
 .text          0x00418fcc        0x8 d:/mingw/bin/../lib/gcc/mingw32/4.5.2/../../../libgdi32.a(dkfhs00201.o)
                0x00418fcc                GetStockObject@4
 .text          0x00418fd4        0x0 d:/mingw/bin/../lib/gcc/mingw32/4.5.2/../../../libgdi32.a(dkfhh.o)
 .text          0x00418fd4        0x0 d:/mingw/bin/../lib/gcc/mingw32/4.5.2/../../../libgdi32.a(dkfht.o)
 .text          0x00418fd4        0x8 d:/mingw/bin/../lib/gcc/mingw32/4.5.2/../../../libshell32.a(dukis00151.o)
                0x00418fd4                Shell_NotifyIconA@8
 .text          0x00418fdc        0x8 d:/mingw/bin/../lib/gcc/mingw32/4.5.2/../../../libshell32.a(dukis00144.o)
                0x00418fdc                ShellExecuteA@24
 .text          0x00418fe4        0x0 d:/mingw/bin/../lib/gcc/mingw32/4.5.2/../../../libshell32.a(dukih.o)
 .text          0x00418fe4        0x0 d:/mingw/bin/../lib/gcc/mingw32/4.5.2/../../../libshell32.a(dukit.o)
 .text          0x00418fe4        0x8 d:/mingw/bin/../lib/gcc/mingw32/4.5.2/../../../libuser32.a(daois00632.o)
                0x00418fe4                WinHelpA@16
 .text          0x00418fec        0x8 d:/mingw/bin/../lib/gcc/mingw32/4.5.2/../../../libuser32.a(daois00434.o)
                0x00418fec                MessageBoxA@16
 .text          0x00418ff4        0x8 d:/mingw/bin/../lib/gcc/mingw32/4.5.2/../../../libuser32.a(daois00147.o)
                0x00418ff4                DialogBoxParamA@20
 .text          0x00418ffc        0x8 d:/mingw/bin/../lib/gcc/mingw32/4.5.2/../../../libuser32.a(daois00182.o)
                0x00418ffc                EndDialog@8
 .text          0x00419004        0x8 d:/mingw/bin/../lib/gcc/mingw32/4.5.2/../../../libuser32.a(daois00250.o)
                0x00419004                GetDesktopWindow@0
 .text          0x0041900c        0x8 d:/mingw/bin/../lib/gcc/mingw32/4.5.2/../../../libuser32.a(daois00348.o)
                0x0041900c                GetWindowRect@8
 .text          0x00419014        0x8 d:/mingw/bin/../lib/gcc/mingw32/4.5.2/../../../libuser32.a(daois00534.o)
                0x00419014                SetForegroundWindow@4
 .text          0x0041901c        0x8 d:/mingw/bin/../lib/gcc/mingw32/4.5.2/../../../libuser32.a(daois00572.o)
                0x0041901c                SetWindowPos@28
 .text          0x00419024        0x8 d:/mingw/bin/../lib/gcc/mingw32/4.5.2/../../../libuser32.a(daois00530.o)
                0x00419024                SetDlgItemTextA@12
 .text          0x0041902c        0x8 d:/mingw/bin/../lib/gcc/mingw32/4.5.2/../../../libuser32.a(daois00445.o)
                0x0041902c                MoveWindow@24
 .text          0x00419034        0x8 d:/mingw/bin/../lib/gcc/mingw32/4.5.2/../../../libuser32.a(daois00255.o)
                0x00419034                GetDlgItemTextA@16
 .text          0x0041903c        0x8 d:/mingw/bin/../lib/gcc/mingw32/4.5.2/../../../libuser32.a(daois00433.o)
                0x0041903c                MessageBeep@4
 .text          0x00419044        0x8 d:/mingw/bin/../lib/gcc/mingw32/4.5.2/../../../libuser32.a(daois00409.o)
                0x00419044                LoadIconA@8
 .text          0x0041904c        0x8 d:/mingw/bin/../lib/gcc/mingw32/4.5.2/../../../libuser32.a(daois00142.o)
                0x0041904c                DestroyIcon@4
 .text          0x00419054        0x8 d:/mingw/bin/../lib/gcc/mingw32/4.5.2/../../../libuser32.a(daois00505.o)
                0x00419054                SendDlgItemMessageA@20
 .text          0x0041905c        0x8 d:/mingw/bin/../lib/gcc/mingw32/4.5.2/../../../libuser32.a(daois00287.o)
                0x0041905c                GetMenuItemInfoA@16
 .text          0x00419064        0x8 d:/mingw/bin/../lib/gcc/mingw32/4.5.2/../../../libuser32.a(daois00134.o)
                0x00419064                DefWindowProcA@16
 .text          0x0041906c        0x8 d:/mingw/bin/../lib/gcc/mingw32/4.5.2/../../../libuser32.a(daois00491.o)
                0x0041906c                RegisterWindowMessageA@4
 .text          0x00419074        0x8 d:/mingw/bin/../lib/gcc/mingw32/4.5.2/../../../libuser32.a(daois00283.o)
                0x00419074                GetMenuDefaultItem@12
 .text          0x0041907c        0x8 d:/mingw/bin/../lib/gcc/mingw32/4.5.2/../../../libuser32.a(daois00466.o)
                0x0041907c                PostMessageA@16
 .text          0x00419084        0x8 d:/mingw/bin/../lib/gcc/mingw32/4.5.2/../../../libuser32.a(daois00468.o)
                0x00419084                PostQuitMessage@4
 .text          0x0041908c        0x8 d:/mingw/bin/../lib/gcc/mingw32/4.5.2/../../../libuser32.a(daois00602.o)
                0x0041908c                TrackPopupMenu@28
 .text          0x00419094        0x8 d:/mingw/bin/../lib/gcc/mingw32/4.5.2/../../../libuser32.a(daois00508.o)
                0x00419094                SendMessageA@16
 .text          0x0041909c        0x8 d:/mingw/bin/../lib/gcc/mingw32/4.5.2/../../../libuser32.a(daois00080.o)
                0x0041909c                CreateDialogParamA@20
 .text          0x004190a4        0x8 d:/mingw/bin/../lib/gcc/mingw32/4.5.2/../../../libuser32.a(daois00585.o)
                0x004190a4                ShowWindow@8
 .text          0x004190ac        0x8 d:/mingw/bin/../lib/gcc/mingw32/4.5.2/../../../libuser32.a(daois00247.o)
                0x004190ac                GetCursorPos@4
 .text          0x004190b4        0x8 d:/mingw/bin/../lib/gcc/mingw32/4.5.2/../../../libuser32.a(daois00285.o)
                0x004190b4                GetMenuItemCount@4
 .text          0x004190bc        0x8 d:/mingw/bin/../lib/gcc/mingw32/4.5.2/../../../libuser32.a(daois00495.o)
                0x004190bc                RemoveMenu@12
 .text          0x004190c4        0x8 d:/mingw/bin/../lib/gcc/mingw32/4.5.2/../../../libuser32.a(daois00365.o)
                0x004190c4                InsertMenuItemA@16
 .text          0x004190cc        0x8 d:/mingw/bin/../lib/gcc/mingw32/4.5.2/../../../libuser32.a(daois00144.o)
                0x004190cc                DestroyWindow@4
 .text          0x004190d4        0x8 d:/mingw/bin/../lib/gcc/mingw32/4.5.2/../../../libuser32.a(daois00180.o)
                0x004190d4                EnableWindow@8
 .text          0x004190dc        0x8 d:/mingw/bin/../lib/gcc/mingw32/4.5.2/../../../libuser32.a(daois00516.o)
                0x004190dc                SetActiveWindow@4
 .text          0x004190e4        0x8 d:/mingw/bin/../lib/gcc/mingw32/4.5.2/../../../libuser32.a(daois00253.o)
                0x004190e4                GetDlgItem@8
 .text          0x004190ec        0x8 d:/mingw/bin/../lib/gcc/mingw32/4.5.2/../../../libuser32.a(daois00342.o)
                0x004190ec                GetWindowLongA@8
 .text          0x004190f4        0x8 d:/mingw/bin/../lib/gcc/mingw32/4.5.2/../../../libuser32.a(daois00569.o)
                0x004190f4                SetWindowLongA@12
 .text          0x004190fc        0x8 d:/mingw/bin/../lib/gcc/mingw32/4.5.2/../../../libuser32.a(daois00090.o)
                0x004190fc                CreateWindowExA@48
 .text          0x00419104        0x8 d:/mingw/bin/../lib/gcc/mingw32/4.5.2/../../../libuser32.a(daois00089.o)
                0x00419104                CreatePopupMenu@0
 .text          0x0041910c        0x8 d:/mingw/bin/../lib/gcc/mingw32/4.5.2/../../../libuser32.a(daois00088.o)
                0x0041910c                CreateMenu@0
 .text          0x00419114        0x8 d:/mingw/bin/../lib/gcc/mingw32/4.5.2/../../../libuser32.a(daois00006.o)
                0x00419114                AppendMenuA@16
 .text          0x0041911c        0x8 d:/mingw/bin/../lib/gcc/mingw32/4.5.2/../../../libuser32.a(daois00540.o)
                0x0041911c                SetMenuDefaultItem@12
 .text          0x00419124        0x8 d:/mingw/bin/../lib/gcc/mingw32/4.5.2/../../../libuser32.a(daois00293.o)
                0x00419124                GetMessageA@16
 .text          0x0041912c        0x8 d:/mingw/bin/../lib/gcc/mingw32/4.5.2/../../../libuser32.a(daois00394.o)
                0x0041912c                IsWindow@4
 .text          0x00419134        0x8 d:/mingw/bin/../lib/gcc/mingw32/4.5.2/../../../libuser32.a(daois00384.o)
                0x00419134                IsDialogMessageA@8
 .text          0x0041913c        0x8 d:/mingw/bin/../lib/gcc/mingw32/4.5.2/../../../libuser32.a(daois00608.o)
                0x0041913c                TranslateMessage@4
 .text          0x00419144        0x8 d:/mingw/bin/../lib/gcc/mingw32/4.5.2/../../../libuser32.a(daois00149.o)
                0x00419144                DispatchMessageA@4
 .text          0x0041914c        0x8 d:/mingw/bin/../lib/gcc/mingw32/4.5.2/../../../libuser32.a(daois00143.o)
                0x0041914c                DestroyMenu@4
 .text          0x00419154        0x8 d:/mingw/bin/../lib/gcc/mingw32/4.5.2/../../../libuser32.a(daois00405.o)
                0x00419154                LoadCursorA@8
 .text          0x0041915c        0x8 d:/mingw/bin/../lib/gcc/mingw32/4.5.2/../../../libuser32.a(daois00479.o)
                0x0041915c                RegisterClassA@4
 .text          0x00419164        0x8 d:/mingw/bin/../lib/gcc/mingw32/4.5.2/../../../libuser32.a(daois00210.o)
                0x00419164                FindWindowA@8
 .text          0x0041916c        0x8 d:/mingw/bin/../lib/gcc/mingw32/4.5.2/../../../libuser32.a(daois00437.o)
                0x0041916c                MessageBoxIndirectA@4
 .text          0x00419174        0x0 d:/mingw/bin/../lib/gcc/mingw32/4.5.2/../../../libuser32.a(daoih.o)
 .text          0x00419174        0x0 d:/mingw/bin/../lib/gcc/mingw32/4.5.2/../../../libuser32.a(daoit.o)
 *fill*         0x00419174        0xc 00
 .text          0x00419180      0x1d0 d:/mingw/bin/../lib/gcc/mingw32/4.5.2/../../../libmingw32.a(tlssup.o)
                0x00419180                __tlregdtor
                0x004191d0                __dyn_tls_init@12
 .text          0x00419350        0x0 d:/mingw/bin/../lib/gcc/mingw32/4.5.2/../../../libmingw32.a(CRTglob.o)
 .text          0x00419350        0x0 d:/mingw/bin/../lib/gcc/mingw32/4.5.2/../../../libmingw32.a(CRTfmode.o)
 .text          0x00419350        0x0 d:/mingw/bin/../lib/gcc/mingw32/4.5.2/../../../libmingw32.a(txtmode.o)
 .text          0x00419350       0xe0 d:/mingw/bin/../lib/gcc/mingw32/4.5.2/../../../libmingw32.a(cpu_features.o)
                0x00419350                __cpu_features_init
 .text          0x00419430      0x2e0 d:/mingw/bin/../lib/gcc/mingw32/4.5.2/../../../libmingw32.a(pseudo-reloc.o)
                0x00419560                _pei386_runtime_relocator
 .text          0x00419710       0xb0 d:/mingw/bin/../lib/gcc/mingw32/4.5.2/../../../libmingw32.a(gccmain.o)
                0x00419710                __do_global_dtors
                0x00419740                __do_global_ctors
                0x004197a0                __main
 .text          0x004197c0      0x110 d:/mingw/bin/../lib/gcc/mingw32/4.5.2/../../../libmingw32.a(main.o)
                0x004197c0                main
 .text          0x004198d0       0x10 d:/mingw/bin/../lib/gcc/mingw32/4.5.2/../../../libmingw32.a(CRT_fp10.o)
                0x004198d0                fpreset
                0x004198d0                _fpreset
 .text          0x004198e0        0x0 d:/mingw/bin/../lib/gcc/mingw32/4.5.2/../../../libmingw32.a(crtst.o)
 .text          0x004198e0      0x210 d:/mingw/bin/../lib/gcc/mingw32/4.5.2/../../../libmingw32.a(tlsthrd.o)
                0x00419960                __mingw_TLScallback
                0x004199f0                ___w64_mingwthr_remove_key_dtor
                0x00419a80                ___w64_mingwthr_add_key_dtor
 .text          0x00419af0        0x0 d:/mingw/bin/../lib/gcc/mingw32/4.5.2/../../../libmingw32.a(pseudo-reloc-list.o)
 .text          0x00419af0      0x124 d:/mingw/bin/../lib/gcc/mingw32/4.5.2/libgcc.a(_umoddi3.o)
                0x00419af0                __umoddi3
 .text          0x00419c14      0x110 d:/mingw/bin/../lib/gcc/mingw32/4.5.2/libgcc.a(_udivdi3.o)
                0x00419c14                __udivdi3
 .text          0x00419d24       0x34 d:/mingw/bin/../lib/gcc/mingw32/4.5.2/libgcc.a(_chkstk.o)
                0x00419d24                _alloca
                0x00419d24                __chkstk
 .text          0x00419d58        0x0 d:/mingw/bin/../lib/gcc/mingw32/4.5.2/libgcc.a(_ctors.o)
 .text          0x00419d58        0x0 d:/mingw/bin/../lib/gcc/mingw32/4.5.2/../../../libmsvcrt.a(duyms00590.o)
 .text          0x00419d58        0x0 d:/mingw/bin/../lib/gcc/mingw32/4.5.2/../../../libmsvcrt.a(duyms00383.o)
 .text          0x00419d58        0x0 d:/mingw/bin/../lib/gcc/mingw32/4.5.2/../../../libmsvcrt.a(duyms00266.o)
 .text          0x00419d58        0x8 d:/mingw/bin/../lib/gcc/mingw32/4.5.2/../../../libmsvcrt.a(duyms00055.o)
                0x00419d58                __getmainargs
 .text          0x00419d60        0x8 d:/mingw/bin/../lib/gcc/mingw32/4.5.2/../../../libmsvcrt.a(duyms00079.o)
                0x00419d60                __p__fmode
 .text          0x00419d68        0x8 d:/mingw/bin/../lib/gcc/mingw32/4.5.2/../../../libmsvcrt.a(duyms00077.o)
                0x00419d68                __p__environ
 .text          0x00419d70        0x8 d:/mingw/bin/../lib/gcc/mingw32/4.5.2/../../../libmsvcrt.a(duyms00147.o)
                0x00419d70                _cexit
 .text          0x00419d78        0x8 d:/mingw/bin/../lib/gcc/mingw32/4.5.2/../../../libmsvcrt.a(duyms00426.o)
                0x00419d78                _setmode
 .text          0x00419d80        0x8 d:/mingw/bin/../lib/gcc/mingw32/4.5.2/../../../libmsvcrt.a(duyms00706.o)
                0x00419d80                signal
 .text          0x00419d88        0x0 d:/mingw/bin/../lib/gcc/mingw32/4.5.2/../../../libmsvcrt.a(duyms00065.o)
 .text          0x00419d88        0x0 d:/mingw/bin/../lib/gcc/mingw32/4.5.2/../../../libmsvcrt.a(duyms00392.o)
 .text          0x00419d88        0x8 d:/mingw/bin/../lib/gcc/mingw32/4.5.2/../../../libmsvcrt.a(duyms00732.o)
                0x00419d88                strtoul
 .text          0x00419d90        0x8 d:/mingw/bin/../lib/gcc/mingw32/4.5.2/../../../libmsvcrt.a(duyms00268.o)
                0x00419d90                _isctype
 .text          0x00419d98        0x8 d:/mingw/bin/../lib/gcc/mingw32/4.5.2/../../../libmsvcrt.a(duyms00731.o)
                0x00419d98                strtol
 .text          0x00419da0        0x8 d:/mingw/bin/../lib/gcc/mingw32/4.5.2/../../../libmsvcrt.a(duyms00137.o)
                0x00419da0                _assert
 .text          0x00419da8        0x8 d:/mingw/bin/../lib/gcc/mingw32/4.5.2/../../../libmsvcrt.a(duyms00676.o)
                0x00419da8                malloc
 .text          0x00419db0        0x8 d:/mingw/bin/../lib/gcc/mingw32/4.5.2/../../../libmsvcrt.a(duyms00717.o)
                0x00419db0                strcpy
 .text          0x00419db8        0x8 d:/mingw/bin/../lib/gcc/mingw32/4.5.2/../../../libmsvcrt.a(duyms00698.o)
                0x00419db8                realloc
 .text          0x00419dc0        0x8 d:/mingw/bin/../lib/gcc/mingw32/4.5.2/../../../libmsvcrt.a(duyms00490.o)
                0x00419dc0                _vsnprintf
 .text          0x00419dc8        0x8 d:/mingw/bin/../lib/gcc/mingw32/4.5.2/../../../libmsvcrt.a(duyms00625.o)
                0x00419dc8                free
 .text          0x00419dd0        0x8 d:/mingw/bin/../lib/gcc/mingw32/4.5.2/../../../libmsvcrt.a(duyms00613.o)
                0x00419dd0                fgets
 .text          0x00419dd8        0x8 d:/mingw/bin/../lib/gcc/mingw32/4.5.2/../../../libmsvcrt.a(duyms00583.o)
                0x00419dd8                abort
 .text          0x00419de0        0x8 d:/mingw/bin/../lib/gcc/mingw32/4.5.2/../../../libmsvcrt.a(duyms00683.o)
                0x00419de0                memmove
 .text          0x00419de8        0x8 d:/mingw/bin/../lib/gcc/mingw32/4.5.2/../../../libmsvcrt.a(duyms00709.o)
                0x00419de8                sprintf
 .text          0x00419df0        0x8 d:/mingw/bin/../lib/gcc/mingw32/4.5.2/../../../libmsvcrt.a(duyms00611.o)
                0x00419df0                fgetc
 .text          0x00419df8        0x8 d:/mingw/bin/../lib/gcc/mingw32/4.5.2/../../../libmsvcrt.a(duyms00746.o)
                0x00419df8                ungetc
 .text          0x00419e00        0x8 d:/mingw/bin/../lib/gcc/mingw32/4.5.2/../../../libmsvcrt.a(duyms00624.o)
                0x00419e00                fread
 .text          0x00419e08        0x8 d:/mingw/bin/../lib/gcc/mingw32/4.5.2/../../../libmsvcrt.a(duyms00607.o)
                0x00419e08                fclose
 .text          0x00419e10        0x8 d:/mingw/bin/../lib/gcc/mingw32/4.5.2/../../../libmsvcrt.a(duyms00618.o)
                0x00419e10                fopen
 .text          0x00419e18        0x8 d:/mingw/bin/../lib/gcc/mingw32/4.5.2/../../../libmsvcrt.a(duyms00715.o)
                0x00419e18                strcmp
 .text          0x00419e20        0x8 d:/mingw/bin/../lib/gcc/mingw32/4.5.2/../../../libmsvcrt.a(duyms00592.o)
                0x00419e20                atoi
 .text          0x00419e28        0x8 d:/mingw/bin/../lib/gcc/mingw32/4.5.2/../../../libmsvcrt.a(duyms00633.o)
                0x00419e28                fwrite
 .text          0x00419e30        0x8 d:/mingw/bin/../lib/gcc/mingw32/4.5.2/../../../libmsvcrt.a(duyms00620.o)
                0x00419e30                fputc
 .text          0x00419e38        0x8 d:/mingw/bin/../lib/gcc/mingw32/4.5.2/../../../libmsvcrt.a(duyms00619.o)
                0x00419e38                fprintf
 .text          0x00419e40        0x8 d:/mingw/bin/../lib/gcc/mingw32/4.5.2/../../../libmsvcrt.a(duyms00724.o)
                0x00419e40                strncpy
 .text          0x00419e48        0x8 d:/mingw/bin/../lib/gcc/mingw32/4.5.2/../../../libmsvcrt.a(duyms00726.o)
                0x00419e48                strrchr
 .text          0x00419e50        0x8 d:/mingw/bin/../lib/gcc/mingw32/4.5.2/../../../libmsvcrt.a(duyms00718.o)
                0x00419e50                strcspn
 .text          0x00419e58        0x8 d:/mingw/bin/../lib/gcc/mingw32/4.5.2/../../../libmsvcrt.a(duyms00637.o)
                0x00419e58                getenv
 .text          0x00419e60        0x8 d:/mingw/bin/../lib/gcc/mingw32/4.5.2/../../../libmsvcrt.a(duyms00714.o)
                0x00419e60                strchr
 .text          0x00419e68        0x8 d:/mingw/bin/../lib/gcc/mingw32/4.5.2/../../../libmsvcrt.a(duyms00621.o)
                0x00419e68                fputs
 .text          0x00419e70        0x8 d:/mingw/bin/../lib/gcc/mingw32/4.5.2/../../../libmsvcrt.a(duyms00610.o)
                0x00419e70                fflush
 .text          0x00419e78        0x8 d:/mingw/bin/../lib/gcc/mingw32/4.5.2/../../../libmsvcrt.a(duyms00681.o)
                0x00419e78                memcmp
 .text          0x00419e80        0x8 d:/mingw/bin/../lib/gcc/mingw32/4.5.2/../../../libmsvcrt.a(duyms00713.o)
                0x00419e80                strcat
 .text          0x00419e88        0x8 d:/mingw/bin/../lib/gcc/mingw32/4.5.2/../../../libmsvcrt.a(duyms00604.o)
                0x00419e88                exit
 .text          0x00419e90        0x0 d:/mingw/bin/../lib/gcc/mingw32/4.5.2/../../../libmsvcrt.a(duyms00538.o)
 .text          0x00419e90        0x8 d:/mingw/bin/../lib/gcc/mingw32/4.5.2/../../../libmsvcrt.a(duyms00748.o)
                0x00419e90                vfprintf
 .text          0x00419e98        0x8 d:/mingw/bin/../lib/gcc/mingw32/4.5.2/../../../libmsvcrt.a(duyms00682.o)
                0x00419e98                memcpy
 .text          0x00419ea0        0x8 d:/mingw/bin/../lib/gcc/mingw32/4.5.2/../../../libmsvcrt.a(duyms00595.o)
                0x00419ea0                calloc
 .text          0x00419ea8        0x0 d:/mingw/bin/../lib/gcc/mingw32/4.5.2/../../../libmsvcrt.a(duymh.o)
 .text          0x00419ea8        0x0 d:/mingw/bin/../lib/gcc/mingw32/4.5.2/../../../libmsvcrt.a(duymt.o)
 .text          0x00419ea8        0x8 d:/mingw/bin/../lib/gcc/mingw32/4.5.2/../../../libkernel32.a(dchds01140.o)
                0x00419ea8                SetUnhandledExceptionFilter@4
 .text          0x00419eb0        0x8 d:/mingw/bin/../lib/gcc/mingw32/4.5.2/../../../libkernel32.a(dchds00279.o)
                0x00419eb0                ExitProcess@4
 .text          0x00419eb8        0x8 d:/mingw/bin/../lib/gcc/mingw32/4.5.2/../../../libkernel32.a(dchds00529.o)
                0x00419eb8                GetModuleHandleA@4
 .text          0x00419ec0        0x8 d:/mingw/bin/../lib/gcc/mingw32/4.5.2/../../../libkernel32.a(dchds00577.o)
                0x00419ec0                GetProcAddress@8
 .text          0x00419ec8        0x8 d:/mingw/bin/../lib/gcc/mingw32/4.5.2/../../../libkernel32.a(dchds00527.o)
                0x00419ec8                GetModuleFileNameA@12
 .text          0x00419ed0        0x8 d:/mingw/bin/../lib/gcc/mingw32/4.5.2/../../../libkernel32.a(dchds00671.o)
                0x00419ed0                GetVersionExA@4
 .text          0x00419ed8        0x8 d:/mingw/bin/../lib/gcc/mingw32/4.5.2/../../../libkernel32.a(dchds00817.o)
                0x00419ed8                LoadLibraryA@4
 .text          0x00419ee0        0x8 d:/mingw/bin/../lib/gcc/mingw32/4.5.2/../../../libkernel32.a(dchds00619.o)
                0x00419ee0                GetSystemDirectoryA@8
 .text          0x00419ee8        0x8 d:/mingw/bin/../lib/gcc/mingw32/4.5.2/../../../libkernel32.a(dchds01267.o)
                0x00419ee8                WriteFile@20
 .text          0x00419ef0        0x8 d:/mingw/bin/../lib/gcc/mingw32/4.5.2/../../../libkernel32.a(dchds00016.o)
                0x00419ef0                AllocConsole@0
 .text          0x00419ef8        0x8 d:/mingw/bin/../lib/gcc/mingw32/4.5.2/../../../libkernel32.a(dchds00608.o)
                0x00419ef8                GetStdHandle@4
 .text          0x00419f00        0x8 d:/mingw/bin/../lib/gcc/mingw32/4.5.2/../../../libkernel32.a(dchds00877.o)
                0x00419f00                OpenFileMappingA@12
 .text          0x00419f08        0x8 d:/mingw/bin/../lib/gcc/mingw32/4.5.2/../../../libkernel32.a(dchds00829.o)
                0x00419f08                LocalFree@4
 .text          0x00419f10        0x8 d:/mingw/bin/../lib/gcc/mingw32/4.5.2/../../../libkernel32.a(dchds00844.o)
                0x00419f10                MapViewOfFile@20
 .text          0x00419f18        0x8 d:/mingw/bin/../lib/gcc/mingw32/4.5.2/../../../libkernel32.a(dchds01188.o)
                0x00419f18                UnmapViewOfFile@4
 .text          0x00419f20        0x8 d:/mingw/bin/../lib/gcc/mingw32/4.5.2/../../../libkernel32.a(dchds00082.o)
                0x00419f20                CloseHandle@4
 .text          0x00419f28        0x8 d:/mingw/bin/../lib/gcc/mingw32/4.5.2/../../../libkernel32.a(dchds00510.o)
                0x00419f28                GetLastError@0
 .text          0x00419f30        0x8 d:/mingw/bin/../lib/gcc/mingw32/4.5.2/../../../libkernel32.a(dchds00447.o)
                0x00419f30                GetCurrentProcessId@0
 .text          0x00419f38        0x8 d:/mingw/bin/../lib/gcc/mingw32/4.5.2/../../../libkernel32.a(dchds00885.o)
                0x00419f38                OpenProcess@12
 .text          0x00419f40        0x8 d:/mingw/bin/../lib/gcc/mingw32/4.5.2/../../../libkernel32.a(dchds00825.o)
                0x00419f40                LocalAlloc@8
 .text          0x00419f48        0x8 d:/mingw/bin/../lib/gcc/mingw32/4.5.2/../../../libkernel32.a(dchds00451.o)
                0x00419f48                GetCurrentThreadId@0
 .text          0x00419f50        0x8 d:/mingw/bin/../lib/gcc/mingw32/4.5.2/../../../libkernel32.a(dchds00136.o)
                0x00419f50                CreateFileMappingA@24
 .text          0x00419f58        0x8 d:/mingw/bin/../lib/gcc/mingw32/4.5.2/../../../libkernel32.a(dchds00444.o)
                0x00419f58                GetCurrentDirectoryA@8
 .text          0x00419f60        0x8 d:/mingw/bin/../lib/gcc/mingw32/4.5.2/../../../libkernel32.a(dchds01052.o)
                0x00419f60                SetCurrentDirectoryA@4
 .text          0x00419f68        0x8 d:/mingw/bin/../lib/gcc/mingw32/4.5.2/../../../libkernel32.a(dchds00352.o)
                0x00419f68                FreeLibrary@4
 .text          0x00419f70        0x8 d:/mingw/bin/../lib/gcc/mingw32/4.5.2/../../../libkernel32.a(dchds01215.o)
                0x00419f70                VirtualQuery@12
 .text          0x00419f78        0x8 d:/mingw/bin/../lib/gcc/mingw32/4.5.2/../../../libkernel32.a(dchds01213.o)
                0x00419f78                VirtualProtect@16
 .text          0x00419f80        0x8 d:/mingw/bin/../lib/gcc/mingw32/4.5.2/../../../libkernel32.a(dchds00388.o)
                0x00419f80                GetCommandLineA@0
 .text          0x00419f88        0x8 d:/mingw/bin/../lib/gcc/mingw32/4.5.2/../../../libkernel32.a(dchds00606.o)
                0x00419f88                GetStartupInfoA@4
 .text          0x00419f90        0x8 d:/mingw/bin/../lib/gcc/mingw32/4.5.2/../../../libkernel32.a(dchds01173.o)
                0x00419f90                TlsGetValue@4
 .text          0x00419f98        0x8 d:/mingw/bin/../lib/gcc/mingw32/4.5.2/../../../libkernel32.a(dchds00207.o)
                0x00419f98                DeleteCriticalSection@4
 .text          0x00419fa0        0x8 d:/mingw/bin/../lib/gcc/mingw32/4.5.2/../../../libkernel32.a(dchds00734.o)
                0x00419fa0                InitializeCriticalSection@4
 .text          0x00419fa8        0x8 d:/mingw/bin/../lib/gcc/mingw32/4.5.2/../../../libkernel32.a(dchds00236.o)
                0x00419fa8                EnterCriticalSection@4
 .text          0x00419fb0        0x8 d:/mingw/bin/../lib/gcc/mingw32/4.5.2/../../../libkernel32.a(dchds00814.o)
                0x00419fb0                LeaveCriticalSection@4
 .text          0x00419fb8        0x0 d:/mingw/bin/../lib/gcc/mingw32/4.5.2/../../../libkernel32.a(dchdh.o)
 .text          0x00419fb8        0x0 d:/mingw/bin/../lib/gcc/mingw32/4.5.2/../../../libkernel32.a(dchdt.o)
 .text          0x00419fb8       0x1c d:/mingw/bin/../lib/gcc/mingw32/4.5.2/crtend.o
 *(SORT(.text$*))
 *(.text.*)
 *(.glue_7t)
 *(.glue_7)
                0x00419fd4                ___CTOR_LIST__ = .
                0x00419fd4                __CTOR_LIST__ = .
                0x00419fd4        0x4 LONG 0xffffffff
 *(.ctors)
 *(.ctor)
 *(SORT(.ctors.*))
 .ctors.65535   0x00419fd8        0x4 d:/mingw/bin/../lib/gcc/mingw32/4.5.2/crtend.o
                0x00419fdc        0x4 LONG 0x0
                0x00419fe0                ___DTOR_LIST__ = .
                0x00419fe0                __DTOR_LIST__ = .
                0x00419fe0        0x4 LONG 0xffffffff
 *(.dtors)
 *(.dtor)
 *(SORT(.dtors.*))
                0x00419fe4        0x4 LONG 0x0
 *(.fini)
 *(.gcc_exc)
                0x00419fe8                PROVIDE (etext, .)
 *(.gcc_except_table)

.data           0x0041a000      0x200
                0x0041a000                __data_start__ = .
 *(.data)
 .data          0x0041a000        0x0 d:/mingw/bin/../lib/gcc/mingw32/4.5.2/../../../crt2.o
 .data          0x0041a000        0x0 d:/mingw/bin/../lib/gcc/mingw32/4.5.2/crtbegin.o
 .data          0x0041a000        0x0 misc.o
 .data          0x0041a000        0x0 sshaes.o
 .data          0x0041a000       0x10 sshbn.o
                0x0041a000                bnOne
                0x0041a008                Zero
                0x0041a00c                One
 .data          0x0041a010        0x0 sshdes.o
 .data          0x0041a010        0x0 sshdss.o
 .data          0x0041a010        0x0 sshmd5.o
 .data          0x0041a010        0x0 sshpubk.o
 .data          0x0041a010        0x0 sshrsa.o
 .data          0x0041a010        0x0 sshsh256.o
 .data          0x0041a010        0x0 sshsh512.o
 .data          0x0041a010        0x0 sshsha.o
 .data          0x0041a010        0x0 tree234.o
 *fill*         0x0041a010       0x10 00
 .data          0x0041a020       0x80 version.o
                0x0041a020                ver
                0x0041a060                sshver
 .data          0x0041a0a0        0x0 winhelp.o
 .data          0x0041a0a0        0x4 winmisc.o
 .data          0x0041a0a4       0x10 winpgnt.o
                0x0041a0a4                flags
 .data          0x0041a0b4        0x0 winpgntc.o
 .data          0x0041a0b4        0x0 winutils.o
 .data          0x0041a0b4        0x0 d:/mingw/bin/../lib/gcc/mingw32/4.5.2/../../../libadvapi32.a(dgxgs00245.o)
 .data          0x0041a0b4        0x0 d:/mingw/bin/../lib/gcc/mingw32/4.5.2/../../../libadvapi32.a(dgxgs00172.o)
 .data          0x0041a0b4        0x0 d:/mingw/bin/../lib/gcc/mingw32/4.5.2/../../../libadvapi32.a(dgxgs00412.o)
 .data          0x0041a0b4        0x0 d:/mingw/bin/../lib/gcc/mingw32/4.5.2/../../../libadvapi32.a(dgxgs00400.o)
 .data          0x0041a0b4        0x0 d:/mingw/bin/../lib/gcc/mingw32/4.5.2/../../../libadvapi32.a(dgxgs00386.o)
 .data          0x0041a0b4        0x0 d:/mingw/bin/../lib/gcc/mingw32/4.5.2/../../../libadvapi32.a(dgxgs00196.o)
 .data          0x0041a0b4        0x0 d:/mingw/bin/../lib/gcc/mingw32/4.5.2/../../../libadvapi32.a(dgxgs00083.o)
 .data          0x0041a0b4        0x0 d:/mingw/bin/../lib/gcc/mingw32/4.5.2/../../../libadvapi32.a(dgxgh.o)
 .data          0x0041a0b4        0x0 d:/mingw/bin/../lib/gcc/mingw32/4.5.2/../../../libadvapi32.a(dgxgt.o)
 .data          0x0041a0b4        0x0 d:/mingw/bin/../lib/gcc/mingw32/4.5.2/../../../libcomdlg32.a(demds00011.o)
 .data          0x0041a0b4        0x0 d:/mingw/bin/../lib/gcc/mingw32/4.5.2/../../../libcomdlg32.a(demds00009.o)
 .data          0x0041a0b4        0x0 d:/mingw/bin/../lib/gcc/mingw32/4.5.2/../../../libcomdlg32.a(demdh.o)
 .data          0x0041a0b4        0x0 d:/mingw/bin/../lib/gcc/mingw32/4.5.2/../../../libcomdlg32.a(demdt.o)
 .data          0x0041a0b4        0x0 d:/mingw/bin/../lib/gcc/mingw32/4.5.2/../../../libgdi32.a(dkfhs00201.o)
 .data          0x0041a0b4        0x0 d:/mingw/bin/../lib/gcc/mingw32/4.5.2/../../../libgdi32.a(dkfhh.o)
 .data          0x0041a0b4        0x0 d:/mingw/bin/../lib/gcc/mingw32/4.5.2/../../../libgdi32.a(dkfht.o)
 .data          0x0041a0b4        0x0 d:/mingw/bin/../lib/gcc/mingw32/4.5.2/../../../libshell32.a(dukis00151.o)
 .data          0x0041a0b4        0x0 d:/mingw/bin/../lib/gcc/mingw32/4.5.2/../../../libshell32.a(dukis00144.o)
 .data          0x0041a0b4        0x0 d:/mingw/bin/../lib/gcc/mingw32/4.5.2/../../../libshell32.a(dukih.o)
 .data          0x0041a0b4        0x0 d:/mingw/bin/../lib/gcc/mingw32/4.5.2/../../../libshell32.a(dukit.o)
 .data          0x0041a0b4        0x0 d:/mingw/bin/../lib/gcc/mingw32/4.5.2/../../../libuser32.a(daois00632.o)
 .data          0x0041a0b4        0x0 d:/mingw/bin/../lib/gcc/mingw32/4.5.2/../../../libuser32.a(daois00434.o)
 .data          0x0041a0b4        0x0 d:/mingw/bin/../lib/gcc/mingw32/4.5.2/../../../libuser32.a(daois00147.o)
 .data          0x0041a0b4        0x0 d:/mingw/bin/../lib/gcc/mingw32/4.5.2/../../../libuser32.a(daois00182.o)
 .data          0x0041a0b4        0x0 d:/mingw/bin/../lib/gcc/mingw32/4.5.2/../../../libuser32.a(daois00250.o)
 .data          0x0041a0b4        0x0 d:/mingw/bin/../lib/gcc/mingw32/4.5.2/../../../libuser32.a(daois00348.o)
 .data          0x0041a0b4        0x0 d:/mingw/bin/../lib/gcc/mingw32/4.5.2/../../../libuser32.a(daois00534.o)
 .data          0x0041a0b4        0x0 d:/mingw/bin/../lib/gcc/mingw32/4.5.2/../../../libuser32.a(daois00572.o)
 .data          0x0041a0b4        0x0 d:/mingw/bin/../lib/gcc/mingw32/4.5.2/../../../libuser32.a(daois00530.o)
 .data          0x0041a0b4        0x0 d:/mingw/bin/../lib/gcc/mingw32/4.5.2/../../../libuser32.a(daois00445.o)
 .data          0x0041a0b4        0x0 d:/mingw/bin/../lib/gcc/mingw32/4.5.2/../../../libuser32.a(daois00255.o)
 .data          0x0041a0b4        0x0 d:/mingw/bin/../lib/gcc/mingw32/4.5.2/../../../libuser32.a(daois00433.o)
 .data          0x0041a0b4        0x0 d:/mingw/bin/../lib/gcc/mingw32/4.5.2/../../../libuser32.a(daois00409.o)
 .data          0x0041a0b4        0x0 d:/mingw/bin/../lib/gcc/mingw32/4.5.2/../../../libuser32.a(daois00142.o)
 .data          0x0041a0b4        0x0 d:/mingw/bin/../lib/gcc/mingw32/4.5.2/../../../libuser32.a(daois00505.o)
 .data          0x0041a0b4        0x0 d:/mingw/bin/../lib/gcc/mingw32/4.5.2/../../../libuser32.a(daois00287.o)
 .data          0x0041a0b4        0x0 d:/mingw/bin/../lib/gcc/mingw32/4.5.2/../../../libuser32.a(daois00134.o)
 .data          0x0041a0b4        0x0 d:/mingw/bin/../lib/gcc/mingw32/4.5.2/../../../libuser32.a(daois00491.o)
 .data          0x0041a0b4        0x0 d:/mingw/bin/../lib/gcc/mingw32/4.5.2/../../../libuser32.a(daois00283.o)
 .data          0x0041a0b4        0x0 d:/mingw/bin/../lib/gcc/mingw32/4.5.2/../../../libuser32.a(daois00466.o)
 .data          0x0041a0b4        0x0 d:/mingw/bin/../lib/gcc/mingw32/4.5.2/../../../libuser32.a(daois00468.o)
 .data          0x0041a0b4        0x0 d:/mingw/bin/../lib/gcc/mingw32/4.5.2/../../../libuser32.a(daois00602.o)
 .data          0x0041a0b4        0x0 d:/mingw/bin/../lib/gcc/mingw32/4.5.2/../../../libuser32.a(daois00508.o)
 .data          0x0041a0b4        0x0 d:/mingw/bin/../lib/gcc/mingw32/4.5.2/../../../libuser32.a(daois00080.o)
 .data          0x0041a0b4        0x0 d:/mingw/bin/../lib/gcc/mingw32/4.5.2/../../../libuser32.a(daois00585.o)
 .data          0x0041a0b4        0x0 d:/mingw/bin/../lib/gcc/mingw32/4.5.2/../../../libuser32.a(daois00247.o)
 .data          0x0041a0b4        0x0 d:/mingw/bin/../lib/gcc/mingw32/4.5.2/../../../libuser32.a(daois00285.o)
 .data          0x0041a0b4        0x0 d:/mingw/bin/../lib/gcc/mingw32/4.5.2/../../../libuser32.a(daois00495.o)
 .data          0x0041a0b4        0x0 d:/mingw/bin/../lib/gcc/mingw32/4.5.2/../../../libuser32.a(daois00365.o)
 .data          0x0041a0b4        0x0 d:/mingw/bin/../lib/gcc/mingw32/4.5.2/../../../libuser32.a(daois00144.o)
 .data          0x0041a0b4        0x0 d:/mingw/bin/../lib/gcc/mingw32/4.5.2/../../../libuser32.a(daois00180.o)
 .data          0x0041a0b4        0x0 d:/mingw/bin/../lib/gcc/mingw32/4.5.2/../../../libuser32.a(daois00516.o)
 .data          0x0041a0b4        0x0 d:/mingw/bin/../lib/gcc/mingw32/4.5.2/../../../libuser32.a(daois00253.o)
 .data          0x0041a0b4        0x0 d:/mingw/bin/../lib/gcc/mingw32/4.5.2/../../../libuser32.a(daois00342.o)
 .data          0x0041a0b4        0x0 d:/mingw/bin/../lib/gcc/mingw32/4.5.2/../../../libuser32.a(daois00569.o)
 .data          0x0041a0b4        0x0 d:/mingw/bin/../lib/gcc/mingw32/4.5.2/../../../libuser32.a(daois00090.o)
 .data          0x0041a0b4        0x0 d:/mingw/bin/../lib/gcc/mingw32/4.5.2/../../../libuser32.a(daois00089.o)
 .data          0x0041a0b4        0x0 d:/mingw/bin/../lib/gcc/mingw32/4.5.2/../../../libuser32.a(daois00088.o)
 .data          0x0041a0b4        0x0 d:/mingw/bin/../lib/gcc/mingw32/4.5.2/../../../libuser32.a(daois00006.o)
 .data          0x0041a0b4        0x0 d:/mingw/bin/../lib/gcc/mingw32/4.5.2/../../../libuser32.a(daois00540.o)
 .data          0x0041a0b4        0x0 d:/mingw/bin/../lib/gcc/mingw32/4.5.2/../../../libuser32.a(daois00293.o)
 .data          0x0041a0b4        0x0 d:/mingw/bin/../lib/gcc/mingw32/4.5.2/../../../libuser32.a(daois00394.o)
 .data          0x0041a0b4        0x0 d:/mingw/bin/../lib/gcc/mingw32/4.5.2/../../../libuser32.a(daois00384.o)
 .data          0x0041a0b4        0x0 d:/mingw/bin/../lib/gcc/mingw32/4.5.2/../../../libuser32.a(daois00608.o)
 .data          0x0041a0b4        0x0 d:/mingw/bin/../lib/gcc/mingw32/4.5.2/../../../libuser32.a(daois00149.o)
 .data          0x0041a0b4        0x0 d:/mingw/bin/../lib/gcc/mingw32/4.5.2/../../../libuser32.a(daois00143.o)
 .data          0x0041a0b4        0x0 d:/mingw/bin/../lib/gcc/mingw32/4.5.2/../../../libuser32.a(daois00405.o)
 .data          0x0041a0b4        0x0 d:/mingw/bin/../lib/gcc/mingw32/4.5.2/../../../libuser32.a(daois00479.o)
 .data          0x0041a0b4        0x0 d:/mingw/bin/../lib/gcc/mingw32/4.5.2/../../../libuser32.a(daois00210.o)
 .data          0x0041a0b4        0x0 d:/mingw/bin/../lib/gcc/mingw32/4.5.2/../../../libuser32.a(daois00437.o)
 .data          0x0041a0b4        0x0 d:/mingw/bin/../lib/gcc/mingw32/4.5.2/../../../libuser32.a(daoih.o)
 .data          0x0041a0b4        0x0 d:/mingw/bin/../lib/gcc/mingw32/4.5.2/../../../libuser32.a(daoit.o)
 .data          0x0041a0b4        0x0 d:/mingw/bin/../lib/gcc/mingw32/4.5.2/../../../libmingw32.a(tlssup.o)
 .data          0x0041a0b4        0x4 d:/mingw/bin/../lib/gcc/mingw32/4.5.2/../../../libmingw32.a(CRTglob.o)
                0x0041a0b4                _CRT_glob
 .data          0x0041a0b8        0x0 d:/mingw/bin/../lib/gcc/mingw32/4.5.2/../../../libmingw32.a(CRTfmode.o)
 .data          0x0041a0b8        0x4 d:/mingw/bin/../lib/gcc/mingw32/4.5.2/../../../libmingw32.a(txtmode.o)
                0x0041a0b8                _fmode
 .data          0x0041a0bc        0x0 d:/mingw/bin/../lib/gcc/mingw32/4.5.2/../../../libmingw32.a(cpu_features.o)
 .data          0x0041a0bc        0x0 d:/mingw/bin/../lib/gcc/mingw32/4.5.2/../../../libmingw32.a(pseudo-reloc.o)
 .data          0x0041a0bc        0x4 d:/mingw/bin/../lib/gcc/mingw32/4.5.2/../../../libmingw32.a(gccmain.o)
 .data          0x0041a0c0        0x0 d:/mingw/bin/../lib/gcc/mingw32/4.5.2/../../../libmingw32.a(main.o)
 .data          0x0041a0c0        0x0 d:/mingw/bin/../lib/gcc/mingw32/4.5.2/../../../libmingw32.a(CRT_fp10.o)
 .data          0x0041a0c0        0x0 d:/mingw/bin/../lib/gcc/mingw32/4.5.2/../../../libmingw32.a(crtst.o)
 .data          0x0041a0c0        0x0 d:/mingw/bin/../lib/gcc/mingw32/4.5.2/../../../libmingw32.a(tlsthrd.o)
 .data          0x0041a0c0        0x0 d:/mingw/bin/../lib/gcc/mingw32/4.5.2/../../../libmingw32.a(pseudo-reloc-list.o)
 .data          0x0041a0c0        0x0 d:/mingw/bin/../lib/gcc/mingw32/4.5.2/libgcc.a(_umoddi3.o)
 .data          0x0041a0c0        0x0 d:/mingw/bin/../lib/gcc/mingw32/4.5.2/libgcc.a(_udivdi3.o)
 .data          0x0041a0c0        0x0 d:/mingw/bin/../lib/gcc/mingw32/4.5.2/libgcc.a(_chkstk.o)
 .data          0x0041a0c0        0x0 d:/mingw/bin/../lib/gcc/mingw32/4.5.2/libgcc.a(_ctors.o)
 .data          0x0041a0c0        0x0 d:/mingw/bin/../lib/gcc/mingw32/4.5.2/../../../libmsvcrt.a(duyms00590.o)
 .data          0x0041a0c0        0x0 d:/mingw/bin/../lib/gcc/mingw32/4.5.2/../../../libmsvcrt.a(duyms00383.o)
 .data          0x0041a0c0        0x0 d:/mingw/bin/../lib/gcc/mingw32/4.5.2/../../../libmsvcrt.a(duyms00266.o)
 .data          0x0041a0c0        0x0 d:/mingw/bin/../lib/gcc/mingw32/4.5.2/../../../libmsvcrt.a(duyms00099.o)
 .data          0x0041a0c0        0x0 d:/mingw/bin/../lib/gcc/mingw32/4.5.2/../../../libmsvcrt.a(duyms00055.o)
 .data          0x0041a0c0        0x0 d:/mingw/bin/../lib/gcc/mingw32/4.5.2/../../../libmsvcrt.a(duyms00079.o)
 .data          0x0041a0c0        0x0 d:/mingw/bin/../lib/gcc/mingw32/4.5.2/../../../libmsvcrt.a(duyms00077.o)
 .data          0x0041a0c0        0x0 d:/mingw/bin/../lib/gcc/mingw32/4.5.2/../../../libmsvcrt.a(duyms00147.o)
 .data          0x0041a0c0        0x0 d:/mingw/bin/../lib/gcc/mingw32/4.5.2/../../../libmsvcrt.a(duyms00426.o)
 .data          0x0041a0c0        0x0 d:/mingw/bin/../lib/gcc/mingw32/4.5.2/../../../libmsvcrt.a(duyms00706.o)
 .data          0x0041a0c0        0x0 d:/mingw/bin/../lib/gcc/mingw32/4.5.2/../../../libmsvcrt.a(duyms00065.o)
 .data          0x0041a0c0        0x0 d:/mingw/bin/../lib/gcc/mingw32/4.5.2/../../../libmsvcrt.a(duyms00392.o)
 .data          0x0041a0c0        0x0 d:/mingw/bin/../lib/gcc/mingw32/4.5.2/../../../libmsvcrt.a(duyms00732.o)
 .data          0x0041a0c0        0x0 d:/mingw/bin/../lib/gcc/mingw32/4.5.2/../../../libmsvcrt.a(duyms00268.o)
 .data          0x0041a0c0        0x0 d:/mingw/bin/../lib/gcc/mingw32/4.5.2/../../../libmsvcrt.a(duyms00731.o)
 .data          0x0041a0c0        0x0 d:/mingw/bin/../lib/gcc/mingw32/4.5.2/../../../libmsvcrt.a(duyms00137.o)
 .data          0x0041a0c0        0x0 d:/mingw/bin/../lib/gcc/mingw32/4.5.2/../../../libmsvcrt.a(duyms00676.o)
 .data          0x0041a0c0        0x0 d:/mingw/bin/../lib/gcc/mingw32/4.5.2/../../../libmsvcrt.a(duyms00717.o)
 .data          0x0041a0c0        0x0 d:/mingw/bin/../lib/gcc/mingw32/4.5.2/../../../libmsvcrt.a(duyms00698.o)
 .data          0x0041a0c0        0x0 d:/mingw/bin/../lib/gcc/mingw32/4.5.2/../../../libmsvcrt.a(duyms00490.o)
 .data          0x0041a0c0        0x0 d:/mingw/bin/../lib/gcc/mingw32/4.5.2/../../../libmsvcrt.a(duyms00625.o)
 .data          0x0041a0c0        0x0 d:/mingw/bin/../lib/gcc/mingw32/4.5.2/../../../libmsvcrt.a(duyms00613.o)
 .data          0x0041a0c0        0x0 d:/mingw/bin/../lib/gcc/mingw32/4.5.2/../../../libmsvcrt.a(duyms00583.o)
 .data          0x0041a0c0        0x0 d:/mingw/bin/../lib/gcc/mingw32/4.5.2/../../../libmsvcrt.a(duyms00683.o)
 .data          0x0041a0c0        0x0 d:/mingw/bin/../lib/gcc/mingw32/4.5.2/../../../libmsvcrt.a(duyms00709.o)
 .data          0x0041a0c0        0x0 d:/mingw/bin/../lib/gcc/mingw32/4.5.2/../../../libmsvcrt.a(duyms00611.o)
 .data          0x0041a0c0        0x0 d:/mingw/bin/../lib/gcc/mingw32/4.5.2/../../../libmsvcrt.a(duyms00746.o)
 .data          0x0041a0c0        0x0 d:/mingw/bin/../lib/gcc/mingw32/4.5.2/../../../libmsvcrt.a(duyms00624.o)
 .data          0x0041a0c0        0x0 d:/mingw/bin/../lib/gcc/mingw32/4.5.2/../../../libmsvcrt.a(duyms00607.o)
 .data          0x0041a0c0        0x0 d:/mingw/bin/../lib/gcc/mingw32/4.5.2/../../../libmsvcrt.a(duyms00618.o)
 .data          0x0041a0c0        0x0 d:/mingw/bin/../lib/gcc/mingw32/4.5.2/../../../libmsvcrt.a(duyms00715.o)
 .data          0x0041a0c0        0x0 d:/mingw/bin/../lib/gcc/mingw32/4.5.2/../../../libmsvcrt.a(duyms00592.o)
 .data          0x0041a0c0        0x0 d:/mingw/bin/../lib/gcc/mingw32/4.5.2/../../../libmsvcrt.a(duyms00633.o)
 .data          0x0041a0c0        0x0 d:/mingw/bin/../lib/gcc/mingw32/4.5.2/../../../libmsvcrt.a(duyms00620.o)
 .data          0x0041a0c0        0x0 d:/mingw/bin/../lib/gcc/mingw32/4.5.2/../../../libmsvcrt.a(duyms00619.o)
 .data          0x0041a0c0        0x0 d:/mingw/bin/../lib/gcc/mingw32/4.5.2/../../../libmsvcrt.a(duyms00724.o)
 .data          0x0041a0c0        0x0 d:/mingw/bin/../lib/gcc/mingw32/4.5.2/../../../libmsvcrt.a(duyms00726.o)
 .data          0x0041a0c0        0x0 d:/mingw/bin/../lib/gcc/mingw32/4.5.2/../../../libmsvcrt.a(duyms00718.o)
 .data          0x0041a0c0        0x0 d:/mingw/bin/../lib/gcc/mingw32/4.5.2/../../../libmsvcrt.a(duyms00637.o)
 .data          0x0041a0c0        0x0 d:/mingw/bin/../lib/gcc/mingw32/4.5.2/../../../libmsvcrt.a(duyms00714.o)
 .data          0x0041a0c0        0x0 d:/mingw/bin/../lib/gcc/mingw32/4.5.2/../../../libmsvcrt.a(duyms00621.o)
 .data          0x0041a0c0        0x0 d:/mingw/bin/../lib/gcc/mingw32/4.5.2/../../../libmsvcrt.a(duyms00610.o)
 .data          0x0041a0c0        0x0 d:/mingw/bin/../lib/gcc/mingw32/4.5.2/../../../libmsvcrt.a(duyms00681.o)
 .data          0x0041a0c0        0x0 d:/mingw/bin/../lib/gcc/mingw32/4.5.2/../../../libmsvcrt.a(duyms00713.o)
 .data          0x0041a0c0        0x0 d:/mingw/bin/../lib/gcc/mingw32/4.5.2/../../../libmsvcrt.a(duyms00604.o)
 .data          0x0041a0c0        0x0 d:/mingw/bin/../lib/gcc/mingw32/4.5.2/../../../libmsvcrt.a(duyms00538.o)
 .data          0x0041a0c0        0x0 d:/mingw/bin/../lib/gcc/mingw32/4.5.2/../../../libmsvcrt.a(duyms00748.o)
 .data          0x0041a0c0        0x0 d:/mingw/bin/../lib/gcc/mingw32/4.5.2/../../../libmsvcrt.a(duyms00682.o)
 .data          0x0041a0c0        0x0 d:/mingw/bin/../lib/gcc/mingw32/4.5.2/../../../libmsvcrt.a(duyms00595.o)
 .data          0x0041a0c0        0x0 d:/mingw/bin/../lib/gcc/mingw32/4.5.2/../../../libmsvcrt.a(duymh.o)
 .data          0x0041a0c0        0x0 d:/mingw/bin/../lib/gcc/mingw32/4.5.2/../../../libmsvcrt.a(duymt.o)
 .data          0x0041a0c0        0x0 d:/mingw/bin/../lib/gcc/mingw32/4.5.2/../../../libkernel32.a(dchds01140.o)
 .data          0x0041a0c0        0x0 d:/mingw/bin/../lib/gcc/mingw32/4.5.2/../../../libkernel32.a(dchds00279.o)
 .data          0x0041a0c0        0x0 d:/mingw/bin/../lib/gcc/mingw32/4.5.2/../../../libkernel32.a(dchds00529.o)
 .data          0x0041a0c0        0x0 d:/mingw/bin/../lib/gcc/mingw32/4.5.2/../../../libkernel32.a(dchds00577.o)
 .data          0x0041a0c0        0x0 d:/mingw/bin/../lib/gcc/mingw32/4.5.2/../../../libkernel32.a(dchds00527.o)
 .data          0x0041a0c0        0x0 d:/mingw/bin/../lib/gcc/mingw32/4.5.2/../../../libkernel32.a(dchds00671.o)
 .data          0x0041a0c0        0x0 d:/mingw/bin/../lib/gcc/mingw32/4.5.2/../../../libkernel32.a(dchds00817.o)
 .data          0x0041a0c0        0x0 d:/mingw/bin/../lib/gcc/mingw32/4.5.2/../../../libkernel32.a(dchds00619.o)
 .data          0x0041a0c0        0x0 d:/mingw/bin/../lib/gcc/mingw32/4.5.2/../../../libkernel32.a(dchds01267.o)
 .data          0x0041a0c0        0x0 d:/mingw/bin/../lib/gcc/mingw32/4.5.2/../../../libkernel32.a(dchds00016.o)
 .data          0x0041a0c0        0x0 d:/mingw/bin/../lib/gcc/mingw32/4.5.2/../../../libkernel32.a(dchds00608.o)
 .data          0x0041a0c0        0x0 d:/mingw/bin/../lib/gcc/mingw32/4.5.2/../../../libkernel32.a(dchds00877.o)
 .data          0x0041a0c0        0x0 d:/mingw/bin/../lib/gcc/mingw32/4.5.2/../../../libkernel32.a(dchds00829.o)
 .data          0x0041a0c0        0x0 d:/mingw/bin/../lib/gcc/mingw32/4.5.2/../../../libkernel32.a(dchds00844.o)
 .data          0x0041a0c0        0x0 d:/mingw/bin/../lib/gcc/mingw32/4.5.2/../../../libkernel32.a(dchds01188.o)
 .data          0x0041a0c0        0x0 d:/mingw/bin/../lib/gcc/mingw32/4.5.2/../../../libkernel32.a(dchds00082.o)
 .data          0x0041a0c0        0x0 d:/mingw/bin/../lib/gcc/mingw32/4.5.2/../../../libkernel32.a(dchds00510.o)
 .data          0x0041a0c0        0x0 d:/mingw/bin/../lib/gcc/mingw32/4.5.2/../../../libkernel32.a(dchds00447.o)
 .data          0x0041a0c0        0x0 d:/mingw/bin/../lib/gcc/mingw32/4.5.2/../../../libkernel32.a(dchds00885.o)
 .data          0x0041a0c0        0x0 d:/mingw/bin/../lib/gcc/mingw32/4.5.2/../../../libkernel32.a(dchds00825.o)
 .data          0x0041a0c0        0x0 d:/mingw/bin/../lib/gcc/mingw32/4.5.2/../../../libkernel32.a(dchds00451.o)
 .data          0x0041a0c0        0x0 d:/mingw/bin/../lib/gcc/mingw32/4.5.2/../../../libkernel32.a(dchds00136.o)
 .data          0x0041a0c0        0x0 d:/mingw/bin/../lib/gcc/mingw32/4.5.2/../../../libkernel32.a(dchds00444.o)
 .data          0x0041a0c0        0x0 d:/mingw/bin/../lib/gcc/mingw32/4.5.2/../../../libkernel32.a(dchds01052.o)
 .data          0x0041a0c0        0x0 d:/mingw/bin/../lib/gcc/mingw32/4.5.2/../../../libkernel32.a(dchds00352.o)
 .data          0x0041a0c0        0x0 d:/mingw/bin/../lib/gcc/mingw32/4.5.2/../../../libkernel32.a(dchds01215.o)
 .data          0x0041a0c0        0x0 d:/mingw/bin/../lib/gcc/mingw32/4.5.2/../../../libkernel32.a(dchds01213.o)
 .data          0x0041a0c0        0x0 d:/mingw/bin/../lib/gcc/mingw32/4.5.2/../../../libkernel32.a(dchds00388.o)
 .data          0x0041a0c0        0x0 d:/mingw/bin/../lib/gcc/mingw32/4.5.2/../../../libkernel32.a(dchds00606.o)
 .data          0x0041a0c0        0x0 d:/mingw/bin/../lib/gcc/mingw32/4.5.2/../../../libkernel32.a(dchds01173.o)
 .data          0x0041a0c0        0x0 d:/mingw/bin/../lib/gcc/mingw32/4.5.2/../../../libkernel32.a(dchds00207.o)
 .data          0x0041a0c0        0x0 d:/mingw/bin/../lib/gcc/mingw32/4.5.2/../../../libkernel32.a(dchds00734.o)
 .data          0x0041a0c0        0x0 d:/mingw/bin/../lib/gcc/mingw32/4.5.2/../../../libkernel32.a(dchds00236.o)
 .data          0x0041a0c0        0x0 d:/mingw/bin/../lib/gcc/mingw32/4.5.2/../../../libkernel32.a(dchds00814.o)
 .data          0x0041a0c0        0x0 d:/mingw/bin/../lib/gcc/mingw32/4.5.2/../../../libkernel32.a(dchdh.o)
 .data          0x0041a0c0        0x0 d:/mingw/bin/../lib/gcc/mingw32/4.5.2/../../../libkernel32.a(dchdt.o)
 .data          0x0041a0c0        0x0 d:/mingw/bin/../lib/gcc/mingw32/4.5.2/crtend.o
 *(.data2)
 *(SORT(.data$*))
 *(.jcr)
 .jcr           0x0041a0c0        0x0 d:/mingw/bin/../lib/gcc/mingw32/4.5.2/crtbegin.o
 .jcr           0x0041a0c0        0x4 d:/mingw/bin/../lib/gcc/mingw32/4.5.2/crtend.o
                0x0041a0c4                __data_end__ = .
 *(.data_cygwin_nocopy)

.rdata          0x0041b000     0x4c00
 *(.rdata)
 .rdata         0x0041b000       0x64 d:/mingw/bin/../lib/gcc/mingw32/4.5.2/crtbegin.o
 *fill*         0x0041b064       0x1c 00
 .rdata         0x0041b080      0x1e0 misc.o
 .rdata         0x0041b260     0x2520 sshaes.o
                0x0041b2ac                ssh2_aes
 .rdata         0x0041d780       0x44 sshbn.o
 *fill*         0x0041d7c4       0x1c 00
 .rdata         0x0041d7e0      0xc20 sshdes.o
                0x0041d7fc                ssh2_3des
                0x0041d804                ssh2_des
                0x0041d824                ssh_3des
                0x0041d850                ssh_des
 .rdata         0x0041e400       0xe0 sshdss.o
                0x0041e480                ssh_dss
 .rdata         0x0041e4e0       0x60 sshmd5.o
                0x0041e500                ssh_hmac_md5
 .rdata         0x0041e540      0x324 sshpubk.o
 *fill*         0x0041e864       0x1c 00
 .rdata         0x0041e880      0x1c0 sshrsa.o
                0x0041e960                ssh_rsa
                0x0041e998                ssh_rsa_kex
 .rdata         0x0041ea40      0x120 sshsh256.o
                0x0041ea48                ssh_sha256
 .rdata         0x0041eb60      0x2c0 sshsh512.o
 .rdata         0x0041ee20      0x1a0 sshsha.o
                0x0041ee28                ssh_sha1
                0x0041ee60                ssh_hmac_sha1
                0x0041eec0                ssh_hmac_sha1_96
                0x0041ef20                ssh_hmac_sha1_buggy
                0x0041ef80                ssh_hmac_sha1_96_buggy
 .rdata         0x0041efc0       0x40 tree234.o
 .rdata         0x0041f000       0x28 winhelp.o
 .rdata         0x0041f028       0x34 winmisc.o
 *fill*         0x0041f05c        0x4 00
 .rdata         0x0041f060      0x5c0 winpgnt.o
 .rdata         0x0041f620       0x98 winpgntc.o
 .rdata         0x0041f6b8      0x260 winutils.o
 .rdata         0x0041f918       0x40 d:/mingw/bin/../lib/gcc/mingw32/4.5.2/../../../libmingw32.a(tlssup.o)
                0x0041f954                __dyn_tls_init_callback
 .rdata         0x0041f958       0xac d:/mingw/bin/../lib/gcc/mingw32/4.5.2/../../../libmingw32.a(pseudo-reloc.o)
 *(SORT(.rdata$*))
                0x0041fa04                __rt_psrelocs_start = .
 *(.rdata_runtime_pseudo_reloc)
                0x0041fa04                __rt_psrelocs_end = .
                0x00000000                __rt_psrelocs_size = (__rt_psrelocs_end - __rt_psrelocs_start)
                0x0041fa04                ___RUNTIME_PSEUDO_RELOC_LIST_END__ = .
                0x0041fa04                __RUNTIME_PSEUDO_RELOC_LIST_END__ = .
                0x0041fa04                ___RUNTIME_PSEUDO_RELOC_LIST__ = (. - __rt_psrelocs_size)
                0x0041fa04                __RUNTIME_PSEUDO_RELOC_LIST__ = (. - __rt_psrelocs_size)

.eh_frame       0x00420000      0x200
 *(.eh_frame*)
 .eh_frame      0x00420000        0x0 d:/mingw/bin/../lib/gcc/mingw32/4.5.2/crtbegin.o
 .eh_frame      0x00420000       0x6c d:/mingw/bin/../lib/gcc/mingw32/4.5.2/libgcc.a(_umoddi3.o)
 .eh_frame      0x0042006c       0x6c d:/mingw/bin/../lib/gcc/mingw32/4.5.2/libgcc.a(_udivdi3.o)
 .eh_frame      0x004200d8        0x4 d:/mingw/bin/../lib/gcc/mingw32/4.5.2/crtend.o

.pdata
 *(.pdata)

.bss            0x00421000      0x250
                0x00421000                __bss_start__ = .
 *(.bss)
 .bss           0x00421000        0x8 d:/mingw/bin/../lib/gcc/mingw32/4.5.2/../../../crt2.o
                0x00421000                _argc
                0x00421004                _argv
 .bss           0x00421008       0x18 d:/mingw/bin/../lib/gcc/mingw32/4.5.2/crtbegin.o
 .bss           0x00421020        0x0 misc.o
 .bss           0x00421020        0x0 sshaes.o
 .bss           0x00421020        0x4 sshbn.o
                0x00421020                bnZero
 .bss           0x00421024        0x0 sshdes.o
 .bss           0x00421024        0x0 sshdss.o
 .bss           0x00421024        0x0 sshmd5.o
 .bss           0x00421024        0xc sshpubk.o
                0x00421024                ssh2_wrong_passphrase
 .bss           0x00421030        0x0 sshrsa.o
 .bss           0x00421030        0x0 sshsh256.o
 .bss           0x00421030        0x0 sshsh512.o
 .bss           0x00421030        0x0 sshsha.o
 .bss           0x00421030        0x0 tree234.o
 .bss           0x00421030        0x0 version.o
 .bss           0x00421030        0xc winhelp.o
 .bss           0x0042103c       0x14 winmisc.o
 .bss           0x00421050       0x40 winpgnt.o
 .bss           0x00421090       0x18 winpgntc.o
                0x00421090                advapi_initialised
 .bss           0x004210a8        0x0 winutils.o
 .bss           0x004210a8        0x0 d:/mingw/bin/../lib/gcc/mingw32/4.5.2/../../../libadvapi32.a(dgxgs00245.o)
 .bss           0x004210a8        0x0 d:/mingw/bin/../lib/gcc/mingw32/4.5.2/../../../libadvapi32.a(dgxgs00172.o)
 .bss           0x004210a8        0x0 d:/mingw/bin/../lib/gcc/mingw32/4.5.2/../../../libadvapi32.a(dgxgs00412.o)
 .bss           0x004210a8        0x0 d:/mingw/bin/../lib/gcc/mingw32/4.5.2/../../../libadvapi32.a(dgxgs00400.o)
 .bss           0x004210a8        0x0 d:/mingw/bin/../lib/gcc/mingw32/4.5.2/../../../libadvapi32.a(dgxgs00386.o)
 .bss           0x004210a8        0x0 d:/mingw/bin/../lib/gcc/mingw32/4.5.2/../../../libadvapi32.a(dgxgs00196.o)
 .bss           0x004210a8        0x0 d:/mingw/bin/../lib/gcc/mingw32/4.5.2/../../../libadvapi32.a(dgxgs00083.o)
 .bss           0x004210a8        0x0 d:/mingw/bin/../lib/gcc/mingw32/4.5.2/../../../libadvapi32.a(dgxgh.o)
 .bss           0x004210a8        0x0 d:/mingw/bin/../lib/gcc/mingw32/4.5.2/../../../libadvapi32.a(dgxgt.o)
 .bss           0x004210a8        0x0 d:/mingw/bin/../lib/gcc/mingw32/4.5.2/../../../libcomdlg32.a(demds00011.o)
 .bss           0x004210a8        0x0 d:/mingw/bin/../lib/gcc/mingw32/4.5.2/../../../libcomdlg32.a(demds00009.o)
 .bss           0x004210a8        0x0 d:/mingw/bin/../lib/gcc/mingw32/4.5.2/../../../libcomdlg32.a(demdh.o)
 .bss           0x004210a8        0x0 d:/mingw/bin/../lib/gcc/mingw32/4.5.2/../../../libcomdlg32.a(demdt.o)
 .bss           0x004210a8        0x0 d:/mingw/bin/../lib/gcc/mingw32/4.5.2/../../../libgdi32.a(dkfhs00201.o)
 .bss           0x004210a8        0x0 d:/mingw/bin/../lib/gcc/mingw32/4.5.2/../../../libgdi32.a(dkfhh.o)
 .bss           0x004210a8        0x0 d:/mingw/bin/../lib/gcc/mingw32/4.5.2/../../../libgdi32.a(dkfht.o)
 .bss           0x004210a8        0x0 d:/mingw/bin/../lib/gcc/mingw32/4.5.2/../../../libshell32.a(dukis00151.o)
 .bss           0x004210a8        0x0 d:/mingw/bin/../lib/gcc/mingw32/4.5.2/../../../libshell32.a(dukis00144.o)
 .bss           0x004210a8        0x0 d:/mingw/bin/../lib/gcc/mingw32/4.5.2/../../../libshell32.a(dukih.o)
 .bss           0x004210a8        0x0 d:/mingw/bin/../lib/gcc/mingw32/4.5.2/../../../libshell32.a(dukit.o)
 .bss           0x004210a8        0x0 d:/mingw/bin/../lib/gcc/mingw32/4.5.2/../../../libuser32.a(daois00632.o)
 .bss           0x004210a8        0x0 d:/mingw/bin/../lib/gcc/mingw32/4.5.2/../../../libuser32.a(daois00434.o)
 .bss           0x004210a8        0x0 d:/mingw/bin/../lib/gcc/mingw32/4.5.2/../../../libuser32.a(daois00147.o)
 .bss           0x004210a8        0x0 d:/mingw/bin/../lib/gcc/mingw32/4.5.2/../../../libuser32.a(daois00182.o)
 .bss           0x004210a8        0x0 d:/mingw/bin/../lib/gcc/mingw32/4.5.2/../../../libuser32.a(daois00250.o)
 .bss           0x004210a8        0x0 d:/mingw/bin/../lib/gcc/mingw32/4.5.2/../../../libuser32.a(daois00348.o)
 .bss           0x004210a8        0x0 d:/mingw/bin/../lib/gcc/mingw32/4.5.2/../../../libuser32.a(daois00534.o)
 .bss           0x004210a8        0x0 d:/mingw/bin/../lib/gcc/mingw32/4.5.2/../../../libuser32.a(daois00572.o)
 .bss           0x004210a8        0x0 d:/mingw/bin/../lib/gcc/mingw32/4.5.2/../../../libuser32.a(daois00530.o)
 .bss           0x004210a8        0x0 d:/mingw/bin/../lib/gcc/mingw32/4.5.2/../../../libuser32.a(daois00445.o)
 .bss           0x004210a8        0x0 d:/mingw/bin/../lib/gcc/mingw32/4.5.2/../../../libuser32.a(daois00255.o)
 .bss           0x004210a8        0x0 d:/mingw/bin/../lib/gcc/mingw32/4.5.2/../../../libuser32.a(daois00433.o)
 .bss           0x004210a8        0x0 d:/mingw/bin/../lib/gcc/mingw32/4.5.2/../../../libuser32.a(daois00409.o)
 .bss           0x004210a8        0x0 d:/mingw/bin/../lib/gcc/mingw32/4.5.2/../../../libuser32.a(daois00142.o)
 .bss           0x004210a8        0x0 d:/mingw/bin/../lib/gcc/mingw32/4.5.2/../../../libuser32.a(daois00505.o)
 .bss           0x004210a8        0x0 d:/mingw/bin/../lib/gcc/mingw32/4.5.2/../../../libuser32.a(daois00287.o)
 .bss           0x004210a8        0x0 d:/mingw/bin/../lib/gcc/mingw32/4.5.2/../../../libuser32.a(daois00134.o)
 .bss           0x004210a8        0x0 d:/mingw/bin/../lib/gcc/mingw32/4.5.2/../../../libuser32.a(daois00491.o)
 .bss           0x004210a8        0x0 d:/mingw/bin/../lib/gcc/mingw32/4.5.2/../../../libuser32.a(daois00283.o)
 .bss           0x004210a8        0x0 d:/mingw/bin/../lib/gcc/mingw32/4.5.2/../../../libuser32.a(daois00466.o)
 .bss           0x004210a8        0x0 d:/mingw/bin/../lib/gcc/mingw32/4.5.2/../../../libuser32.a(daois00468.o)
 .bss           0x004210a8        0x0 d:/mingw/bin/../lib/gcc/mingw32/4.5.2/../../../libuser32.a(daois00602.o)
 .bss           0x004210a8        0x0 d:/mingw/bin/../lib/gcc/mingw32/4.5.2/../../../libuser32.a(daois00508.o)
 .bss           0x004210a8        0x0 d:/mingw/bin/../lib/gcc/mingw32/4.5.2/../../../libuser32.a(daois00080.o)
 .bss           0x004210a8        0x0 d:/mingw/bin/../lib/gcc/mingw32/4.5.2/../../../libuser32.a(daois00585.o)
 .bss           0x004210a8        0x0 d:/mingw/bin/../lib/gcc/mingw32/4.5.2/../../../libuser32.a(daois00247.o)
 .bss           0x004210a8        0x0 d:/mingw/bin/../lib/gcc/mingw32/4.5.2/../../../libuser32.a(daois00285.o)
 .bss           0x004210a8        0x0 d:/mingw/bin/../lib/gcc/mingw32/4.5.2/../../../libuser32.a(daois00495.o)
 .bss           0x004210a8        0x0 d:/mingw/bin/../lib/gcc/mingw32/4.5.2/../../../libuser32.a(daois00365.o)
 .bss           0x004210a8        0x0 d:/mingw/bin/../lib/gcc/mingw32/4.5.2/../../../libuser32.a(daois00144.o)
 .bss           0x004210a8        0x0 d:/mingw/bin/../lib/gcc/mingw32/4.5.2/../../../libuser32.a(daois00180.o)
 .bss           0x004210a8        0x0 d:/mingw/bin/../lib/gcc/mingw32/4.5.2/../../../libuser32.a(daois00516.o)
 .bss           0x004210a8        0x0 d:/mingw/bin/../lib/gcc/mingw32/4.5.2/../../../libuser32.a(daois00253.o)
 .bss           0x004210a8        0x0 d:/mingw/bin/../lib/gcc/mingw32/4.5.2/../../../libuser32.a(daois00342.o)
 .bss           0x004210a8        0x0 d:/mingw/bin/../lib/gcc/mingw32/4.5.2/../../../libuser32.a(daois00569.o)
 .bss           0x004210a8        0x0 d:/mingw/bin/../lib/gcc/mingw32/4.5.2/../../../libuser32.a(daois00090.o)
 .bss           0x004210a8        0x0 d:/mingw/bin/../lib/gcc/mingw32/4.5.2/../../../libuser32.a(daois00089.o)
 .bss           0x004210a8        0x0 d:/mingw/bin/../lib/gcc/mingw32/4.5.2/../../../libuser32.a(daois00088.o)
 .bss           0x004210a8        0x0 d:/mingw/bin/../lib/gcc/mingw32/4.5.2/../../../libuser32.a(daois00006.o)
 .bss           0x004210a8        0x0 d:/mingw/bin/../lib/gcc/mingw32/4.5.2/../../../libuser32.a(daois00540.o)
 .bss           0x004210a8        0x0 d:/mingw/bin/../lib/gcc/mingw32/4.5.2/../../../libuser32.a(daois00293.o)
 .bss           0x004210a8        0x0 d:/mingw/bin/../lib/gcc/mingw32/4.5.2/../../../libuser32.a(daois00394.o)
 .bss           0x004210a8        0x0 d:/mingw/bin/../lib/gcc/mingw32/4.5.2/../../../libuser32.a(daois00384.o)
 .bss           0x004210a8        0x0 d:/mingw/bin/../lib/gcc/mingw32/4.5.2/../../../libuser32.a(daois00608.o)
 .bss           0x004210a8        0x0 d:/mingw/bin/../lib/gcc/mingw32/4.5.2/../../../libuser32.a(daois00149.o)
 .bss           0x004210a8        0x0 d:/mingw/bin/../lib/gcc/mingw32/4.5.2/../../../libuser32.a(daois00143.o)
 .bss           0x004210a8        0x0 d:/mingw/bin/../lib/gcc/mingw32/4.5.2/../../../libuser32.a(daois00405.o)
 .bss           0x004210a8        0x0 d:/mingw/bin/../lib/gcc/mingw32/4.5.2/../../../libuser32.a(daois00479.o)
 .bss           0x004210a8        0x0 d:/mingw/bin/../lib/gcc/mingw32/4.5.2/../../../libuser32.a(daois00210.o)
 .bss           0x004210a8        0x0 d:/mingw/bin/../lib/gcc/mingw32/4.5.2/../../../libuser32.a(daois00437.o)
 .bss           0x004210a8        0x0 d:/mingw/bin/../lib/gcc/mingw32/4.5.2/../../../libuser32.a(daoih.o)
 .bss           0x004210a8        0x0 d:/mingw/bin/../lib/gcc/mingw32/4.5.2/../../../libuser32.a(daoit.o)
 .bss           0x004210a8       0x20 d:/mingw/bin/../lib/gcc/mingw32/4.5.2/../../../libmingw32.a(tlssup.o)
                0x004210a8                _tls_index
                0x004210ac                mingw_initltsdrot_force
                0x004210b0                mingw_initltsdyn_force
                0x004210b4                mingw_initltssuo_force
 .bss           0x004210c8        0x0 d:/mingw/bin/../lib/gcc/mingw32/4.5.2/../../../libmingw32.a(CRTglob.o)
 .bss           0x004210c8        0x4 d:/mingw/bin/../lib/gcc/mingw32/4.5.2/../../../libmingw32.a(CRTfmode.o)
                0x004210c8                _CRT_fmode
 .bss           0x004210cc        0x0 d:/mingw/bin/../lib/gcc/mingw32/4.5.2/../../../libmingw32.a(txtmode.o)
 .bss           0x004210cc        0x4 d:/mingw/bin/../lib/gcc/mingw32/4.5.2/../../../libmingw32.a(cpu_features.o)
                0x004210cc                __cpu_features
 .bss           0x004210d0       0x10 d:/mingw/bin/../lib/gcc/mingw32/4.5.2/../../../libmingw32.a(pseudo-reloc.o)
 .bss           0x004210e0       0x10 d:/mingw/bin/../lib/gcc/mingw32/4.5.2/../../../libmingw32.a(gccmain.o)
 .bss           0x004210f0        0x0 d:/mingw/bin/../lib/gcc/mingw32/4.5.2/../../../libmingw32.a(main.o)
 .bss           0x004210f0        0x0 d:/mingw/bin/../lib/gcc/mingw32/4.5.2/../../../libmingw32.a(CRT_fp10.o)
 .bss           0x004210f0        0x4 d:/mingw/bin/../lib/gcc/mingw32/4.5.2/../../../libmingw32.a(crtst.o)
                0x004210f0                _CRT_MT
 *fill*         0x004210f4        0x4 00
 .bss           0x004210f8       0x40 d:/mingw/bin/../lib/gcc/mingw32/4.5.2/../../../libmingw32.a(tlsthrd.o)
 .bss           0x00421138        0x4 d:/mingw/bin/../lib/gcc/mingw32/4.5.2/../../../libmingw32.a(pseudo-reloc-list.o)
 .bss           0x0042113c        0x0 d:/mingw/bin/../lib/gcc/mingw32/4.5.2/libgcc.a(_umoddi3.o)
 .bss           0x0042113c        0x0 d:/mingw/bin/../lib/gcc/mingw32/4.5.2/libgcc.a(_udivdi3.o)
 .bss           0x0042113c        0x0 d:/mingw/bin/../lib/gcc/mingw32/4.5.2/libgcc.a(_chkstk.o)
 .bss           0x0042113c        0x0 d:/mingw/bin/../lib/gcc/mingw32/4.5.2/libgcc.a(_ctors.o)
 .bss           0x0042113c        0x0 d:/mingw/bin/../lib/gcc/mingw32/4.5.2/../../../libmsvcrt.a(duyms00590.o)
 .bss           0x0042113c        0x0 d:/mingw/bin/../lib/gcc/mingw32/4.5.2/../../../libmsvcrt.a(duyms00383.o)
 .bss           0x0042113c        0x0 d:/mingw/bin/../lib/gcc/mingw32/4.5.2/../../../libmsvcrt.a(duyms00266.o)
 .bss           0x0042113c        0x0 d:/mingw/bin/../lib/gcc/mingw32/4.5.2/../../../libmsvcrt.a(duyms00099.o)
 .bss           0x0042113c        0x0 d:/mingw/bin/../lib/gcc/mingw32/4.5.2/../../../libmsvcrt.a(duyms00055.o)
 .bss           0x0042113c        0x0 d:/mingw/bin/../lib/gcc/mingw32/4.5.2/../../../libmsvcrt.a(duyms00079.o)
 .bss           0x0042113c        0x0 d:/mingw/bin/../lib/gcc/mingw32/4.5.2/../../../libmsvcrt.a(duyms00077.o)
 .bss           0x0042113c        0x0 d:/mingw/bin/../lib/gcc/mingw32/4.5.2/../../../libmsvcrt.a(duyms00147.o)
 .bss           0x0042113c        0x0 d:/mingw/bin/../lib/gcc/mingw32/4.5.2/../../../libmsvcrt.a(duyms00426.o)
 .bss           0x0042113c        0x0 d:/mingw/bin/../lib/gcc/mingw32/4.5.2/../../../libmsvcrt.a(duyms00706.o)
 .bss           0x0042113c        0x0 d:/mingw/bin/../lib/gcc/mingw32/4.5.2/../../../libmsvcrt.a(duyms00065.o)
 .bss           0x0042113c        0x0 d:/mingw/bin/../lib/gcc/mingw32/4.5.2/../../../libmsvcrt.a(duyms00392.o)
 .bss           0x0042113c        0x0 d:/mingw/bin/../lib/gcc/mingw32/4.5.2/../../../libmsvcrt.a(duyms00732.o)
 .bss           0x0042113c        0x0 d:/mingw/bin/../lib/gcc/mingw32/4.5.2/../../../libmsvcrt.a(duyms00268.o)
 .bss           0x0042113c        0x0 d:/mingw/bin/../lib/gcc/mingw32/4.5.2/../../../libmsvcrt.a(duyms00731.o)
 .bss           0x0042113c        0x0 d:/mingw/bin/../lib/gcc/mingw32/4.5.2/../../../libmsvcrt.a(duyms00137.o)
 .bss           0x0042113c        0x0 d:/mingw/bin/../lib/gcc/mingw32/4.5.2/../../../libmsvcrt.a(duyms00676.o)
 .bss           0x0042113c        0x0 d:/mingw/bin/../lib/gcc/mingw32/4.5.2/../../../libmsvcrt.a(duyms00717.o)
 .bss           0x0042113c        0x0 d:/mingw/bin/../lib/gcc/mingw32/4.5.2/../../../libmsvcrt.a(duyms00698.o)
 .bss           0x0042113c        0x0 d:/mingw/bin/../lib/gcc/mingw32/4.5.2/../../../libmsvcrt.a(duyms00490.o)
 .bss           0x0042113c        0x0 d:/mingw/bin/../lib/gcc/mingw32/4.5.2/../../../libmsvcrt.a(duyms00625.o)
 .bss           0x0042113c        0x0 d:/mingw/bin/../lib/gcc/mingw32/4.5.2/../../../libmsvcrt.a(duyms00613.o)
 .bss           0x0042113c        0x0 d:/mingw/bin/../lib/gcc/mingw32/4.5.2/../../../libmsvcrt.a(duyms00583.o)
 .bss           0x0042113c        0x0 d:/mingw/bin/../lib/gcc/mingw32/4.5.2/../../../libmsvcrt.a(duyms00683.o)
 .bss           0x0042113c        0x0 d:/mingw/bin/../lib/gcc/mingw32/4.5.2/../../../libmsvcrt.a(duyms00709.o)
 .bss           0x0042113c        0x0 d:/mingw/bin/../lib/gcc/mingw32/4.5.2/../../../libmsvcrt.a(duyms00611.o)
 .bss           0x0042113c        0x0 d:/mingw/bin/../lib/gcc/mingw32/4.5.2/../../../libmsvcrt.a(duyms00746.o)
 .bss           0x0042113c        0x0 d:/mingw/bin/../lib/gcc/mingw32/4.5.2/../../../libmsvcrt.a(duyms00624.o)
 .bss           0x0042113c        0x0 d:/mingw/bin/../lib/gcc/mingw32/4.5.2/../../../libmsvcrt.a(duyms00607.o)
 .bss           0x0042113c        0x0 d:/mingw/bin/../lib/gcc/mingw32/4.5.2/../../../libmsvcrt.a(duyms00618.o)
 .bss           0x0042113c        0x0 d:/mingw/bin/../lib/gcc/mingw32/4.5.2/../../../libmsvcrt.a(duyms00715.o)
 .bss           0x0042113c        0x0 d:/mingw/bin/../lib/gcc/mingw32/4.5.2/../../../libmsvcrt.a(duyms00592.o)
 .bss           0x0042113c        0x0 d:/mingw/bin/../lib/gcc/mingw32/4.5.2/../../../libmsvcrt.a(duyms00633.o)
 .bss           0x0042113c        0x0 d:/mingw/bin/../lib/gcc/mingw32/4.5.2/../../../libmsvcrt.a(duyms00620.o)
 .bss           0x0042113c        0x0 d:/mingw/bin/../lib/gcc/mingw32/4.5.2/../../../libmsvcrt.a(duyms00619.o)
 .bss           0x0042113c        0x0 d:/mingw/bin/../lib/gcc/mingw32/4.5.2/../../../libmsvcrt.a(duyms00724.o)
 .bss           0x0042113c        0x0 d:/mingw/bin/../lib/gcc/mingw32/4.5.2/../../../libmsvcrt.a(duyms00726.o)
 .bss           0x0042113c        0x0 d:/mingw/bin/../lib/gcc/mingw32/4.5.2/../../../libmsvcrt.a(duyms00718.o)
 .bss           0x0042113c        0x0 d:/mingw/bin/../lib/gcc/mingw32/4.5.2/../../../libmsvcrt.a(duyms00637.o)
 .bss           0x0042113c        0x0 d:/mingw/bin/../lib/gcc/mingw32/4.5.2/../../../libmsvcrt.a(duyms00714.o)
 .bss           0x0042113c        0x0 d:/mingw/bin/../lib/gcc/mingw32/4.5.2/../../../libmsvcrt.a(duyms00621.o)
 .bss           0x0042113c        0x0 d:/mingw/bin/../lib/gcc/mingw32/4.5.2/../../../libmsvcrt.a(duyms00610.o)
 .bss           0x0042113c        0x0 d:/mingw/bin/../lib/gcc/mingw32/4.5.2/../../../libmsvcrt.a(duyms00681.o)
 .bss           0x0042113c        0x0 d:/mingw/bin/../lib/gcc/mingw32/4.5.2/../../../libmsvcrt.a(duyms00713.o)
 .bss           0x0042113c        0x0 d:/mingw/bin/../lib/gcc/mingw32/4.5.2/../../../libmsvcrt.a(duyms00604.o)
 .bss           0x0042113c        0x0 d:/mingw/bin/../lib/gcc/mingw32/4.5.2/../../../libmsvcrt.a(duyms00538.o)
 .bss           0x0042113c        0x0 d:/mingw/bin/../lib/gcc/mingw32/4.5.2/../../../libmsvcrt.a(duyms00748.o)
 .bss           0x0042113c        0x0 d:/mingw/bin/../lib/gcc/mingw32/4.5.2/../../../libmsvcrt.a(duyms00682.o)
 .bss           0x0042113c        0x0 d:/mingw/bin/../lib/gcc/mingw32/4.5.2/../../../libmsvcrt.a(duyms00595.o)
 .bss           0x0042113c        0x0 d:/mingw/bin/../lib/gcc/mingw32/4.5.2/../../../libmsvcrt.a(duymh.o)
 .bss           0x0042113c        0x0 d:/mingw/bin/../lib/gcc/mingw32/4.5.2/../../../libmsvcrt.a(duymt.o)
 .bss           0x0042113c        0x0 d:/mingw/bin/../lib/gcc/mingw32/4.5.2/../../../libkernel32.a(dchds01140.o)
 .bss           0x0042113c        0x0 d:/mingw/bin/../lib/gcc/mingw32/4.5.2/../../../libkernel32.a(dchds00279.o)
 .bss           0x0042113c        0x0 d:/mingw/bin/../lib/gcc/mingw32/4.5.2/../../../libkernel32.a(dchds00529.o)
 .bss           0x0042113c        0x0 d:/mingw/bin/../lib/gcc/mingw32/4.5.2/../../../libkernel32.a(dchds00577.o)
 .bss           0x0042113c        0x0 d:/mingw/bin/../lib/gcc/mingw32/4.5.2/../../../libkernel32.a(dchds00527.o)
 .bss           0x0042113c        0x0 d:/mingw/bin/../lib/gcc/mingw32/4.5.2/../../../libkernel32.a(dchds00671.o)
 .bss           0x0042113c        0x0 d:/mingw/bin/../lib/gcc/mingw32/4.5.2/../../../libkernel32.a(dchds00817.o)
 .bss           0x0042113c        0x0 d:/mingw/bin/../lib/gcc/mingw32/4.5.2/../../../libkernel32.a(dchds00619.o)
 .bss           0x0042113c        0x0 d:/mingw/bin/../lib/gcc/mingw32/4.5.2/../../../libkernel32.a(dchds01267.o)
 .bss           0x0042113c        0x0 d:/mingw/bin/../lib/gcc/mingw32/4.5.2/../../../libkernel32.a(dchds00016.o)
 .bss           0x0042113c        0x0 d:/mingw/bin/../lib/gcc/mingw32/4.5.2/../../../libkernel32.a(dchds00608.o)
 .bss           0x0042113c        0x0 d:/mingw/bin/../lib/gcc/mingw32/4.5.2/../../../libkernel32.a(dchds00877.o)
 .bss           0x0042113c        0x0 d:/mingw/bin/../lib/gcc/mingw32/4.5.2/../../../libkernel32.a(dchds00829.o)
 .bss           0x0042113c        0x0 d:/mingw/bin/../lib/gcc/mingw32/4.5.2/../../../libkernel32.a(dchds00844.o)
 .bss           0x0042113c        0x0 d:/mingw/bin/../lib/gcc/mingw32/4.5.2/../../../libkernel32.a(dchds01188.o)
 .bss           0x0042113c        0x0 d:/mingw/bin/../lib/gcc/mingw32/4.5.2/../../../libkernel32.a(dchds00082.o)
 .bss           0x0042113c        0x0 d:/mingw/bin/../lib/gcc/mingw32/4.5.2/../../../libkernel32.a(dchds00510.o)
 .bss           0x0042113c        0x0 d:/mingw/bin/../lib/gcc/mingw32/4.5.2/../../../libkernel32.a(dchds00447.o)
 .bss           0x0042113c        0x0 d:/mingw/bin/../lib/gcc/mingw32/4.5.2/../../../libkernel32.a(dchds00885.o)
 .bss           0x0042113c        0x0 d:/mingw/bin/../lib/gcc/mingw32/4.5.2/../../../libkernel32.a(dchds00825.o)
 .bss           0x0042113c        0x0 d:/mingw/bin/../lib/gcc/mingw32/4.5.2/../../../libkernel32.a(dchds00451.o)
 .bss           0x0042113c        0x0 d:/mingw/bin/../lib/gcc/mingw32/4.5.2/../../../libkernel32.a(dchds00136.o)
 .bss           0x0042113c        0x0 d:/mingw/bin/../lib/gcc/mingw32/4.5.2/../../../libkernel32.a(dchds00444.o)
 .bss           0x0042113c        0x0 d:/mingw/bin/../lib/gcc/mingw32/4.5.2/../../../libkernel32.a(dchds01052.o)
 .bss           0x0042113c        0x0 d:/mingw/bin/../lib/gcc/mingw32/4.5.2/../../../libkernel32.a(dchds00352.o)
 .bss           0x0042113c        0x0 d:/mingw/bin/../lib/gcc/mingw32/4.5.2/../../../libkernel32.a(dchds01215.o)
 .bss           0x0042113c        0x0 d:/mingw/bin/../lib/gcc/mingw32/4.5.2/../../../libkernel32.a(dchds01213.o)
 .bss           0x0042113c        0x0 d:/mingw/bin/../lib/gcc/mingw32/4.5.2/../../../libkernel32.a(dchds00388.o)
 .bss           0x0042113c        0x0 d:/mingw/bin/../lib/gcc/mingw32/4.5.2/../../../libkernel32.a(dchds00606.o)
 .bss           0x0042113c        0x0 d:/mingw/bin/../lib/gcc/mingw32/4.5.2/../../../libkernel32.a(dchds01173.o)
 .bss           0x0042113c        0x0 d:/mingw/bin/../lib/gcc/mingw32/4.5.2/../../../libkernel32.a(dchds00207.o)
 .bss           0x0042113c        0x0 d:/mingw/bin/../lib/gcc/mingw32/4.5.2/../../../libkernel32.a(dchds00734.o)
 .bss           0x0042113c        0x0 d:/mingw/bin/../lib/gcc/mingw32/4.5.2/../../../libkernel32.a(dchds00236.o)
 .bss           0x0042113c        0x0 d:/mingw/bin/../lib/gcc/mingw32/4.5.2/../../../libkernel32.a(dchds00814.o)
 .bss           0x0042113c        0x0 d:/mingw/bin/../lib/gcc/mingw32/4.5.2/../../../libkernel32.a(dchdh.o)
 .bss           0x0042113c        0x0 d:/mingw/bin/../lib/gcc/mingw32/4.5.2/../../../libkernel32.a(dchdt.o)
 .bss           0x0042113c        0x0 d:/mingw/bin/../lib/gcc/mingw32/4.5.2/crtend.o
 *(COMMON)
 *fill*         0x0042113c        0x4 00
 COMMON         0x00421140       0x94 winmisc.o
                0x00421140                osVersion
 COMMON         0x004211d4       0x38 winpgnt.o
                0x004211d4                p_WSAEnumNetworkEvents
                0x004211d8                p_WSAAsyncSelect
                0x004211dc                loaded_session
                0x004211e0                term
                0x004211e4                p_select
                0x004211e8                default_port
                0x004211ec                hinst
                0x004211f0                logbox
                0x004211f4                p_WSAGetLastError
                0x004211f8                cmdline_session_name
                0x004211fc                hwnd
                0x00421200                logctx
                0x00421204                default_protocol
                0x00421208                p_WSAEventSelect
 COMMON         0x0042120c        0x4 winpgntc.o
                0x0042120c                p_GetSecurityInfo
 COMMON         0x00421210       0x30 d:/mingw/bin/../lib/gcc/mingw32/4.5.2/../../../libmingw32.a(tlssup.o)
                0x00421210                __mingw_gMTKeyDtor
                0x00421220                __mingw_gMTRemoveKeyDtor
                0x00421230                __mingw_usemthread_dll
 COMMON         0x00421240       0x10 d:/mingw/bin/../lib/gcc/mingw32/4.5.2/libgcc.a(_ctors.o)
                0x00421250                __bss_end__ = .

.edata
 *(.edata)

/DISCARD/
 *(.debug$S)
 *(.debug$T)
 *(.debug$F)
 *(.drectve)
 *(.note.GNU-stack)
 *(.gnu.lto_*)

.idata          0x00422000     0x1200
 SORT(*)(.idata$2)
 .idata$2       0x00422000       0x14 d:/mingw/bin/../lib/gcc/mingw32/4.5.2/../../../libadvapi32.a(dgxgh.o)
                0x00422000                _head_libadvapi32_a
 .idata$2       0x00422014       0x14 d:/mingw/bin/../lib/gcc/mingw32/4.5.2/../../../libcomdlg32.a(demdh.o)
                0x00422014                _head_libcomdlg32_a
 .idata$2       0x00422028       0x14 d:/mingw/bin/../lib/gcc/mingw32/4.5.2/../../../libgdi32.a(dkfhh.o)
                0x00422028                _head_libgdi32_a
 .idata$2       0x0042203c       0x14 d:/mingw/bin/../lib/gcc/mingw32/4.5.2/../../../libkernel32.a(dchdh.o)
                0x0042203c                _head_libkernel32_a
 .idata$2       0x00422050       0x14 d:/mingw/bin/../lib/gcc/mingw32/4.5.2/../../../libmsvcrt.a(duymh.o)
                0x00422050                _head_libmsvcrt_a
 .idata$2       0x00422064       0x14 d:/mingw/bin/../lib/gcc/mingw32/4.5.2/../../../libshell32.a(dukih.o)
                0x00422064                _head_libshell32_a
 .idata$2       0x00422078       0x14 d:/mingw/bin/../lib/gcc/mingw32/4.5.2/../../../libuser32.a(daoih.o)
                0x00422078                _head_libuser32_a
 SORT(*)(.idata$3)
                0x0042208c        0x4 LONG 0x0
                0x00422090        0x4 LONG 0x0
                0x00422094        0x4 LONG 0x0
                0x00422098        0x4 LONG 0x0
                0x0042209c        0x4 LONG 0x0
 SORT(*)(.idata$4)
 .idata$4       0x004220a0        0x0 d:/mingw/bin/../lib/gcc/mingw32/4.5.2/../../../libadvapi32.a(dgxgh.o)
 .idata$4       0x004220a0        0x4 d:/mingw/bin/../lib/gcc/mingw32/4.5.2/../../../libadvapi32.a(dgxgs00083.o)
 .idata$4       0x004220a4        0x4 d:/mingw/bin/../lib/gcc/mingw32/4.5.2/../../../libadvapi32.a(dgxgs00172.o)
 .idata$4       0x004220a8        0x4 d:/mingw/bin/../lib/gcc/mingw32/4.5.2/../../../libadvapi32.a(dgxgs00196.o)
 .idata$4       0x004220ac        0x4 d:/mingw/bin/../lib/gcc/mingw32/4.5.2/../../../libadvapi32.a(dgxgs00245.o)
 .idata$4       0x004220b0        0x4 d:/mingw/bin/../lib/gcc/mingw32/4.5.2/../../../libadvapi32.a(dgxgs00386.o)
 .idata$4       0x004220b4        0x4 d:/mingw/bin/../lib/gcc/mingw32/4.5.2/../../../libadvapi32.a(dgxgs00400.o)
 .idata$4       0x004220b8        0x4 d:/mingw/bin/../lib/gcc/mingw32/4.5.2/../../../libadvapi32.a(dgxgs00412.o)
 .idata$4       0x004220bc        0x4 d:/mingw/bin/../lib/gcc/mingw32/4.5.2/../../../libadvapi32.a(dgxgt.o)
 .idata$4       0x004220c0        0x0 d:/mingw/bin/../lib/gcc/mingw32/4.5.2/../../../libcomdlg32.a(demdh.o)
 .idata$4       0x004220c0        0x4 d:/mingw/bin/../lib/gcc/mingw32/4.5.2/../../../libcomdlg32.a(demds00009.o)
 .idata$4       0x004220c4        0x4 d:/mingw/bin/../lib/gcc/mingw32/4.5.2/../../../libcomdlg32.a(demds00011.o)
 .idata$4       0x004220c8        0x4 d:/mingw/bin/../lib/gcc/mingw32/4.5.2/../../../libcomdlg32.a(demdt.o)
 .idata$4       0x004220cc        0x0 d:/mingw/bin/../lib/gcc/mingw32/4.5.2/../../../libgdi32.a(dkfhh.o)
 .idata$4       0x004220cc        0x4 d:/mingw/bin/../lib/gcc/mingw32/4.5.2/../../../libgdi32.a(dkfhs00201.o)
 .idata$4       0x004220d0        0x4 d:/mingw/bin/../lib/gcc/mingw32/4.5.2/../../../libgdi32.a(dkfht.o)
 .idata$4       0x004220d4        0x0 d:/mingw/bin/../lib/gcc/mingw32/4.5.2/../../../libkernel32.a(dchdh.o)
 .idata$4       0x004220d4        0x4 d:/mingw/bin/../lib/gcc/mingw32/4.5.2/../../../libkernel32.a(dchds00016.o)
 .idata$4       0x004220d8        0x4 d:/mingw/bin/../lib/gcc/mingw32/4.5.2/../../../libkernel32.a(dchds00082.o)
 .idata$4       0x004220dc        0x4 d:/mingw/bin/../lib/gcc/mingw32/4.5.2/../../../libkernel32.a(dchds00136.o)
 .idata$4       0x004220e0        0x4 d:/mingw/bin/../lib/gcc/mingw32/4.5.2/../../../libkernel32.a(dchds00207.o)
 .idata$4       0x004220e4        0x4 d:/mingw/bin/../lib/gcc/mingw32/4.5.2/../../../libkernel32.a(dchds00236.o)
 .idata$4       0x004220e8        0x4 d:/mingw/bin/../lib/gcc/mingw32/4.5.2/../../../libkernel32.a(dchds00279.o)
 .idata$4       0x004220ec        0x4 d:/mingw/bin/../lib/gcc/mingw32/4.5.2/../../../libkernel32.a(dchds00352.o)
 .idata$4       0x004220f0        0x4 d:/mingw/bin/../lib/gcc/mingw32/4.5.2/../../../libkernel32.a(dchds00388.o)
 .idata$4       0x004220f4        0x4 d:/mingw/bin/../lib/gcc/mingw32/4.5.2/../../../libkernel32.a(dchds00444.o)
 .idata$4       0x004220f8        0x4 d:/mingw/bin/../lib/gcc/mingw32/4.5.2/../../../libkernel32.a(dchds00447.o)
 .idata$4       0x004220fc        0x4 d:/mingw/bin/../lib/gcc/mingw32/4.5.2/../../../libkernel32.a(dchds00451.o)
 .idata$4       0x00422100        0x4 d:/mingw/bin/../lib/gcc/mingw32/4.5.2/../../../libkernel32.a(dchds00510.o)
 .idata$4       0x00422104        0x4 d:/mingw/bin/../lib/gcc/mingw32/4.5.2/../../../libkernel32.a(dchds00527.o)
 .idata$4       0x00422108        0x4 d:/mingw/bin/../lib/gcc/mingw32/4.5.2/../../../libkernel32.a(dchds00529.o)
 .idata$4       0x0042210c        0x4 d:/mingw/bin/../lib/gcc/mingw32/4.5.2/../../../libkernel32.a(dchds00577.o)
 .idata$4       0x00422110        0x4 d:/mingw/bin/../lib/gcc/mingw32/4.5.2/../../../libkernel32.a(dchds00606.o)
 .idata$4       0x00422114        0x4 d:/mingw/bin/../lib/gcc/mingw32/4.5.2/../../../libkernel32.a(dchds00608.o)
 .idata$4       0x00422118        0x4 d:/mingw/bin/../lib/gcc/mingw32/4.5.2/../../../libkernel32.a(dchds00619.o)
 .idata$4       0x0042211c        0x4 d:/mingw/bin/../lib/gcc/mingw32/4.5.2/../../../libkernel32.a(dchds00671.o)
 .idata$4       0x00422120        0x4 d:/mingw/bin/../lib/gcc/mingw32/4.5.2/../../../libkernel32.a(dchds00734.o)
 .idata$4       0x00422124        0x4 d:/mingw/bin/../lib/gcc/mingw32/4.5.2/../../../libkernel32.a(dchds00814.o)
 .idata$4       0x00422128        0x4 d:/mingw/bin/../lib/gcc/mingw32/4.5.2/../../../libkernel32.a(dchds00817.o)
 .idata$4       0x0042212c        0x4 d:/mingw/bin/../lib/gcc/mingw32/4.5.2/../../../libkernel32.a(dchds00825.o)
 .idata$4       0x00422130        0x4 d:/mingw/bin/../lib/gcc/mingw32/4.5.2/../../../libkernel32.a(dchds00829.o)
 .idata$4       0x00422134        0x4 d:/mingw/bin/../lib/gcc/mingw32/4.5.2/../../../libkernel32.a(dchds00844.o)
 .idata$4       0x00422138        0x4 d:/mingw/bin/../lib/gcc/mingw32/4.5.2/../../../libkernel32.a(dchds00877.o)
 .idata$4       0x0042213c        0x4 d:/mingw/bin/../lib/gcc/mingw32/4.5.2/../../../libkernel32.a(dchds00885.o)
 .idata$4       0x00422140        0x4 d:/mingw/bin/../lib/gcc/mingw32/4.5.2/../../../libkernel32.a(dchds01052.o)
 .idata$4       0x00422144        0x4 d:/mingw/bin/../lib/gcc/mingw32/4.5.2/../../../libkernel32.a(dchds01140.o)
 .idata$4       0x00422148        0x4 d:/mingw/bin/../lib/gcc/mingw32/4.5.2/../../../libkernel32.a(dchds01173.o)
 .idata$4       0x0042214c        0x4 d:/mingw/bin/../lib/gcc/mingw32/4.5.2/../../../libkernel32.a(dchds01188.o)
 .idata$4       0x00422150        0x4 d:/mingw/bin/../lib/gcc/mingw32/4.5.2/../../../libkernel32.a(dchds01213.o)
 .idata$4       0x00422154        0x4 d:/mingw/bin/../lib/gcc/mingw32/4.5.2/../../../libkernel32.a(dchds01215.o)
 .idata$4       0x00422158        0x4 d:/mingw/bin/../lib/gcc/mingw32/4.5.2/../../../libkernel32.a(dchds01267.o)
 .idata$4       0x0042215c        0x4 d:/mingw/bin/../lib/gcc/mingw32/4.5.2/../../../libkernel32.a(dchdt.o)
 .idata$4       0x00422160        0x0 d:/mingw/bin/../lib/gcc/mingw32/4.5.2/../../../libmsvcrt.a(duymh.o)
 .idata$4       0x00422160        0x4 d:/mingw/bin/../lib/gcc/mingw32/4.5.2/../../../libmsvcrt.a(duyms00055.o)
 .idata$4       0x00422164        0x4 d:/mingw/bin/../lib/gcc/mingw32/4.5.2/../../../libmsvcrt.a(duyms00065.o)
 .idata$4       0x00422168        0x4 d:/mingw/bin/../lib/gcc/mingw32/4.5.2/../../../libmsvcrt.a(duyms00077.o)
 .idata$4       0x0042216c        0x4 d:/mingw/bin/../lib/gcc/mingw32/4.5.2/../../../libmsvcrt.a(duyms00079.o)
 .idata$4       0x00422170        0x4 d:/mingw/bin/../lib/gcc/mingw32/4.5.2/../../../libmsvcrt.a(duyms00099.o)
 .idata$4       0x00422174        0x4 d:/mingw/bin/../lib/gcc/mingw32/4.5.2/../../../libmsvcrt.a(duyms00137.o)
 .idata$4       0x00422178        0x4 d:/mingw/bin/../lib/gcc/mingw32/4.5.2/../../../libmsvcrt.a(duyms00147.o)
 .idata$4       0x0042217c        0x4 d:/mingw/bin/../lib/gcc/mingw32/4.5.2/../../../libmsvcrt.a(duyms00266.o)
 .idata$4       0x00422180        0x4 d:/mingw/bin/../lib/gcc/mingw32/4.5.2/../../../libmsvcrt.a(duyms00268.o)
 .idata$4       0x00422184        0x4 d:/mingw/bin/../lib/gcc/mingw32/4.5.2/../../../libmsvcrt.a(duyms00383.o)
 .idata$4       0x00422188        0x4 d:/mingw/bin/../lib/gcc/mingw32/4.5.2/../../../libmsvcrt.a(duyms00392.o)
 .idata$4       0x0042218c        0x4 d:/mingw/bin/../lib/gcc/mingw32/4.5.2/../../../libmsvcrt.a(duyms00426.o)
 .idata$4       0x00422190        0x4 d:/mingw/bin/../lib/gcc/mingw32/4.5.2/../../../libmsvcrt.a(duyms00490.o)
 .idata$4       0x00422194        0x4 d:/mingw/bin/../lib/gcc/mingw32/4.5.2/../../../libmsvcrt.a(duyms00538.o)
 .idata$4       0x00422198        0x4 d:/mingw/bin/../lib/gcc/mingw32/4.5.2/../../../libmsvcrt.a(duyms00583.o)
 .idata$4       0x0042219c        0x4 d:/mingw/bin/../lib/gcc/mingw32/4.5.2/../../../libmsvcrt.a(duyms00590.o)
 .idata$4       0x004221a0        0x4 d:/mingw/bin/../lib/gcc/mingw32/4.5.2/../../../libmsvcrt.a(duyms00592.o)
 .idata$4       0x004221a4        0x4 d:/mingw/bin/../lib/gcc/mingw32/4.5.2/../../../libmsvcrt.a(duyms00595.o)
 .idata$4       0x004221a8        0x4 d:/mingw/bin/../lib/gcc/mingw32/4.5.2/../../../libmsvcrt.a(duyms00604.o)
 .idata$4       0x004221ac        0x4 d:/mingw/bin/../lib/gcc/mingw32/4.5.2/../../../libmsvcrt.a(duyms00607.o)
 .idata$4       0x004221b0        0x4 d:/mingw/bin/../lib/gcc/mingw32/4.5.2/../../../libmsvcrt.a(duyms00610.o)
 .idata$4       0x004221b4        0x4 d:/mingw/bin/../lib/gcc/mingw32/4.5.2/../../../libmsvcrt.a(duyms00611.o)
 .idata$4       0x004221b8        0x4 d:/mingw/bin/../lib/gcc/mingw32/4.5.2/../../../libmsvcrt.a(duyms00613.o)
 .idata$4       0x004221bc        0x4 d:/mingw/bin/../lib/gcc/mingw32/4.5.2/../../../libmsvcrt.a(duyms00618.o)
 .idata$4       0x004221c0        0x4 d:/mingw/bin/../lib/gcc/mingw32/4.5.2/../../../libmsvcrt.a(duyms00619.o)
 .idata$4       0x004221c4        0x4 d:/mingw/bin/../lib/gcc/mingw32/4.5.2/../../../libmsvcrt.a(duyms00620.o)
 .idata$4       0x004221c8        0x4 d:/mingw/bin/../lib/gcc/mingw32/4.5.2/../../../libmsvcrt.a(duyms00621.o)
 .idata$4       0x004221cc        0x4 d:/mingw/bin/../lib/gcc/mingw32/4.5.2/../../../libmsvcrt.a(duyms00624.o)
 .idata$4       0x004221d0        0x4 d:/mingw/bin/../lib/gcc/mingw32/4.5.2/../../../libmsvcrt.a(duyms00625.o)
 .idata$4       0x004221d4        0x4 d:/mingw/bin/../lib/gcc/mingw32/4.5.2/../../../libmsvcrt.a(duyms00633.o)
 .idata$4       0x004221d8        0x4 d:/mingw/bin/../lib/gcc/mingw32/4.5.2/../../../libmsvcrt.a(duyms00637.o)
 .idata$4       0x004221dc        0x4 d:/mingw/bin/../lib/gcc/mingw32/4.5.2/../../../libmsvcrt.a(duyms00676.o)
 .idata$4       0x004221e0        0x4 d:/mingw/bin/../lib/gcc/mingw32/4.5.2/../../../libmsvcrt.a(duyms00681.o)
 .idata$4       0x004221e4        0x4 d:/mingw/bin/../lib/gcc/mingw32/4.5.2/../../../libmsvcrt.a(duyms00682.o)
 .idata$4       0x004221e8        0x4 d:/mingw/bin/../lib/gcc/mingw32/4.5.2/../../../libmsvcrt.a(duyms00683.o)
 .idata$4       0x004221ec        0x4 d:/mingw/bin/../lib/gcc/mingw32/4.5.2/../../../libmsvcrt.a(duyms00698.o)
 .idata$4       0x004221f0        0x4 d:/mingw/bin/../lib/gcc/mingw32/4.5.2/../../../libmsvcrt.a(duyms00706.o)
 .idata$4       0x004221f4        0x4 d:/mingw/bin/../lib/gcc/mingw32/4.5.2/../../../libmsvcrt.a(duyms00709.o)
 .idata$4       0x004221f8        0x4 d:/mingw/bin/../lib/gcc/mingw32/4.5.2/../../../libmsvcrt.a(duyms00713.o)
 .idata$4       0x004221fc        0x4 d:/mingw/bin/../lib/gcc/mingw32/4.5.2/../../../libmsvcrt.a(duyms00714.o)
 .idata$4       0x00422200        0x4 d:/mingw/bin/../lib/gcc/mingw32/4.5.2/../../../libmsvcrt.a(duyms00715.o)
 .idata$4       0x00422204        0x4 d:/mingw/bin/../lib/gcc/mingw32/4.5.2/../../../libmsvcrt.a(duyms00717.o)
 .idata$4       0x00422208        0x4 d:/mingw/bin/../lib/gcc/mingw32/4.5.2/../../../libmsvcrt.a(duyms00718.o)
 .idata$4       0x0042220c        0x4 d:/mingw/bin/../lib/gcc/mingw32/4.5.2/../../../libmsvcrt.a(duyms00724.o)
 .idata$4       0x00422210        0x4 d:/mingw/bin/../lib/gcc/mingw32/4.5.2/../../../libmsvcrt.a(duyms00726.o)
 .idata$4       0x00422214        0x4 d:/mingw/bin/../lib/gcc/mingw32/4.5.2/../../../libmsvcrt.a(duyms00731.o)
 .idata$4       0x00422218        0x4 d:/mingw/bin/../lib/gcc/mingw32/4.5.2/../../../libmsvcrt.a(duyms00732.o)
 .idata$4       0x0042221c        0x4 d:/mingw/bin/../lib/gcc/mingw32/4.5.2/../../../libmsvcrt.a(duyms00746.o)
 .idata$4       0x00422220        0x4 d:/mingw/bin/../lib/gcc/mingw32/4.5.2/../../../libmsvcrt.a(duyms00748.o)
 .idata$4       0x00422224        0x4 d:/mingw/bin/../lib/gcc/mingw32/4.5.2/../../../libmsvcrt.a(duymt.o)
 .idata$4       0x00422228        0x0 d:/mingw/bin/../lib/gcc/mingw32/4.5.2/../../../libshell32.a(dukih.o)
 .idata$4       0x00422228        0x4 d:/mingw/bin/../lib/gcc/mingw32/4.5.2/../../../libshell32.a(dukis00144.o)
 .idata$4       0x0042222c        0x4 d:/mingw/bin/../lib/gcc/mingw32/4.5.2/../../../libshell32.a(dukis00151.o)
 .idata$4       0x00422230        0x4 d:/mingw/bin/../lib/gcc/mingw32/4.5.2/../../../libshell32.a(dukit.o)
 .idata$4       0x00422234        0x0 d:/mingw/bin/../lib/gcc/mingw32/4.5.2/../../../libuser32.a(daoih.o)
 .idata$4       0x00422234        0x4 d:/mingw/bin/../lib/gcc/mingw32/4.5.2/../../../libuser32.a(daois00006.o)
 .idata$4       0x00422238        0x4 d:/mingw/bin/../lib/gcc/mingw32/4.5.2/../../../libuser32.a(daois00080.o)
 .idata$4       0x0042223c        0x4 d:/mingw/bin/../lib/gcc/mingw32/4.5.2/../../../libuser32.a(daois00088.o)
 .idata$4       0x00422240        0x4 d:/mingw/bin/../lib/gcc/mingw32/4.5.2/../../../libuser32.a(daois00089.o)
 .idata$4       0x00422244        0x4 d:/mingw/bin/../lib/gcc/mingw32/4.5.2/../../../libuser32.a(daois00090.o)
 .idata$4       0x00422248        0x4 d:/mingw/bin/../lib/gcc/mingw32/4.5.2/../../../libuser32.a(daois00134.o)
 .idata$4       0x0042224c        0x4 d:/mingw/bin/../lib/gcc/mingw32/4.5.2/../../../libuser32.a(daois00142.o)
 .idata$4       0x00422250        0x4 d:/mingw/bin/../lib/gcc/mingw32/4.5.2/../../../libuser32.a(daois00143.o)
 .idata$4       0x00422254        0x4 d:/mingw/bin/../lib/gcc/mingw32/4.5.2/../../../libuser32.a(daois00144.o)
 .idata$4       0x00422258        0x4 d:/mingw/bin/../lib/gcc/mingw32/4.5.2/../../../libuser32.a(daois00147.o)
 .idata$4       0x0042225c        0x4 d:/mingw/bin/../lib/gcc/mingw32/4.5.2/../../../libuser32.a(daois00149.o)
 .idata$4       0x00422260        0x4 d:/mingw/bin/../lib/gcc/mingw32/4.5.2/../../../libuser32.a(daois00180.o)
 .idata$4       0x00422264        0x4 d:/mingw/bin/../lib/gcc/mingw32/4.5.2/../../../libuser32.a(daois00182.o)
 .idata$4       0x00422268        0x4 d:/mingw/bin/../lib/gcc/mingw32/4.5.2/../../../libuser32.a(daois00210.o)
 .idata$4       0x0042226c        0x4 d:/mingw/bin/../lib/gcc/mingw32/4.5.2/../../../libuser32.a(daois00247.o)
 .idata$4       0x00422270        0x4 d:/mingw/bin/../lib/gcc/mingw32/4.5.2/../../../libuser32.a(daois00250.o)
 .idata$4       0x00422274        0x4 d:/mingw/bin/../lib/gcc/mingw32/4.5.2/../../../libuser32.a(daois00253.o)
 .idata$4       0x00422278        0x4 d:/mingw/bin/../lib/gcc/mingw32/4.5.2/../../../libuser32.a(daois00255.o)
 .idata$4       0x0042227c        0x4 d:/mingw/bin/../lib/gcc/mingw32/4.5.2/../../../libuser32.a(daois00283.o)
 .idata$4       0x00422280        0x4 d:/mingw/bin/../lib/gcc/mingw32/4.5.2/../../../libuser32.a(daois00285.o)
 .idata$4       0x00422284        0x4 d:/mingw/bin/../lib/gcc/mingw32/4.5.2/../../../libuser32.a(daois00287.o)
 .idata$4       0x00422288        0x4 d:/mingw/bin/../lib/gcc/mingw32/4.5.2/../../../libuser32.a(daois00293.o)
 .idata$4       0x0042228c        0x4 d:/mingw/bin/../lib/gcc/mingw32/4.5.2/../../../libuser32.a(daois00342.o)
 .idata$4       0x00422290        0x4 d:/mingw/bin/../lib/gcc/mingw32/4.5.2/../../../libuser32.a(daois00348.o)
 .idata$4       0x00422294        0x4 d:/mingw/bin/../lib/gcc/mingw32/4.5.2/../../../libuser32.a(daois00365.o)
 .idata$4       0x00422298        0x4 d:/mingw/bin/../lib/gcc/mingw32/4.5.2/../../../libuser32.a(daois00384.o)
 .idata$4       0x0042229c        0x4 d:/mingw/bin/../lib/gcc/mingw32/4.5.2/../../../libuser32.a(daois00394.o)
 .idata$4       0x004222a0        0x4 d:/mingw/bin/../lib/gcc/mingw32/4.5.2/../../../libuser32.a(daois00405.o)
 .idata$4       0x004222a4        0x4 d:/mingw/bin/../lib/gcc/mingw32/4.5.2/../../../libuser32.a(daois00409.o)
 .idata$4       0x004222a8        0x4 d:/mingw/bin/../lib/gcc/mingw32/4.5.2/../../../libuser32.a(daois00433.o)
 .idata$4       0x004222ac        0x4 d:/mingw/bin/../lib/gcc/mingw32/4.5.2/../../../libuser32.a(daois00434.o)
 .idata$4       0x004222b0        0x4 d:/mingw/bin/../lib/gcc/mingw32/4.5.2/../../../libuser32.a(daois00437.o)
 .idata$4       0x004222b4        0x4 d:/mingw/bin/../lib/gcc/mingw32/4.5.2/../../../libuser32.a(daois00445.o)
 .idata$4       0x004222b8        0x4 d:/mingw/bin/../lib/gcc/mingw32/4.5.2/../../../libuser32.a(daois00466.o)
 .idata$4       0x004222bc        0x4 d:/mingw/bin/../lib/gcc/mingw32/4.5.2/../../../libuser32.a(daois00468.o)
 .idata$4       0x004222c0        0x4 d:/mingw/bin/../lib/gcc/mingw32/4.5.2/../../../libuser32.a(daois00479.o)
 .idata$4       0x004222c4        0x4 d:/mingw/bin/../lib/gcc/mingw32/4.5.2/../../../libuser32.a(daois00491.o)
 .idata$4       0x004222c8        0x4 d:/mingw/bin/../lib/gcc/mingw32/4.5.2/../../../libuser32.a(daois00495.o)
 .idata$4       0x004222cc        0x4 d:/mingw/bin/../lib/gcc/mingw32/4.5.2/../../../libuser32.a(daois00505.o)
 .idata$4       0x004222d0        0x4 d:/mingw/bin/../lib/gcc/mingw32/4.5.2/../../../libuser32.a(daois00508.o)
 .idata$4       0x004222d4        0x4 d:/mingw/bin/../lib/gcc/mingw32/4.5.2/../../../libuser32.a(daois00516.o)
 .idata$4       0x004222d8        0x4 d:/mingw/bin/../lib/gcc/mingw32/4.5.2/../../../libuser32.a(daois00530.o)
 .idata$4       0x004222dc        0x4 d:/mingw/bin/../lib/gcc/mingw32/4.5.2/../../../libuser32.a(daois00534.o)
 .idata$4       0x004222e0        0x4 d:/mingw/bin/../lib/gcc/mingw32/4.5.2/../../../libuser32.a(daois00540.o)
 .idata$4       0x004222e4        0x4 d:/mingw/bin/../lib/gcc/mingw32/4.5.2/../../../libuser32.a(daois00569.o)
 .idata$4       0x004222e8        0x4 d:/mingw/bin/../lib/gcc/mingw32/4.5.2/../../../libuser32.a(daois00572.o)
 .idata$4       0x004222ec        0x4 d:/mingw/bin/../lib/gcc/mingw32/4.5.2/../../../libuser32.a(daois00585.o)
 .idata$4       0x004222f0        0x4 d:/mingw/bin/../lib/gcc/mingw32/4.5.2/../../../libuser32.a(daois00602.o)
 .idata$4       0x004222f4        0x4 d:/mingw/bin/../lib/gcc/mingw32/4.5.2/../../../libuser32.a(daois00608.o)
 .idata$4       0x004222f8        0x4 d:/mingw/bin/../lib/gcc/mingw32/4.5.2/../../../libuser32.a(daois00632.o)
 .idata$4       0x004222fc        0x4 d:/mingw/bin/../lib/gcc/mingw32/4.5.2/../../../libuser32.a(daoit.o)
                0x00422300                __IAT_start__ = .
 SORT(*)(.idata$5)
 .idata$5       0x00422300        0x0 d:/mingw/bin/../lib/gcc/mingw32/4.5.2/../../../libadvapi32.a(dgxgh.o)
 .idata$5       0x00422300        0x4 d:/mingw/bin/../lib/gcc/mingw32/4.5.2/../../../libadvapi32.a(dgxgs00083.o)
                0x00422300                _imp__CopySid@12
 .idata$5       0x00422304        0x4 d:/mingw/bin/../lib/gcc/mingw32/4.5.2/../../../libadvapi32.a(dgxgs00172.o)
                0x00422304                _imp__EqualSid@8
 .idata$5       0x00422308        0x4 d:/mingw/bin/../lib/gcc/mingw32/4.5.2/../../../libadvapi32.a(dgxgs00196.o)
                0x00422308                _imp__GetLengthSid@4
 .idata$5       0x0042230c        0x4 d:/mingw/bin/../lib/gcc/mingw32/4.5.2/../../../libadvapi32.a(dgxgs00245.o)
                0x0042230c                _imp__GetUserNameA@8
 .idata$5       0x00422310        0x4 d:/mingw/bin/../lib/gcc/mingw32/4.5.2/../../../libadvapi32.a(dgxgs00386.o)
                0x00422310                _imp__RegCloseKey@4
 .idata$5       0x00422314        0x4 d:/mingw/bin/../lib/gcc/mingw32/4.5.2/../../../libadvapi32.a(dgxgs00400.o)
                0x00422314                _imp__RegEnumKeyA@16
 .idata$5       0x00422318        0x4 d:/mingw/bin/../lib/gcc/mingw32/4.5.2/../../../libadvapi32.a(dgxgs00412.o)
                0x00422318                _imp__RegOpenKeyA@12
 .idata$5       0x0042231c        0x4 d:/mingw/bin/../lib/gcc/mingw32/4.5.2/../../../libadvapi32.a(dgxgt.o)
 .idata$5       0x00422320        0x0 d:/mingw/bin/../lib/gcc/mingw32/4.5.2/../../../libcomdlg32.a(demdh.o)
 .idata$5       0x00422320        0x4 d:/mingw/bin/../lib/gcc/mingw32/4.5.2/../../../libcomdlg32.a(demds00009.o)
                0x00422320                _imp__GetOpenFileNameA@4
 .idata$5       0x00422324        0x4 d:/mingw/bin/../lib/gcc/mingw32/4.5.2/../../../libcomdlg32.a(demds00011.o)
                0x00422324                _imp__GetSaveFileNameA@4
 .idata$5       0x00422328        0x4 d:/mingw/bin/../lib/gcc/mingw32/4.5.2/../../../libcomdlg32.a(demdt.o)
 .idata$5       0x0042232c        0x0 d:/mingw/bin/../lib/gcc/mingw32/4.5.2/../../../libgdi32.a(dkfhh.o)
 .idata$5       0x0042232c        0x4 d:/mingw/bin/../lib/gcc/mingw32/4.5.2/../../../libgdi32.a(dkfhs00201.o)
                0x0042232c                _imp__GetStockObject@4
 .idata$5       0x00422330        0x4 d:/mingw/bin/../lib/gcc/mingw32/4.5.2/../../../libgdi32.a(dkfht.o)
 .idata$5       0x00422334        0x0 d:/mingw/bin/../lib/gcc/mingw32/4.5.2/../../../libkernel32.a(dchdh.o)
 .idata$5       0x00422334        0x4 d:/mingw/bin/../lib/gcc/mingw32/4.5.2/../../../libkernel32.a(dchds00016.o)
                0x00422334                _imp__AllocConsole@0
 .idata$5       0x00422338        0x4 d:/mingw/bin/../lib/gcc/mingw32/4.5.2/../../../libkernel32.a(dchds00082.o)
                0x00422338                _imp__CloseHandle@4
 .idata$5       0x0042233c        0x4 d:/mingw/bin/../lib/gcc/mingw32/4.5.2/../../../libkernel32.a(dchds00136.o)
                0x0042233c                _imp__CreateFileMappingA@24
 .idata$5       0x00422340        0x4 d:/mingw/bin/../lib/gcc/mingw32/4.5.2/../../../libkernel32.a(dchds00207.o)
                0x00422340                _imp__DeleteCriticalSection@4
 .idata$5       0x00422344        0x4 d:/mingw/bin/../lib/gcc/mingw32/4.5.2/../../../libkernel32.a(dchds00236.o)
                0x00422344                _imp__EnterCriticalSection@4
 .idata$5       0x00422348        0x4 d:/mingw/bin/../lib/gcc/mingw32/4.5.2/../../../libkernel32.a(dchds00279.o)
                0x00422348                _imp__ExitProcess@4
 .idata$5       0x0042234c        0x4 d:/mingw/bin/../lib/gcc/mingw32/4.5.2/../../../libkernel32.a(dchds00352.o)
                0x0042234c                _imp__FreeLibrary@4
 .idata$5       0x00422350        0x4 d:/mingw/bin/../lib/gcc/mingw32/4.5.2/../../../libkernel32.a(dchds00388.o)
                0x00422350                _imp__GetCommandLineA@0
 .idata$5       0x00422354        0x4 d:/mingw/bin/../lib/gcc/mingw32/4.5.2/../../../libkernel32.a(dchds00444.o)
                0x00422354                _imp__GetCurrentDirectoryA@8
 .idata$5       0x00422358        0x4 d:/mingw/bin/../lib/gcc/mingw32/4.5.2/../../../libkernel32.a(dchds00447.o)
                0x00422358                _imp__GetCurrentProcessId@0
 .idata$5       0x0042235c        0x4 d:/mingw/bin/../lib/gcc/mingw32/4.5.2/../../../libkernel32.a(dchds00451.o)
                0x0042235c                _imp__GetCurrentThreadId@0
 .idata$5       0x00422360        0x4 d:/mingw/bin/../lib/gcc/mingw32/4.5.2/../../../libkernel32.a(dchds00510.o)
                0x00422360                _imp__GetLastError@0
 .idata$5       0x00422364        0x4 d:/mingw/bin/../lib/gcc/mingw32/4.5.2/../../../libkernel32.a(dchds00527.o)
                0x00422364                _imp__GetModuleFileNameA@12
 .idata$5       0x00422368        0x4 d:/mingw/bin/../lib/gcc/mingw32/4.5.2/../../../libkernel32.a(dchds00529.o)
                0x00422368                _imp__GetModuleHandleA@4
 .idata$5       0x0042236c        0x4 d:/mingw/bin/../lib/gcc/mingw32/4.5.2/../../../libkernel32.a(dchds00577.o)
                0x0042236c                _imp__GetProcAddress@8
 .idata$5       0x00422370        0x4 d:/mingw/bin/../lib/gcc/mingw32/4.5.2/../../../libkernel32.a(dchds00606.o)
                0x00422370                _imp__GetStartupInfoA@4
 .idata$5       0x00422374        0x4 d:/mingw/bin/../lib/gcc/mingw32/4.5.2/../../../libkernel32.a(dchds00608.o)
                0x00422374                _imp__GetStdHandle@4
 .idata$5       0x00422378        0x4 d:/mingw/bin/../lib/gcc/mingw32/4.5.2/../../../libkernel32.a(dchds00619.o)
                0x00422378                _imp__GetSystemDirectoryA@8
 .idata$5       0x0042237c        0x4 d:/mingw/bin/../lib/gcc/mingw32/4.5.2/../../../libkernel32.a(dchds00671.o)
                0x0042237c                _imp__GetVersionExA@4
 .idata$5       0x00422380        0x4 d:/mingw/bin/../lib/gcc/mingw32/4.5.2/../../../libkernel32.a(dchds00734.o)
                0x00422380                _imp__InitializeCriticalSection@4
 .idata$5       0x00422384        0x4 d:/mingw/bin/../lib/gcc/mingw32/4.5.2/../../../libkernel32.a(dchds00814.o)
                0x00422384                _imp__LeaveCriticalSection@4
 .idata$5       0x00422388        0x4 d:/mingw/bin/../lib/gcc/mingw32/4.5.2/../../../libkernel32.a(dchds00817.o)
                0x00422388                _imp__LoadLibraryA@4
 .idata$5       0x0042238c        0x4 d:/mingw/bin/../lib/gcc/mingw32/4.5.2/../../../libkernel32.a(dchds00825.o)
                0x0042238c                _imp__LocalAlloc@8
 .idata$5       0x00422390        0x4 d:/mingw/bin/../lib/gcc/mingw32/4.5.2/../../../libkernel32.a(dchds00829.o)
                0x00422390                _imp__LocalFree@4
 .idata$5       0x00422394        0x4 d:/mingw/bin/../lib/gcc/mingw32/4.5.2/../../../libkernel32.a(dchds00844.o)
                0x00422394                _imp__MapViewOfFile@20
 .idata$5       0x00422398        0x4 d:/mingw/bin/../lib/gcc/mingw32/4.5.2/../../../libkernel32.a(dchds00877.o)
                0x00422398                _imp__OpenFileMappingA@12
 .idata$5       0x0042239c        0x4 d:/mingw/bin/../lib/gcc/mingw32/4.5.2/../../../libkernel32.a(dchds00885.o)
                0x0042239c                _imp__OpenProcess@12
 .idata$5       0x004223a0        0x4 d:/mingw/bin/../lib/gcc/mingw32/4.5.2/../../../libkernel32.a(dchds01052.o)
                0x004223a0                _imp__SetCurrentDirectoryA@4
 .idata$5       0x004223a4        0x4 d:/mingw/bin/../lib/gcc/mingw32/4.5.2/../../../libkernel32.a(dchds01140.o)
                0x004223a4                _imp__SetUnhandledExceptionFilter@4
 .idata$5       0x004223a8        0x4 d:/mingw/bin/../lib/gcc/mingw32/4.5.2/../../../libkernel32.a(dchds01173.o)
                0x004223a8                _imp__TlsGetValue@4
 .idata$5       0x004223ac        0x4 d:/mingw/bin/../lib/gcc/mingw32/4.5.2/../../../libkernel32.a(dchds01188.o)
                0x004223ac                _imp__UnmapViewOfFile@4
 .idata$5       0x004223b0        0x4 d:/mingw/bin/../lib/gcc/mingw32/4.5.2/../../../libkernel32.a(dchds01213.o)
                0x004223b0                _imp__VirtualProtect@16
 .idata$5       0x004223b4        0x4 d:/mingw/bin/../lib/gcc/mingw32/4.5.2/../../../libkernel32.a(dchds01215.o)
                0x004223b4                _imp__VirtualQuery@12
 .idata$5       0x004223b8        0x4 d:/mingw/bin/../lib/gcc/mingw32/4.5.2/../../../libkernel32.a(dchds01267.o)
                0x004223b8                _imp__WriteFile@20
 .idata$5       0x004223bc        0x4 d:/mingw/bin/../lib/gcc/mingw32/4.5.2/../../../libkernel32.a(dchdt.o)
 .idata$5       0x004223c0        0x0 d:/mingw/bin/../lib/gcc/mingw32/4.5.2/../../../libmsvcrt.a(duymh.o)
 .idata$5       0x004223c0        0x4 d:/mingw/bin/../lib/gcc/mingw32/4.5.2/../../../libmsvcrt.a(duyms00055.o)
                0x004223c0                _imp____getmainargs
 .idata$5       0x004223c4        0x4 d:/mingw/bin/../lib/gcc/mingw32/4.5.2/../../../libmsvcrt.a(duyms00065.o)
                0x004223c4                _imp____mb_cur_max
 .idata$5       0x004223c8        0x4 d:/mingw/bin/../lib/gcc/mingw32/4.5.2/../../../libmsvcrt.a(duyms00077.o)
                0x004223c8                _imp____p__environ
 .idata$5       0x004223cc        0x4 d:/mingw/bin/../lib/gcc/mingw32/4.5.2/../../../libmsvcrt.a(duyms00079.o)
                0x004223cc                _imp____p__fmode
 .idata$5       0x004223d0        0x4 d:/mingw/bin/../lib/gcc/mingw32/4.5.2/../../../libmsvcrt.a(duyms00099.o)
                0x004223d0                _imp____set_app_type
 .idata$5       0x004223d4        0x4 d:/mingw/bin/../lib/gcc/mingw32/4.5.2/../../../libmsvcrt.a(duyms00137.o)
                0x004223d4                _imp___assert
 .idata$5       0x004223d8        0x4 d:/mingw/bin/../lib/gcc/mingw32/4.5.2/../../../libmsvcrt.a(duyms00147.o)
                0x004223d8                _imp___cexit
 .idata$5       0x004223dc        0x4 d:/mingw/bin/../lib/gcc/mingw32/4.5.2/../../../libmsvcrt.a(duyms00266.o)
                0x004223dc                _imp___iob
 .idata$5       0x004223e0        0x4 d:/mingw/bin/../lib/gcc/mingw32/4.5.2/../../../libmsvcrt.a(duyms00268.o)
                0x004223e0                _imp___isctype
 .idata$5       0x004223e4        0x4 d:/mingw/bin/../lib/gcc/mingw32/4.5.2/../../../libmsvcrt.a(duyms00383.o)
                0x004223e4                _imp___onexit
 .idata$5       0x004223e8        0x4 d:/mingw/bin/../lib/gcc/mingw32/4.5.2/../../../libmsvcrt.a(duyms00392.o)
                0x004223e8                _imp___pctype
 .idata$5       0x004223ec        0x4 d:/mingw/bin/../lib/gcc/mingw32/4.5.2/../../../libmsvcrt.a(duyms00426.o)
                0x004223ec                _imp___setmode
 .idata$5       0x004223f0        0x4 d:/mingw/bin/../lib/gcc/mingw32/4.5.2/../../../libmsvcrt.a(duyms00490.o)
                0x004223f0                _imp___vsnprintf
 .idata$5       0x004223f4        0x4 d:/mingw/bin/../lib/gcc/mingw32/4.5.2/../../../libmsvcrt.a(duyms00538.o)
                0x004223f4                _imp___winmajor
 .idata$5       0x004223f8        0x4 d:/mingw/bin/../lib/gcc/mingw32/4.5.2/../../../libmsvcrt.a(duyms00583.o)
                0x004223f8                _imp__abort
 .idata$5       0x004223fc        0x4 d:/mingw/bin/../lib/gcc/mingw32/4.5.2/../../../libmsvcrt.a(duyms00590.o)
                0x004223fc                _imp__atexit
 .idata$5       0x00422400        0x4 d:/mingw/bin/../lib/gcc/mingw32/4.5.2/../../../libmsvcrt.a(duyms00592.o)
                0x00422400                _imp__atoi
 .idata$5       0x00422404        0x4 d:/mingw/bin/../lib/gcc/mingw32/4.5.2/../../../libmsvcrt.a(duyms00595.o)
                0x00422404                _imp__calloc
 .idata$5       0x00422408        0x4 d:/mingw/bin/../lib/gcc/mingw32/4.5.2/../../../libmsvcrt.a(duyms00604.o)
                0x00422408                _imp__exit
 .idata$5       0x0042240c        0x4 d:/mingw/bin/../lib/gcc/mingw32/4.5.2/../../../libmsvcrt.a(duyms00607.o)
                0x0042240c                _imp__fclose
 .idata$5       0x00422410        0x4 d:/mingw/bin/../lib/gcc/mingw32/4.5.2/../../../libmsvcrt.a(duyms00610.o)
                0x00422410                _imp__fflush
 .idata$5       0x00422414        0x4 d:/mingw/bin/../lib/gcc/mingw32/4.5.2/../../../libmsvcrt.a(duyms00611.o)
                0x00422414                _imp__fgetc
 .idata$5       0x00422418        0x4 d:/mingw/bin/../lib/gcc/mingw32/4.5.2/../../../libmsvcrt.a(duyms00613.o)
                0x00422418                _imp__fgets
 .idata$5       0x0042241c        0x4 d:/mingw/bin/../lib/gcc/mingw32/4.5.2/../../../libmsvcrt.a(duyms00618.o)
                0x0042241c                _imp__fopen
 .idata$5       0x00422420        0x4 d:/mingw/bin/../lib/gcc/mingw32/4.5.2/../../../libmsvcrt.a(duyms00619.o)
                0x00422420                _imp__fprintf
 .idata$5       0x00422424        0x4 d:/mingw/bin/../lib/gcc/mingw32/4.5.2/../../../libmsvcrt.a(duyms00620.o)
                0x00422424                _imp__fputc
 .idata$5       0x00422428        0x4 d:/mingw/bin/../lib/gcc/mingw32/4.5.2/../../../libmsvcrt.a(duyms00621.o)
                0x00422428                _imp__fputs
 .idata$5       0x0042242c        0x4 d:/mingw/bin/../lib/gcc/mingw32/4.5.2/../../../libmsvcrt.a(duyms00624.o)
                0x0042242c                _imp__fread
 .idata$5       0x00422430        0x4 d:/mingw/bin/../lib/gcc/mingw32/4.5.2/../../../libmsvcrt.a(duyms00625.o)
                0x00422430                _imp__free
 .idata$5       0x00422434        0x4 d:/mingw/bin/../lib/gcc/mingw32/4.5.2/../../../libmsvcrt.a(duyms00633.o)
                0x00422434                _imp__fwrite
 .idata$5       0x00422438        0x4 d:/mingw/bin/../lib/gcc/mingw32/4.5.2/../../../libmsvcrt.a(duyms00637.o)
                0x00422438                _imp__getenv
 .idata$5       0x0042243c        0x4 d:/mingw/bin/../lib/gcc/mingw32/4.5.2/../../../libmsvcrt.a(duyms00676.o)
                0x0042243c                _imp__malloc
 .idata$5       0x00422440        0x4 d:/mingw/bin/../lib/gcc/mingw32/4.5.2/../../../libmsvcrt.a(duyms00681.o)
                0x00422440                _imp__memcmp
 .idata$5       0x00422444        0x4 d:/mingw/bin/../lib/gcc/mingw32/4.5.2/../../../libmsvcrt.a(duyms00682.o)
                0x00422444                _imp__memcpy
 .idata$5       0x00422448        0x4 d:/mingw/bin/../lib/gcc/mingw32/4.5.2/../../../libmsvcrt.a(duyms00683.o)
                0x00422448                _imp__memmove
 .idata$5       0x0042244c        0x4 d:/mingw/bin/../lib/gcc/mingw32/4.5.2/../../../libmsvcrt.a(duyms00698.o)
                0x0042244c                _imp__realloc
 .idata$5       0x00422450        0x4 d:/mingw/bin/../lib/gcc/mingw32/4.5.2/../../../libmsvcrt.a(duyms00706.o)
                0x00422450                _imp__signal
 .idata$5       0x00422454        0x4 d:/mingw/bin/../lib/gcc/mingw32/4.5.2/../../../libmsvcrt.a(duyms00709.o)
                0x00422454                _imp__sprintf
 .idata$5       0x00422458        0x4 d:/mingw/bin/../lib/gcc/mingw32/4.5.2/../../../libmsvcrt.a(duyms00713.o)
                0x00422458                _imp__strcat
 .idata$5       0x0042245c        0x4 d:/mingw/bin/../lib/gcc/mingw32/4.5.2/../../../libmsvcrt.a(duyms00714.o)
                0x0042245c                _imp__strchr
 .idata$5       0x00422460        0x4 d:/mingw/bin/../lib/gcc/mingw32/4.5.2/../../../libmsvcrt.a(duyms00715.o)
                0x00422460                _imp__strcmp
 .idata$5       0x00422464        0x4 d:/mingw/bin/../lib/gcc/mingw32/4.5.2/../../../libmsvcrt.a(duyms00717.o)
                0x00422464                _imp__strcpy
 .idata$5       0x00422468        0x4 d:/mingw/bin/../lib/gcc/mingw32/4.5.2/../../../libmsvcrt.a(duyms00718.o)
                0x00422468                _imp__strcspn
 .idata$5       0x0042246c        0x4 d:/mingw/bin/../lib/gcc/mingw32/4.5.2/../../../libmsvcrt.a(duyms00724.o)
                0x0042246c                _imp__strncpy
 .idata$5       0x00422470        0x4 d:/mingw/bin/../lib/gcc/mingw32/4.5.2/../../../libmsvcrt.a(duyms00726.o)
                0x00422470                _imp__strrchr
 .idata$5       0x00422474        0x4 d:/mingw/bin/../lib/gcc/mingw32/4.5.2/../../../libmsvcrt.a(duyms00731.o)
                0x00422474                _imp__strtol
 .idata$5       0x00422478        0x4 d:/mingw/bin/../lib/gcc/mingw32/4.5.2/../../../libmsvcrt.a(duyms00732.o)
                0x00422478                _imp__strtoul
 .idata$5       0x0042247c        0x4 d:/mingw/bin/../lib/gcc/mingw32/4.5.2/../../../libmsvcrt.a(duyms00746.o)
                0x0042247c                _imp__ungetc
 .idata$5       0x00422480        0x4 d:/mingw/bin/../lib/gcc/mingw32/4.5.2/../../../libmsvcrt.a(duyms00748.o)
                0x00422480                _imp__vfprintf
 .idata$5       0x00422484        0x4 d:/mingw/bin/../lib/gcc/mingw32/4.5.2/../../../libmsvcrt.a(duymt.o)
 .idata$5       0x00422488        0x0 d:/mingw/bin/../lib/gcc/mingw32/4.5.2/../../../libshell32.a(dukih.o)
 .idata$5       0x00422488        0x4 d:/mingw/bin/../lib/gcc/mingw32/4.5.2/../../../libshell32.a(dukis00144.o)
                0x00422488                _imp__ShellExecuteA@24
 .idata$5       0x0042248c        0x4 d:/mingw/bin/../lib/gcc/mingw32/4.5.2/../../../libshell32.a(dukis00151.o)
                0x0042248c                _imp__Shell_NotifyIconA@8
 .idata$5       0x00422490        0x4 d:/mingw/bin/../lib/gcc/mingw32/4.5.2/../../../libshell32.a(dukit.o)
 .idata$5       0x00422494        0x0 d:/mingw/bin/../lib/gcc/mingw32/4.5.2/../../../libuser32.a(daoih.o)
 .idata$5       0x00422494        0x4 d:/mingw/bin/../lib/gcc/mingw32/4.5.2/../../../libuser32.a(daois00006.o)
                0x00422494                _imp__AppendMenuA@16
 .idata$5       0x00422498        0x4 d:/mingw/bin/../lib/gcc/mingw32/4.5.2/../../../libuser32.a(daois00080.o)
                0x00422498                _imp__CreateDialogParamA@20
 .idata$5       0x0042249c        0x4 d:/mingw/bin/../lib/gcc/mingw32/4.5.2/../../../libuser32.a(daois00088.o)
                0x0042249c                _imp__CreateMenu@0
 .idata$5       0x004224a0        0x4 d:/mingw/bin/../lib/gcc/mingw32/4.5.2/../../../libuser32.a(daois00089.o)
                0x004224a0                _imp__CreatePopupMenu@0
 .idata$5       0x004224a4        0x4 d:/mingw/bin/../lib/gcc/mingw32/4.5.2/../../../libuser32.a(daois00090.o)
                0x004224a4                _imp__CreateWindowExA@48
 .idata$5       0x004224a8        0x4 d:/mingw/bin/../lib/gcc/mingw32/4.5.2/../../../libuser32.a(daois00134.o)
                0x004224a8                _imp__DefWindowProcA@16
 .idata$5       0x004224ac        0x4 d:/mingw/bin/../lib/gcc/mingw32/4.5.2/../../../libuser32.a(daois00142.o)
                0x004224ac                _imp__DestroyIcon@4
 .idata$5       0x004224b0        0x4 d:/mingw/bin/../lib/gcc/mingw32/4.5.2/../../../libuser32.a(daois00143.o)
                0x004224b0                _imp__DestroyMenu@4
 .idata$5       0x004224b4        0x4 d:/mingw/bin/../lib/gcc/mingw32/4.5.2/../../../libuser32.a(daois00144.o)
                0x004224b4                _imp__DestroyWindow@4
 .idata$5       0x004224b8        0x4 d:/mingw/bin/../lib/gcc/mingw32/4.5.2/../../../libuser32.a(daois00147.o)
                0x004224b8                _imp__DialogBoxParamA@20
 .idata$5       0x004224bc        0x4 d:/mingw/bin/../lib/gcc/mingw32/4.5.2/../../../libuser32.a(daois00149.o)
                0x004224bc                _imp__DispatchMessageA@4
 .idata$5       0x004224c0        0x4 d:/mingw/bin/../lib/gcc/mingw32/4.5.2/../../../libuser32.a(daois00180.o)
                0x004224c0                _imp__EnableWindow@8
 .idata$5       0x004224c4        0x4 d:/mingw/bin/../lib/gcc/mingw32/4.5.2/../../../libuser32.a(daois00182.o)
                0x004224c4                _imp__EndDialog@8
 .idata$5       0x004224c8        0x4 d:/mingw/bin/../lib/gcc/mingw32/4.5.2/../../../libuser32.a(daois00210.o)
                0x004224c8                _imp__FindWindowA@8
 .idata$5       0x004224cc        0x4 d:/mingw/bin/../lib/gcc/mingw32/4.5.2/../../../libuser32.a(daois00247.o)
                0x004224cc                _imp__GetCursorPos@4
 .idata$5       0x004224d0        0x4 d:/mingw/bin/../lib/gcc/mingw32/4.5.2/../../../libuser32.a(daois00250.o)
                0x004224d0                _imp__GetDesktopWindow@0
 .idata$5       0x004224d4        0x4 d:/mingw/bin/../lib/gcc/mingw32/4.5.2/../../../libuser32.a(daois00253.o)
                0x004224d4                _imp__GetDlgItem@8
 .idata$5       0x004224d8        0x4 d:/mingw/bin/../lib/gcc/mingw32/4.5.2/../../../libuser32.a(daois00255.o)
                0x004224d8                _imp__GetDlgItemTextA@16
 .idata$5       0x004224dc        0x4 d:/mingw/bin/../lib/gcc/mingw32/4.5.2/../../../libuser32.a(daois00283.o)
                0x004224dc                _imp__GetMenuDefaultItem@12
 .idata$5       0x004224e0        0x4 d:/mingw/bin/../lib/gcc/mingw32/4.5.2/../../../libuser32.a(daois00285.o)
                0x004224e0                _imp__GetMenuItemCount@4
 .idata$5       0x004224e4        0x4 d:/mingw/bin/../lib/gcc/mingw32/4.5.2/../../../libuser32.a(daois00287.o)
                0x004224e4                _imp__GetMenuItemInfoA@16
 .idata$5       0x004224e8        0x4 d:/mingw/bin/../lib/gcc/mingw32/4.5.2/../../../libuser32.a(daois00293.o)
                0x004224e8                _imp__GetMessageA@16
 .idata$5       0x004224ec        0x4 d:/mingw/bin/../lib/gcc/mingw32/4.5.2/../../../libuser32.a(daois00342.o)
                0x004224ec                _imp__GetWindowLongA@8
 .idata$5       0x004224f0        0x4 d:/mingw/bin/../lib/gcc/mingw32/4.5.2/../../../libuser32.a(daois00348.o)
                0x004224f0                _imp__GetWindowRect@8
 .idata$5       0x004224f4        0x4 d:/mingw/bin/../lib/gcc/mingw32/4.5.2/../../../libuser32.a(daois00365.o)
                0x004224f4                _imp__InsertMenuItemA@16
 .idata$5       0x004224f8        0x4 d:/mingw/bin/../lib/gcc/mingw32/4.5.2/../../../libuser32.a(daois00384.o)
                0x004224f8                _imp__IsDialogMessageA@8
 .idata$5       0x004224fc        0x4 d:/mingw/bin/../lib/gcc/mingw32/4.5.2/../../../libuser32.a(daois00394.o)
                0x004224fc                _imp__IsWindow@4
 .idata$5       0x00422500        0x4 d:/mingw/bin/../lib/gcc/mingw32/4.5.2/../../../libuser32.a(daois00405.o)
                0x00422500                _imp__LoadCursorA@8
 .idata$5       0x00422504        0x4 d:/mingw/bin/../lib/gcc/mingw32/4.5.2/../../../libuser32.a(daois00409.o)
                0x00422504                _imp__LoadIconA@8
 .idata$5       0x00422508        0x4 d:/mingw/bin/../lib/gcc/mingw32/4.5.2/../../../libuser32.a(daois00433.o)
                0x00422508                _imp__MessageBeep@4
 .idata$5       0x0042250c        0x4 d:/mingw/bin/../lib/gcc/mingw32/4.5.2/../../../libuser32.a(daois00434.o)
                0x0042250c                _imp__MessageBoxA@16
 .idata$5       0x00422510        0x4 d:/mingw/bin/../lib/gcc/mingw32/4.5.2/../../../libuser32.a(daois00437.o)
                0x00422510                _imp__MessageBoxIndirectA@4
 .idata$5       0x00422514        0x4 d:/mingw/bin/../lib/gcc/mingw32/4.5.2/../../../libuser32.a(daois00445.o)
                0x00422514                _imp__MoveWindow@24
 .idata$5       0x00422518        0x4 d:/mingw/bin/../lib/gcc/mingw32/4.5.2/../../../libuser32.a(daois00466.o)
                0x00422518                _imp__PostMessageA@16
 .idata$5       0x0042251c        0x4 d:/mingw/bin/../lib/gcc/mingw32/4.5.2/../../../libuser32.a(daois00468.o)
                0x0042251c                _imp__PostQuitMessage@4
 .idata$5       0x00422520        0x4 d:/mingw/bin/../lib/gcc/mingw32/4.5.2/../../../libuser32.a(daois00479.o)
                0x00422520                _imp__RegisterClassA@4
 .idata$5       0x00422524        0x4 d:/mingw/bin/../lib/gcc/mingw32/4.5.2/../../../libuser32.a(daois00491.o)
                0x00422524                _imp__RegisterWindowMessageA@4
 .idata$5       0x00422528        0x4 d:/mingw/bin/../lib/gcc/mingw32/4.5.2/../../../libuser32.a(daois00495.o)
                0x00422528                _imp__RemoveMenu@12
 .idata$5       0x0042252c        0x4 d:/mingw/bin/../lib/gcc/mingw32/4.5.2/../../../libuser32.a(daois00505.o)
                0x0042252c                _imp__SendDlgItemMessageA@20
 .idata$5       0x00422530        0x4 d:/mingw/bin/../lib/gcc/mingw32/4.5.2/../../../libuser32.a(daois00508.o)
                0x00422530                _imp__SendMessageA@16
 .idata$5       0x00422534        0x4 d:/mingw/bin/../lib/gcc/mingw32/4.5.2/../../../libuser32.a(daois00516.o)
                0x00422534                _imp__SetActiveWindow@4
 .idata$5       0x00422538        0x4 d:/mingw/bin/../lib/gcc/mingw32/4.5.2/../../../libuser32.a(daois00530.o)
                0x00422538                _imp__SetDlgItemTextA@12
 .idata$5       0x0042253c        0x4 d:/mingw/bin/../lib/gcc/mingw32/4.5.2/../../../libuser32.a(daois00534.o)
                0x0042253c                _imp__SetForegroundWindow@4
 .idata$5       0x00422540        0x4 d:/mingw/bin/../lib/gcc/mingw32/4.5.2/../../../libuser32.a(daois00540.o)
                0x00422540                _imp__SetMenuDefaultItem@12
 .idata$5       0x00422544        0x4 d:/mingw/bin/../lib/gcc/mingw32/4.5.2/../../../libuser32.a(daois00569.o)
                0x00422544                _imp__SetWindowLongA@12
 .idata$5       0x00422548        0x4 d:/mingw/bin/../lib/gcc/mingw32/4.5.2/../../../libuser32.a(daois00572.o)
                0x00422548                _imp__SetWindowPos@28
 .idata$5       0x0042254c        0x4 d:/mingw/bin/../lib/gcc/mingw32/4.5.2/../../../libuser32.a(daois00585.o)
                0x0042254c                _imp__ShowWindow@8
 .idata$5       0x00422550        0x4 d:/mingw/bin/../lib/gcc/mingw32/4.5.2/../../../libuser32.a(daois00602.o)
                0x00422550                _imp__TrackPopupMenu@28
 .idata$5       0x00422554        0x4 d:/mingw/bin/../lib/gcc/mingw32/4.5.2/../../../libuser32.a(daois00608.o)
                0x00422554                _imp__TranslateMessage@4
 .idata$5       0x00422558        0x4 d:/mingw/bin/../lib/gcc/mingw32/4.5.2/../../../libuser32.a(daois00632.o)
                0x00422558                _imp__WinHelpA@16
 .idata$5       0x0042255c        0x4 d:/mingw/bin/../lib/gcc/mingw32/4.5.2/../../../libuser32.a(daoit.o)
                0x00422560                __IAT_end__ = .
 SORT(*)(.idata$6)
 .idata$6       0x00422560        0xa d:/mingw/bin/../lib/gcc/mingw32/4.5.2/../../../libadvapi32.a(dgxgs00083.o)
 .idata$6       0x0042256a        0xc d:/mingw/bin/../lib/gcc/mingw32/4.5.2/../../../libadvapi32.a(dgxgs00172.o)
 .idata$6       0x00422576       0x10 d:/mingw/bin/../lib/gcc/mingw32/4.5.2/../../../libadvapi32.a(dgxgs00196.o)
 .idata$6       0x00422586       0x10 d:/mingw/bin/../lib/gcc/mingw32/4.5.2/../../../libadvapi32.a(dgxgs00245.o)
 .idata$6       0x00422596        0xe d:/mingw/bin/../lib/gcc/mingw32/4.5.2/../../../libadvapi32.a(dgxgs00386.o)
 .idata$6       0x004225a4        0xe d:/mingw/bin/../lib/gcc/mingw32/4.5.2/../../../libadvapi32.a(dgxgs00400.o)
 .idata$6       0x004225b2        0xe d:/mingw/bin/../lib/gcc/mingw32/4.5.2/../../../libadvapi32.a(dgxgs00412.o)
 .idata$6       0x004225c0       0x14 d:/mingw/bin/../lib/gcc/mingw32/4.5.2/../../../libcomdlg32.a(demds00009.o)
 .idata$6       0x004225d4       0x14 d:/mingw/bin/../lib/gcc/mingw32/4.5.2/../../../libcomdlg32.a(demds00011.o)
 .idata$6       0x004225e8       0x12 d:/mingw/bin/../lib/gcc/mingw32/4.5.2/../../../libgdi32.a(dkfhs00201.o)
 .idata$6       0x004225fa       0x10 d:/mingw/bin/../lib/gcc/mingw32/4.5.2/../../../libkernel32.a(dchds00016.o)
 .idata$6       0x0042260a        0xe d:/mingw/bin/../lib/gcc/mingw32/4.5.2/../../../libkernel32.a(dchds00082.o)
 .idata$6       0x00422618       0x16 d:/mingw/bin/../lib/gcc/mingw32/4.5.2/../../../libkernel32.a(dchds00136.o)
 .idata$6       0x0042262e       0x18 d:/mingw/bin/../lib/gcc/mingw32/4.5.2/../../../libkernel32.a(dchds00207.o)
 .idata$6       0x00422646       0x18 d:/mingw/bin/../lib/gcc/mingw32/4.5.2/../../../libkernel32.a(dchds00236.o)
 .idata$6       0x0042265e        0xe d:/mingw/bin/../lib/gcc/mingw32/4.5.2/../../../libkernel32.a(dchds00279.o)
 .idata$6       0x0042266c        0xe d:/mingw/bin/../lib/gcc/mingw32/4.5.2/../../../libkernel32.a(dchds00352.o)
 .idata$6       0x0042267a       0x12 d:/mingw/bin/../lib/gcc/mingw32/4.5.2/../../../libkernel32.a(dchds00388.o)
 .idata$6       0x0042268c       0x18 d:/mingw/bin/../lib/gcc/mingw32/4.5.2/../../../libkernel32.a(dchds00444.o)
 .idata$6       0x004226a4       0x16 d:/mingw/bin/../lib/gcc/mingw32/4.5.2/../../../libkernel32.a(dchds00447.o)
 .idata$6       0x004226ba       0x16 d:/mingw/bin/../lib/gcc/mingw32/4.5.2/../../../libkernel32.a(dchds00451.o)
 .idata$6       0x004226d0       0x10 d:/mingw/bin/../lib/gcc/mingw32/4.5.2/../../../libkernel32.a(dchds00510.o)
 .idata$6       0x004226e0       0x16 d:/mingw/bin/../lib/gcc/mingw32/4.5.2/../../../libkernel32.a(dchds00527.o)
 .idata$6       0x004226f6       0x14 d:/mingw/bin/../lib/gcc/mingw32/4.5.2/../../../libkernel32.a(dchds00529.o)
 .idata$6       0x0042270a       0x12 d:/mingw/bin/../lib/gcc/mingw32/4.5.2/../../../libkernel32.a(dchds00577.o)
 .idata$6       0x0042271c       0x12 d:/mingw/bin/../lib/gcc/mingw32/4.5.2/../../../libkernel32.a(dchds00606.o)
 .idata$6       0x0042272e       0x10 d:/mingw/bin/../lib/gcc/mingw32/4.5.2/../../../libkernel32.a(dchds00608.o)
 .idata$6       0x0042273e       0x16 d:/mingw/bin/../lib/gcc/mingw32/4.5.2/../../../libkernel32.a(dchds00619.o)
 .idata$6       0x00422754       0x10 d:/mingw/bin/../lib/gcc/mingw32/4.5.2/../../../libkernel32.a(dchds00671.o)
 .idata$6       0x00422764       0x1c d:/mingw/bin/../lib/gcc/mingw32/4.5.2/../../../libkernel32.a(dchds00734.o)
 .idata$6       0x00422780       0x18 d:/mingw/bin/../lib/gcc/mingw32/4.5.2/../../../libkernel32.a(dchds00814.o)
 .idata$6       0x00422798       0x10 d:/mingw/bin/../lib/gcc/mingw32/4.5.2/../../../libkernel32.a(dchds00817.o)
 .idata$6       0x004227a8        0xe d:/mingw/bin/../lib/gcc/mingw32/4.5.2/../../../libkernel32.a(dchds00825.o)
 .idata$6       0x004227b6        0xc d:/mingw/bin/../lib/gcc/mingw32/4.5.2/../../../libkernel32.a(dchds00829.o)
 .idata$6       0x004227c2       0x10 d:/mingw/bin/../lib/gcc/mingw32/4.5.2/../../../libkernel32.a(dchds00844.o)
 .idata$6       0x004227d2       0x14 d:/mingw/bin/../lib/gcc/mingw32/4.5.2/../../../libkernel32.a(dchds00877.o)
 .idata$6       0x004227e6        0xe d:/mingw/bin/../lib/gcc/mingw32/4.5.2/../../../libkernel32.a(dchds00885.o)
 .idata$6       0x004227f4       0x18 d:/mingw/bin/../lib/gcc/mingw32/4.5.2/../../../libkernel32.a(dchds01052.o)
 .idata$6       0x0042280c       0x1e d:/mingw/bin/../lib/gcc/mingw32/4.5.2/../../../libkernel32.a(dchds01140.o)
 .idata$6       0x0042282a        0xe d:/mingw/bin/../lib/gcc/mingw32/4.5.2/../../../libkernel32.a(dchds01173.o)
 .idata$6       0x00422838       0x12 d:/mingw/bin/../lib/gcc/mingw32/4.5.2/../../../libkernel32.a(dchds01188.o)
 .idata$6       0x0042284a       0x12 d:/mingw/bin/../lib/gcc/mingw32/4.5.2/../../../libkernel32.a(dchds01213.o)
 .idata$6       0x0042285c       0x10 d:/mingw/bin/../lib/gcc/mingw32/4.5.2/../../../libkernel32.a(dchds01215.o)
 .idata$6       0x0042286c        0xc d:/mingw/bin/../lib/gcc/mingw32/4.5.2/../../../libkernel32.a(dchds01267.o)
 .idata$6       0x00422878       0x10 d:/mingw/bin/../lib/gcc/mingw32/4.5.2/../../../libmsvcrt.a(duyms00055.o)
 .idata$6       0x00422888       0x10 d:/mingw/bin/../lib/gcc/mingw32/4.5.2/../../../libmsvcrt.a(duyms00065.o)
 .idata$6       0x00422898       0x10 d:/mingw/bin/../lib/gcc/mingw32/4.5.2/../../../libmsvcrt.a(duyms00077.o)
 .idata$6       0x004228a8        0xe d:/mingw/bin/../lib/gcc/mingw32/4.5.2/../../../libmsvcrt.a(duyms00079.o)
 .idata$6       0x004228b6       0x12 d:/mingw/bin/../lib/gcc/mingw32/4.5.2/../../../libmsvcrt.a(duyms00099.o)
 .idata$6       0x004228c8        0xa d:/mingw/bin/../lib/gcc/mingw32/4.5.2/../../../libmsvcrt.a(duyms00137.o)
 .idata$6       0x004228d2        0xa d:/mingw/bin/../lib/gcc/mingw32/4.5.2/../../../libmsvcrt.a(duyms00147.o)
 .idata$6       0x004228dc        0x8 d:/mingw/bin/../lib/gcc/mingw32/4.5.2/../../../libmsvcrt.a(duyms00266.o)
 .idata$6       0x004228e4        0xc d:/mingw/bin/../lib/gcc/mingw32/4.5.2/../../../libmsvcrt.a(duyms00268.o)
 .idata$6       0x004228f0        0xa d:/mingw/bin/../lib/gcc/mingw32/4.5.2/../../../libmsvcrt.a(duyms00383.o)
 .idata$6       0x004228fa        0xa d:/mingw/bin/../lib/gcc/mingw32/4.5.2/../../../libmsvcrt.a(duyms00392.o)
 .idata$6       0x00422904        0xc d:/mingw/bin/../lib/gcc/mingw32/4.5.2/../../../libmsvcrt.a(duyms00426.o)
 .idata$6       0x00422910        0xe d:/mingw/bin/../lib/gcc/mingw32/4.5.2/../../../libmsvcrt.a(duyms00490.o)
 .idata$6       0x0042291e        0xc d:/mingw/bin/../lib/gcc/mingw32/4.5.2/../../../libmsvcrt.a(duyms00538.o)
 .idata$6       0x0042292a        0x8 d:/mingw/bin/../lib/gcc/mingw32/4.5.2/../../../libmsvcrt.a(duyms00583.o)
 .idata$6       0x00422932        0xa d:/mingw/bin/../lib/gcc/mingw32/4.5.2/../../../libmsvcrt.a(duyms00590.o)
 .idata$6       0x0042293c        0x8 d:/mingw/bin/../lib/gcc/mingw32/4.5.2/../../../libmsvcrt.a(duyms00592.o)
 .idata$6       0x00422944        0xa d:/mingw/bin/../lib/gcc/mingw32/4.5.2/../../../libmsvcrt.a(duyms00595.o)
 .idata$6       0x0042294e        0x8 d:/mingw/bin/../lib/gcc/mingw32/4.5.2/../../../libmsvcrt.a(duyms00604.o)
 .idata$6       0x00422956        0xa d:/mingw/bin/../lib/gcc/mingw32/4.5.2/../../../libmsvcrt.a(duyms00607.o)
 .idata$6       0x00422960        0xa d:/mingw/bin/../lib/gcc/mingw32/4.5.2/../../../libmsvcrt.a(duyms00610.o)
 .idata$6       0x0042296a        0x8 d:/mingw/bin/../lib/gcc/mingw32/4.5.2/../../../libmsvcrt.a(duyms00611.o)
 .idata$6       0x00422972        0x8 d:/mingw/bin/../lib/gcc/mingw32/4.5.2/../../../libmsvcrt.a(duyms00613.o)
 .idata$6       0x0042297a        0x8 d:/mingw/bin/../lib/gcc/mingw32/4.5.2/../../../libmsvcrt.a(duyms00618.o)
 .idata$6       0x00422982        0xa d:/mingw/bin/../lib/gcc/mingw32/4.5.2/../../../libmsvcrt.a(duyms00619.o)
 .idata$6       0x0042298c        0x8 d:/mingw/bin/../lib/gcc/mingw32/4.5.2/../../../libmsvcrt.a(duyms00620.o)
 .idata$6       0x00422994        0x8 d:/mingw/bin/../lib/gcc/mingw32/4.5.2/../../../libmsvcrt.a(duyms00621.o)
 .idata$6       0x0042299c        0x8 d:/mingw/bin/../lib/gcc/mingw32/4.5.2/../../../libmsvcrt.a(duyms00624.o)
 .idata$6       0x004229a4        0x8 d:/mingw/bin/../lib/gcc/mingw32/4.5.2/../../../libmsvcrt.a(duyms00625.o)
 .idata$6       0x004229ac        0xa d:/mingw/bin/../lib/gcc/mingw32/4.5.2/../../../libmsvcrt.a(duyms00633.o)
 .idata$6       0x004229b6        0xa d:/mingw/bin/../lib/gcc/mingw32/4.5.2/../../../libmsvcrt.a(duyms00637.o)
 .idata$6       0x004229c0        0xa d:/mingw/bin/../lib/gcc/mingw32/4.5.2/../../../libmsvcrt.a(duyms00676.o)
 .idata$6       0x004229ca        0xa d:/mingw/bin/../lib/gcc/mingw32/4.5.2/../../../libmsvcrt.a(duyms00681.o)
 .idata$6       0x004229d4        0xa d:/mingw/bin/../lib/gcc/mingw32/4.5.2/../../../libmsvcrt.a(duyms00682.o)
 .idata$6       0x004229de        0xa d:/mingw/bin/../lib/gcc/mingw32/4.5.2/../../../libmsvcrt.a(duyms00683.o)
 .idata$6       0x004229e8        0xa d:/mingw/bin/../lib/gcc/mingw32/4.5.2/../../../libmsvcrt.a(duyms00698.o)
 .idata$6       0x004229f2        0xa d:/mingw/bin/../lib/gcc/mingw32/4.5.2/../../../libmsvcrt.a(duyms00706.o)
 .idata$6       0x004229fc        0xa d:/mingw/bin/../lib/gcc/mingw32/4.5.2/../../../libmsvcrt.a(duyms00709.o)
 .idata$6       0x00422a06        0xa d:/mingw/bin/../lib/gcc/mingw32/4.5.2/../../../libmsvcrt.a(duyms00713.o)
 .idata$6       0x00422a10        0xa d:/mingw/bin/../lib/gcc/mingw32/4.5.2/../../../libmsvcrt.a(duyms00714.o)
 .idata$6       0x00422a1a        0xa d:/mingw/bin/../lib/gcc/mingw32/4.5.2/../../../libmsvcrt.a(duyms00715.o)
 .idata$6       0x00422a24        0xa d:/mingw/bin/../lib/gcc/mingw32/4.5.2/../../../libmsvcrt.a(duyms00717.o)
 .idata$6       0x00422a2e        0xa d:/mingw/bin/../lib/gcc/mingw32/4.5.2/../../../libmsvcrt.a(duyms00718.o)
 .idata$6       0x00422a38        0xa d:/mingw/bin/../lib/gcc/mingw32/4.5.2/../../../libmsvcrt.a(duyms00724.o)
 .idata$6       0x00422a42        0xa d:/mingw/bin/../lib/gcc/mingw32/4.5.2/../../../libmsvcrt.a(duyms00726.o)
 .idata$6       0x00422a4c        0xa d:/mingw/bin/../lib/gcc/mingw32/4.5.2/../../../libmsvcrt.a(duyms00731.o)
 .idata$6       0x00422a56        0xa d:/mingw/bin/../lib/gcc/mingw32/4.5.2/../../../libmsvcrt.a(duyms00732.o)
 .idata$6       0x00422a60        0xa d:/mingw/bin/../lib/gcc/mingw32/4.5.2/../../../libmsvcrt.a(duyms00746.o)
 .idata$6       0x00422a6a        0xc d:/mingw/bin/../lib/gcc/mingw32/4.5.2/../../../libmsvcrt.a(duyms00748.o)
 .idata$6       0x00422a76       0x10 d:/mingw/bin/../lib/gcc/mingw32/4.5.2/../../../libshell32.a(dukis00144.o)
 .idata$6       0x00422a86       0x14 d:/mingw/bin/../lib/gcc/mingw32/4.5.2/../../../libshell32.a(dukis00151.o)
 .idata$6       0x00422a9a        0xe d:/mingw/bin/../lib/gcc/mingw32/4.5.2/../../../libuser32.a(daois00006.o)
 .idata$6       0x00422aa8       0x16 d:/mingw/bin/../lib/gcc/mingw32/4.5.2/../../../libuser32.a(daois00080.o)
 .idata$6       0x00422abe        0xe d:/mingw/bin/../lib/gcc/mingw32/4.5.2/../../../libuser32.a(daois00088.o)
 .idata$6       0x00422acc       0x12 d:/mingw/bin/../lib/gcc/mingw32/4.5.2/../../../libuser32.a(daois00089.o)
 .idata$6       0x00422ade       0x12 d:/mingw/bin/../lib/gcc/mingw32/4.5.2/../../../libuser32.a(daois00090.o)
 .idata$6       0x00422af0       0x12 d:/mingw/bin/../lib/gcc/mingw32/4.5.2/../../../libuser32.a(daois00134.o)
 .idata$6       0x00422b02        0xe d:/mingw/bin/../lib/gcc/mingw32/4.5.2/../../../libuser32.a(daois00142.o)
 .idata$6       0x00422b10        0xe d:/mingw/bin/../lib/gcc/mingw32/4.5.2/../../../libuser32.a(daois00143.o)
 .idata$6       0x00422b1e       0x10 d:/mingw/bin/../lib/gcc/mingw32/4.5.2/../../../libuser32.a(daois00144.o)
 .idata$6       0x00422b2e       0x12 d:/mingw/bin/../lib/gcc/mingw32/4.5.2/../../../libuser32.a(daois00147.o)
 .idata$6       0x00422b40       0x14 d:/mingw/bin/../lib/gcc/mingw32/4.5.2/../../../libuser32.a(daois00149.o)
 .idata$6       0x00422b54       0x10 d:/mingw/bin/../lib/gcc/mingw32/4.5.2/../../../libuser32.a(daois00180.o)
 .idata$6       0x00422b64        0xc d:/mingw/bin/../lib/gcc/mingw32/4.5.2/../../../libuser32.a(daois00182.o)
 .idata$6       0x00422b70        0xe d:/mingw/bin/../lib/gcc/mingw32/4.5.2/../../../libuser32.a(daois00210.o)
 .idata$6       0x00422b7e       0x10 d:/mingw/bin/../lib/gcc/mingw32/4.5.2/../../../libuser32.a(daois00247.o)
 .idata$6       0x00422b8e       0x14 d:/mingw/bin/../lib/gcc/mingw32/4.5.2/../../../libuser32.a(daois00250.o)
 .idata$6       0x00422ba2        0xe d:/mingw/bin/../lib/gcc/mingw32/4.5.2/../../../libuser32.a(daois00253.o)
 .idata$6       0x00422bb0       0x12 d:/mingw/bin/../lib/gcc/mingw32/4.5.2/../../../libuser32.a(daois00255.o)
 .idata$6       0x00422bc2       0x16 d:/mingw/bin/../lib/gcc/mingw32/4.5.2/../../../libuser32.a(daois00283.o)
 .idata$6       0x00422bd8       0x14 d:/mingw/bin/../lib/gcc/mingw32/4.5.2/../../../libuser32.a(daois00285.o)
 .idata$6       0x00422bec       0x14 d:/mingw/bin/../lib/gcc/mingw32/4.5.2/../../../libuser32.a(daois00287.o)
 .idata$6       0x00422c00        0xe d:/mingw/bin/../lib/gcc/mingw32/4.5.2/../../../libuser32.a(daois00293.o)
 .idata$6       0x00422c0e       0x12 d:/mingw/bin/../lib/gcc/mingw32/4.5.2/../../../libuser32.a(daois00342.o)
 .idata$6       0x00422c20       0x10 d:/mingw/bin/../lib/gcc/mingw32/4.5.2/../../../libuser32.a(daois00348.o)
 .idata$6       0x00422c30       0x12 d:/mingw/bin/../lib/gcc/mingw32/4.5.2/../../../libuser32.a(daois00365.o)
 .idata$6       0x00422c42       0x14 d:/mingw/bin/../lib/gcc/mingw32/4.5.2/../../../libuser32.a(daois00384.o)
 .idata$6       0x00422c56        0xc d:/mingw/bin/../lib/gcc/mingw32/4.5.2/../../../libuser32.a(daois00394.o)
 .idata$6       0x00422c62        0xe d:/mingw/bin/../lib/gcc/mingw32/4.5.2/../../../libuser32.a(daois00405.o)
 .idata$6       0x00422c70        0xc d:/mingw/bin/../lib/gcc/mingw32/4.5.2/../../../libuser32.a(daois00409.o)
 .idata$6       0x00422c7c        0xe d:/mingw/bin/../lib/gcc/mingw32/4.5.2/../../../libuser32.a(daois00433.o)
 .idata$6       0x00422c8a        0xe d:/mingw/bin/../lib/gcc/mingw32/4.5.2/../../../libuser32.a(daois00434.o)
 .idata$6       0x00422c98       0x16 d:/mingw/bin/../lib/gcc/mingw32/4.5.2/../../../libuser32.a(daois00437.o)
 .idata$6       0x00422cae        0xe d:/mingw/bin/../lib/gcc/mingw32/4.5.2/../../../libuser32.a(daois00445.o)
 .idata$6       0x00422cbc       0x10 d:/mingw/bin/../lib/gcc/mingw32/4.5.2/../../../libuser32.a(daois00466.o)
 .idata$6       0x00422ccc       0x12 d:/mingw/bin/../lib/gcc/mingw32/4.5.2/../../../libuser32.a(daois00468.o)
 .idata$6       0x00422cde       0x12 d:/mingw/bin/../lib/gcc/mingw32/4.5.2/../../../libuser32.a(daois00479.o)
 .idata$6       0x00422cf0       0x1a d:/mingw/bin/../lib/gcc/mingw32/4.5.2/../../../libuser32.a(daois00491.o)
 .idata$6       0x00422d0a        0xe d:/mingw/bin/../lib/gcc/mingw32/4.5.2/../../../libuser32.a(daois00495.o)
 .idata$6       0x00422d18       0x16 d:/mingw/bin/../lib/gcc/mingw32/4.5.2/../../../libuser32.a(daois00505.o)
 .idata$6       0x00422d2e       0x10 d:/mingw/bin/../lib/gcc/mingw32/4.5.2/../../../libuser32.a(daois00508.o)
 .idata$6       0x00422d3e       0x12 d:/mingw/bin/../lib/gcc/mingw32/4.5.2/../../../libuser32.a(daois00516.o)
 .idata$6       0x00422d50       0x12 d:/mingw/bin/../lib/gcc/mingw32/4.5.2/../../../libuser32.a(daois00530.o)
 .idata$6       0x00422d62       0x16 d:/mingw/bin/../lib/gcc/mingw32/4.5.2/../../../libuser32.a(daois00534.o)
 .idata$6       0x00422d78       0x16 d:/mingw/bin/../lib/gcc/mingw32/4.5.2/../../../libuser32.a(daois00540.o)
 .idata$6       0x00422d8e       0x12 d:/mingw/bin/../lib/gcc/mingw32/4.5.2/../../../libuser32.a(daois00569.o)
 .idata$6       0x00422da0       0x10 d:/mingw/bin/../lib/gcc/mingw32/4.5.2/../../../libuser32.a(daois00572.o)
 .idata$6       0x00422db0        0xe d:/mingw/bin/../lib/gcc/mingw32/4.5.2/../../../libuser32.a(daois00585.o)
 .idata$6       0x00422dbe       0x12 d:/mingw/bin/../lib/gcc/mingw32/4.5.2/../../../libuser32.a(daois00602.o)
 .idata$6       0x00422dd0       0x14 d:/mingw/bin/../lib/gcc/mingw32/4.5.2/../../../libuser32.a(daois00608.o)
 .idata$6       0x00422de4        0xc d:/mingw/bin/../lib/gcc/mingw32/4.5.2/../../../libuser32.a(daois00632.o)
 SORT(*)(.idata$7)
 .idata$7       0x00422df0        0x4 d:/mingw/bin/../lib/gcc/mingw32/4.5.2/../../../libadvapi32.a(dgxgs00083.o)
 .idata$7       0x00422df4        0x4 d:/mingw/bin/../lib/gcc/mingw32/4.5.2/../../../libadvapi32.a(dgxgs00172.o)
 .idata$7       0x00422df8        0x4 d:/mingw/bin/../lib/gcc/mingw32/4.5.2/../../../libadvapi32.a(dgxgs00196.o)
 .idata$7       0x00422dfc        0x4 d:/mingw/bin/../lib/gcc/mingw32/4.5.2/../../../libadvapi32.a(dgxgs00245.o)
 .idata$7       0x00422e00        0x4 d:/mingw/bin/../lib/gcc/mingw32/4.5.2/../../../libadvapi32.a(dgxgs00386.o)
 .idata$7       0x00422e04        0x4 d:/mingw/bin/../lib/gcc/mingw32/4.5.2/../../../libadvapi32.a(dgxgs00400.o)
 .idata$7       0x00422e08        0x4 d:/mingw/bin/../lib/gcc/mingw32/4.5.2/../../../libadvapi32.a(dgxgs00412.o)
 .idata$7       0x00422e0c       0x10 d:/mingw/bin/../lib/gcc/mingw32/4.5.2/../../../libadvapi32.a(dgxgt.o)
                0x00422e0c                _libadvapi32_a_iname
 .idata$7       0x00422e1c        0x4 d:/mingw/bin/../lib/gcc/mingw32/4.5.2/../../../libcomdlg32.a(demds00009.o)
 .idata$7       0x00422e20        0x4 d:/mingw/bin/../lib/gcc/mingw32/4.5.2/../../../libcomdlg32.a(demds00011.o)
 .idata$7       0x00422e24       0x10 d:/mingw/bin/../lib/gcc/mingw32/4.5.2/../../../libcomdlg32.a(demdt.o)
                0x00422e24                _libcomdlg32_a_iname
 .idata$7       0x00422e34        0x4 d:/mingw/bin/../lib/gcc/mingw32/4.5.2/../../../libgdi32.a(dkfhs00201.o)
 .idata$7       0x00422e38        0xc d:/mingw/bin/../lib/gcc/mingw32/4.5.2/../../../libgdi32.a(dkfht.o)
                0x00422e38                _libgdi32_a_iname
 .idata$7       0x00422e44        0x4 d:/mingw/bin/../lib/gcc/mingw32/4.5.2/../../../libkernel32.a(dchds00016.o)
 .idata$7       0x00422e48        0x4 d:/mingw/bin/../lib/gcc/mingw32/4.5.2/../../../libkernel32.a(dchds00082.o)
 .idata$7       0x00422e4c        0x4 d:/mingw/bin/../lib/gcc/mingw32/4.5.2/../../../libkernel32.a(dchds00136.o)
 .idata$7       0x00422e50        0x4 d:/mingw/bin/../lib/gcc/mingw32/4.5.2/../../../libkernel32.a(dchds00207.o)
 .idata$7       0x00422e54        0x4 d:/mingw/bin/../lib/gcc/mingw32/4.5.2/../../../libkernel32.a(dchds00236.o)
 .idata$7       0x00422e58        0x4 d:/mingw/bin/../lib/gcc/mingw32/4.5.2/../../../libkernel32.a(dchds00279.o)
 .idata$7       0x00422e5c        0x4 d:/mingw/bin/../lib/gcc/mingw32/4.5.2/../../../libkernel32.a(dchds00352.o)
 .idata$7       0x00422e60        0x4 d:/mingw/bin/../lib/gcc/mingw32/4.5.2/../../../libkernel32.a(dchds00388.o)
 .idata$7       0x00422e64        0x4 d:/mingw/bin/../lib/gcc/mingw32/4.5.2/../../../libkernel32.a(dchds00444.o)
 .idata$7       0x00422e68        0x4 d:/mingw/bin/../lib/gcc/mingw32/4.5.2/../../../libkernel32.a(dchds00447.o)
 .idata$7       0x00422e6c        0x4 d:/mingw/bin/../lib/gcc/mingw32/4.5.2/../../../libkernel32.a(dchds00451.o)
 .idata$7       0x00422e70        0x4 d:/mingw/bin/../lib/gcc/mingw32/4.5.2/../../../libkernel32.a(dchds00510.o)
 .idata$7       0x00422e74        0x4 d:/mingw/bin/../lib/gcc/mingw32/4.5.2/../../../libkernel32.a(dchds00527.o)
 .idata$7       0x00422e78        0x4 d:/mingw/bin/../lib/gcc/mingw32/4.5.2/../../../libkernel32.a(dchds00529.o)
 .idata$7       0x00422e7c        0x4 d:/mingw/bin/../lib/gcc/mingw32/4.5.2/../../../libkernel32.a(dchds00577.o)
 .idata$7       0x00422e80        0x4 d:/mingw/bin/../lib/gcc/mingw32/4.5.2/../../../libkernel32.a(dchds00606.o)
 .idata$7       0x00422e84        0x4 d:/mingw/bin/../lib/gcc/mingw32/4.5.2/../../../libkernel32.a(dchds00608.o)
 .idata$7       0x00422e88        0x4 d:/mingw/bin/../lib/gcc/mingw32/4.5.2/../../../libkernel32.a(dchds00619.o)
 .idata$7       0x00422e8c        0x4 d:/mingw/bin/../lib/gcc/mingw32/4.5.2/../../../libkernel32.a(dchds00671.o)
 .idata$7       0x00422e90        0x4 d:/mingw/bin/../lib/gcc/mingw32/4.5.2/../../../libkernel32.a(dchds00734.o)
 .idata$7       0x00422e94        0x4 d:/mingw/bin/../lib/gcc/mingw32/4.5.2/../../../libkernel32.a(dchds00814.o)
 .idata$7       0x00422e98        0x4 d:/mingw/bin/../lib/gcc/mingw32/4.5.2/../../../libkernel32.a(dchds00817.o)
 .idata$7       0x00422e9c        0x4 d:/mingw/bin/../lib/gcc/mingw32/4.5.2/../../../libkernel32.a(dchds00825.o)
 .idata$7       0x00422ea0        0x4 d:/mingw/bin/../lib/gcc/mingw32/4.5.2/../../../libkernel32.a(dchds00829.o)
 .idata$7       0x00422ea4        0x4 d:/mingw/bin/../lib/gcc/mingw32/4.5.2/../../../libkernel32.a(dchds00844.o)
 .idata$7       0x00422ea8        0x4 d:/mingw/bin/../lib/gcc/mingw32/4.5.2/../../../libkernel32.a(dchds00877.o)
 .idata$7       0x00422eac        0x4 d:/mingw/bin/../lib/gcc/mingw32/4.5.2/../../../libkernel32.a(dchds00885.o)
 .idata$7       0x00422eb0        0x4 d:/mingw/bin/../lib/gcc/mingw32/4.5.2/../../../libkernel32.a(dchds01052.o)
 .idata$7       0x00422eb4        0x4 d:/mingw/bin/../lib/gcc/mingw32/4.5.2/../../../libkernel32.a(dchds01140.o)
 .idata$7       0x00422eb8        0x4 d:/mingw/bin/../lib/gcc/mingw32/4.5.2/../../../libkernel32.a(dchds01173.o)
 .idata$7       0x00422ebc        0x4 d:/mingw/bin/../lib/gcc/mingw32/4.5.2/../../../libkernel32.a(dchds01188.o)
 .idata$7       0x00422ec0        0x4 d:/mingw/bin/../lib/gcc/mingw32/4.5.2/../../../libkernel32.a(dchds01213.o)
 .idata$7       0x00422ec4        0x4 d:/mingw/bin/../lib/gcc/mingw32/4.5.2/../../../libkernel32.a(dchds01215.o)
 .idata$7       0x00422ec8        0x4 d:/mingw/bin/../lib/gcc/mingw32/4.5.2/../../../libkernel32.a(dchds01267.o)
 .idata$7       0x00422ecc       0x10 d:/mingw/bin/../lib/gcc/mingw32/4.5.2/../../../libkernel32.a(dchdt.o)
                0x00422ecc                _libkernel32_a_iname
 .idata$7       0x00422edc        0x4 d:/mingw/bin/../lib/gcc/mingw32/4.5.2/../../../libmsvcrt.a(duyms00055.o)
 .idata$7       0x00422ee0        0x4 d:/mingw/bin/../lib/gcc/mingw32/4.5.2/../../../libmsvcrt.a(duyms00065.o)
 .idata$7       0x00422ee4        0x4 d:/mingw/bin/../lib/gcc/mingw32/4.5.2/../../../libmsvcrt.a(duyms00077.o)
 .idata$7       0x00422ee8        0x4 d:/mingw/bin/../lib/gcc/mingw32/4.5.2/../../../libmsvcrt.a(duyms00079.o)
 .idata$7       0x00422eec        0x4 d:/mingw/bin/../lib/gcc/mingw32/4.5.2/../../../libmsvcrt.a(duyms00099.o)
 .idata$7       0x00422ef0        0x4 d:/mingw/bin/../lib/gcc/mingw32/4.5.2/../../../libmsvcrt.a(duyms00137.o)
 .idata$7       0x00422ef4        0x4 d:/mingw/bin/../lib/gcc/mingw32/4.5.2/../../../libmsvcrt.a(duyms00147.o)
 .idata$7       0x00422ef8        0x4 d:/mingw/bin/../lib/gcc/mingw32/4.5.2/../../../libmsvcrt.a(duyms00266.o)
 .idata$7       0x00422efc        0x4 d:/mingw/bin/../lib/gcc/mingw32/4.5.2/../../../libmsvcrt.a(duyms00268.o)
 .idata$7       0x00422f00        0x4 d:/mingw/bin/../lib/gcc/mingw32/4.5.2/../../../libmsvcrt.a(duyms00383.o)
 .idata$7       0x00422f04        0x4 d:/mingw/bin/../lib/gcc/mingw32/4.5.2/../../../libmsvcrt.a(duyms00392.o)
 .idata$7       0x00422f08        0x4 d:/mingw/bin/../lib/gcc/mingw32/4.5.2/../../../libmsvcrt.a(duyms00426.o)
 .idata$7       0x00422f0c        0x4 d:/mingw/bin/../lib/gcc/mingw32/4.5.2/../../../libmsvcrt.a(duyms00490.o)
 .idata$7       0x00422f10        0x4 d:/mingw/bin/../lib/gcc/mingw32/4.5.2/../../../libmsvcrt.a(duyms00538.o)
 .idata$7       0x00422f14        0x4 d:/mingw/bin/../lib/gcc/mingw32/4.5.2/../../../libmsvcrt.a(duyms00583.o)
 .idata$7       0x00422f18        0x4 d:/mingw/bin/../lib/gcc/mingw32/4.5.2/../../../libmsvcrt.a(duyms00590.o)
 .idata$7       0x00422f1c        0x4 d:/mingw/bin/../lib/gcc/mingw32/4.5.2/../../../libmsvcrt.a(duyms00592.o)
 .idata$7       0x00422f20        0x4 d:/mingw/bin/../lib/gcc/mingw32/4.5.2/../../../libmsvcrt.a(duyms00595.o)
 .idata$7       0x00422f24        0x4 d:/mingw/bin/../lib/gcc/mingw32/4.5.2/../../../libmsvcrt.a(duyms00604.o)
 .idata$7       0x00422f28        0x4 d:/mingw/bin/../lib/gcc/mingw32/4.5.2/../../../libmsvcrt.a(duyms00607.o)
 .idata$7       0x00422f2c        0x4 d:/mingw/bin/../lib/gcc/mingw32/4.5.2/../../../libmsvcrt.a(duyms00610.o)
 .idata$7       0x00422f30        0x4 d:/mingw/bin/../lib/gcc/mingw32/4.5.2/../../../libmsvcrt.a(duyms00611.o)
 .idata$7       0x00422f34        0x4 d:/mingw/bin/../lib/gcc/mingw32/4.5.2/../../../libmsvcrt.a(duyms00613.o)
 .idata$7       0x00422f38        0x4 d:/mingw/bin/../lib/gcc/mingw32/4.5.2/../../../libmsvcrt.a(duyms00618.o)
 .idata$7       0x00422f3c        0x4 d:/mingw/bin/../lib/gcc/mingw32/4.5.2/../../../libmsvcrt.a(duyms00619.o)
 .idata$7       0x00422f40        0x4 d:/mingw/bin/../lib/gcc/mingw32/4.5.2/../../../libmsvcrt.a(duyms00620.o)
 .idata$7       0x00422f44        0x4 d:/mingw/bin/../lib/gcc/mingw32/4.5.2/../../../libmsvcrt.a(duyms00621.o)
 .idata$7       0x00422f48        0x4 d:/mingw/bin/../lib/gcc/mingw32/4.5.2/../../../libmsvcrt.a(duyms00624.o)
 .idata$7       0x00422f4c        0x4 d:/mingw/bin/../lib/gcc/mingw32/4.5.2/../../../libmsvcrt.a(duyms00625.o)
 .idata$7       0x00422f50        0x4 d:/mingw/bin/../lib/gcc/mingw32/4.5.2/../../../libmsvcrt.a(duyms00633.o)
 .idata$7       0x00422f54        0x4 d:/mingw/bin/../lib/gcc/mingw32/4.5.2/../../../libmsvcrt.a(duyms00637.o)
 .idata$7       0x00422f58        0x4 d:/mingw/bin/../lib/gcc/mingw32/4.5.2/../../../libmsvcrt.a(duyms00676.o)
 .idata$7       0x00422f5c        0x4 d:/mingw/bin/../lib/gcc/mingw32/4.5.2/../../../libmsvcrt.a(duyms00681.o)
 .idata$7       0x00422f60        0x4 d:/mingw/bin/../lib/gcc/mingw32/4.5.2/../../../libmsvcrt.a(duyms00682.o)
 .idata$7       0x00422f64        0x4 d:/mingw/bin/../lib/gcc/mingw32/4.5.2/../../../libmsvcrt.a(duyms00683.o)
 .idata$7       0x00422f68        0x4 d:/mingw/bin/../lib/gcc/mingw32/4.5.2/../../../libmsvcrt.a(duyms00698.o)
 .idata$7       0x00422f6c        0x4 d:/mingw/bin/../lib/gcc/mingw32/4.5.2/../../../libmsvcrt.a(duyms00706.o)
 .idata$7       0x00422f70        0x4 d:/mingw/bin/../lib/gcc/mingw32/4.5.2/../../../libmsvcrt.a(duyms00709.o)
 .idata$7       0x00422f74        0x4 d:/mingw/bin/../lib/gcc/mingw32/4.5.2/../../../libmsvcrt.a(duyms00713.o)
 .idata$7       0x00422f78        0x4 d:/mingw/bin/../lib/gcc/mingw32/4.5.2/../../../libmsvcrt.a(duyms00714.o)
 .idata$7       0x00422f7c        0x4 d:/mingw/bin/../lib/gcc/mingw32/4.5.2/../../../libmsvcrt.a(duyms00715.o)
 .idata$7       0x00422f80        0x4 d:/mingw/bin/../lib/gcc/mingw32/4.5.2/../../../libmsvcrt.a(duyms00717.o)
 .idata$7       0x00422f84        0x4 d:/mingw/bin/../lib/gcc/mingw32/4.5.2/../../../libmsvcrt.a(duyms00718.o)
 .idata$7       0x00422f88        0x4 d:/mingw/bin/../lib/gcc/mingw32/4.5.2/../../../libmsvcrt.a(duyms00724.o)
 .idata$7       0x00422f8c        0x4 d:/mingw/bin/../lib/gcc/mingw32/4.5.2/../../../libmsvcrt.a(duyms00726.o)
 .idata$7       0x00422f90        0x4 d:/mingw/bin/../lib/gcc/mingw32/4.5.2/../../../libmsvcrt.a(duyms00731.o)
 .idata$7       0x00422f94        0x4 d:/mingw/bin/../lib/gcc/mingw32/4.5.2/../../../libmsvcrt.a(duyms00732.o)
 .idata$7       0x00422f98        0x4 d:/mingw/bin/../lib/gcc/mingw32/4.5.2/../../../libmsvcrt.a(duyms00746.o)
 .idata$7       0x00422f9c        0x4 d:/mingw/bin/../lib/gcc/mingw32/4.5.2/../../../libmsvcrt.a(duyms00748.o)
 .idata$7       0x00422fa0        0xc d:/mingw/bin/../lib/gcc/mingw32/4.5.2/../../../libmsvcrt.a(duymt.o)
                0x00422fa0                _libmsvcrt_a_iname
 .idata$7       0x00422fac        0x4 d:/mingw/bin/../lib/gcc/mingw32/4.5.2/../../../libshell32.a(dukis00144.o)
 .idata$7       0x00422fb0        0x4 d:/mingw/bin/../lib/gcc/mingw32/4.5.2/../../../libshell32.a(dukis00151.o)
 .idata$7       0x00422fb4        0xc d:/mingw/bin/../lib/gcc/mingw32/4.5.2/../../../libshell32.a(dukit.o)
                0x00422fb4                _libshell32_a_iname
 .idata$7       0x00422fc0        0x4 d:/mingw/bin/../lib/gcc/mingw32/4.5.2/../../../libuser32.a(daois00006.o)
 .idata$7       0x00422fc4        0x4 d:/mingw/bin/../lib/gcc/mingw32/4.5.2/../../../libuser32.a(daois00080.o)
 .idata$7       0x00422fc8        0x4 d:/mingw/bin/../lib/gcc/mingw32/4.5.2/../../../libuser32.a(daois00088.o)
 .idata$7       0x00422fcc        0x4 d:/mingw/bin/../lib/gcc/mingw32/4.5.2/../../../libuser32.a(daois00089.o)
 .idata$7       0x00422fd0        0x4 d:/mingw/bin/../lib/gcc/mingw32/4.5.2/../../../libuser32.a(daois00090.o)
 .idata$7       0x00422fd4        0x4 d:/mingw/bin/../lib/gcc/mingw32/4.5.2/../../../libuser32.a(daois00134.o)
 .idata$7       0x00422fd8        0x4 d:/mingw/bin/../lib/gcc/mingw32/4.5.2/../../../libuser32.a(daois00142.o)
 .idata$7       0x00422fdc        0x4 d:/mingw/bin/../lib/gcc/mingw32/4.5.2/../../../libuser32.a(daois00143.o)
 .idata$7       0x00422fe0        0x4 d:/mingw/bin/../lib/gcc/mingw32/4.5.2/../../../libuser32.a(daois00144.o)
 .idata$7       0x00422fe4        0x4 d:/mingw/bin/../lib/gcc/mingw32/4.5.2/../../../libuser32.a(daois00147.o)
 .idata$7       0x00422fe8        0x4 d:/mingw/bin/../lib/gcc/mingw32/4.5.2/../../../libuser32.a(daois00149.o)
 .idata$7       0x00422fec        0x4 d:/mingw/bin/../lib/gcc/mingw32/4.5.2/../../../libuser32.a(daois00180.o)
 .idata$7       0x00422ff0        0x4 d:/mingw/bin/../lib/gcc/mingw32/4.5.2/../../../libuser32.a(daois00182.o)
 .idata$7       0x00422ff4        0x4 d:/mingw/bin/../lib/gcc/mingw32/4.5.2/../../../libuser32.a(daois00210.o)
 .idata$7       0x00422ff8        0x4 d:/mingw/bin/../lib/gcc/mingw32/4.5.2/../../../libuser32.a(daois00247.o)
 .idata$7       0x00422ffc        0x4 d:/mingw/bin/../lib/gcc/mingw32/4.5.2/../../../libuser32.a(daois00250.o)
 .idata$7       0x00423000        0x4 d:/mingw/bin/../lib/gcc/mingw32/4.5.2/../../../libuser32.a(daois00253.o)
 .idata$7       0x00423004        0x4 d:/mingw/bin/../lib/gcc/mingw32/4.5.2/../../../libuser32.a(daois00255.o)
 .idata$7       0x00423008        0x4 d:/mingw/bin/../lib/gcc/mingw32/4.5.2/../../../libuser32.a(daois00283.o)
 .idata$7       0x0042300c        0x4 d:/mingw/bin/../lib/gcc/mingw32/4.5.2/../../../libuser32.a(daois00285.o)
 .idata$7       0x00423010        0x4 d:/mingw/bin/../lib/gcc/mingw32/4.5.2/../../../libuser32.a(daois00287.o)
 .idata$7       0x00423014        0x4 d:/mingw/bin/../lib/gcc/mingw32/4.5.2/../../../libuser32.a(daois00293.o)
 .idata$7       0x00423018        0x4 d:/mingw/bin/../lib/gcc/mingw32/4.5.2/../../../libuser32.a(daois00342.o)
 .idata$7       0x0042301c        0x4 d:/mingw/bin/../lib/gcc/mingw32/4.5.2/../../../libuser32.a(daois00348.o)
 .idata$7       0x00423020        0x4 d:/mingw/bin/../lib/gcc/mingw32/4.5.2/../../../libuser32.a(daois00365.o)
 .idata$7       0x00423024        0x4 d:/mingw/bin/../lib/gcc/mingw32/4.5.2/../../../libuser32.a(daois00384.o)
 .idata$7       0x00423028        0x4 d:/mingw/bin/../lib/gcc/mingw32/4.5.2/../../../libuser32.a(daois00394.o)
 .idata$7       0x0042302c        0x4 d:/mingw/bin/../lib/gcc/mingw32/4.5.2/../../../libuser32.a(daois00405.o)
 .idata$7       0x00423030        0x4 d:/mingw/bin/../lib/gcc/mingw32/4.5.2/../../../libuser32.a(daois00409.o)
 .idata$7       0x00423034        0x4 d:/mingw/bin/../lib/gcc/mingw32/4.5.2/../../../libuser32.a(daois00433.o)
 .idata$7       0x00423038        0x4 d:/mingw/bin/../lib/gcc/mingw32/4.5.2/../../../libuser32.a(daois00434.o)
 .idata$7       0x0042303c        0x4 d:/mingw/bin/../lib/gcc/mingw32/4.5.2/../../../libuser32.a(daois00437.o)
 .idata$7       0x00423040        0x4 d:/mingw/bin/../lib/gcc/mingw32/4.5.2/../../../libuser32.a(daois00445.o)
 .idata$7       0x00423044        0x4 d:/mingw/bin/../lib/gcc/mingw32/4.5.2/../../../libuser32.a(daois00466.o)
 .idata$7       0x00423048        0x4 d:/mingw/bin/../lib/gcc/mingw32/4.5.2/../../../libuser32.a(daois00468.o)
 .idata$7       0x0042304c        0x4 d:/mingw/bin/../lib/gcc/mingw32/4.5.2/../../../libuser32.a(daois00479.o)
 .idata$7       0x00423050        0x4 d:/mingw/bin/../lib/gcc/mingw32/4.5.2/../../../libuser32.a(daois00491.o)
 .idata$7       0x00423054        0x4 d:/mingw/bin/../lib/gcc/mingw32/4.5.2/../../../libuser32.a(daois00495.o)
 .idata$7       0x00423058        0x4 d:/mingw/bin/../lib/gcc/mingw32/4.5.2/../../../libuser32.a(daois00505.o)
 .idata$7       0x0042305c        0x4 d:/mingw/bin/../lib/gcc/mingw32/4.5.2/../../../libuser32.a(daois00508.o)
 .idata$7       0x00423060        0x4 d:/mingw/bin/../lib/gcc/mingw32/4.5.2/../../../libuser32.a(daois00516.o)
 .idata$7       0x00423064        0x4 d:/mingw/bin/../lib/gcc/mingw32/4.5.2/../../../libuser32.a(daois00530.o)
 .idata$7       0x00423068        0x4 d:/mingw/bin/../lib/gcc/mingw32/4.5.2/../../../libuser32.a(daois00534.o)
 .idata$7       0x0042306c        0x4 d:/mingw/bin/../lib/gcc/mingw32/4.5.2/../../../libuser32.a(daois00540.o)
 .idata$7       0x00423070        0x4 d:/mingw/bin/../lib/gcc/mingw32/4.5.2/../../../libuser32.a(daois00569.o)
 .idata$7       0x00423074        0x4 d:/mingw/bin/../lib/gcc/mingw32/4.5.2/../../../libuser32.a(daois00572.o)
 .idata$7       0x00423078        0x4 d:/mingw/bin/../lib/gcc/mingw32/4.5.2/../../../libuser32.a(daois00585.o)
 .idata$7       0x0042307c        0x4 d:/mingw/bin/../lib/gcc/mingw32/4.5.2/../../../libuser32.a(daois00602.o)
 .idata$7       0x00423080        0x4 d:/mingw/bin/../lib/gcc/mingw32/4.5.2/../../../libuser32.a(daois00608.o)
 .idata$7       0x00423084        0x4 d:/mingw/bin/../lib/gcc/mingw32/4.5.2/../../../libuser32.a(daois00632.o)
 .idata$7       0x00423088        0xc d:/mingw/bin/../lib/gcc/mingw32/4.5.2/../../../libuser32.a(daoit.o)
                0x00423088                _libuser32_a_iname

.CRT            0x00424000      0x200
                0x00424000                ___crt_xc_start__ = .
 *(SORT(.CRT$XC*))
                0x00424000                ___crt_xc_end__ = .
                0x00424000                ___crt_xi_start__ = .
 *(SORT(.CRT$XI*))
                0x00424000                ___crt_xi_end__ = .
                0x00424000                ___crt_xl_start__ = .
 *(SORT(.CRT$XL*))
 .CRT$XLA       0x00424000        0x4 d:/mingw/bin/../lib/gcc/mingw32/4.5.2/../../../libmingw32.a(tlssup.o)
                0x00424000                __xl_a
 .CRT$XLC       0x00424004        0x4 d:/mingw/bin/../lib/gcc/mingw32/4.5.2/../../../libmingw32.a(tlssup.o)
                0x00424004                __xl_c
 .CRT$XLD       0x00424008        0x4 d:/mingw/bin/../lib/gcc/mingw32/4.5.2/../../../libmingw32.a(tlssup.o)
                0x00424008                __xl_d
 .CRT$XLZ       0x0042400c        0x4 d:/mingw/bin/../lib/gcc/mingw32/4.5.2/../../../libmingw32.a(tlssup.o)
                0x0042400c                __xl_z
                0x00424010                ___crt_xp_start__ = .
 *(SORT(.CRT$XP*))
                0x00424010                ___crt_xp_end__ = .
                0x00424010                ___crt_xt_start__ = .
 *(SORT(.CRT$XT*))
                0x00424010                ___crt_xt_end__ = .
 .CRT$XDA       0x00424010        0x4 d:/mingw/bin/../lib/gcc/mingw32/4.5.2/../../../libmingw32.a(tlssup.o)
 .CRT$XDZ       0x00424014        0x4 d:/mingw/bin/../lib/gcc/mingw32/4.5.2/../../../libmingw32.a(tlssup.o)

.tls            0x00425000      0x200
                0x00425000                ___tls_start__ = .
 *(.tls)
 .tls           0x00425000       0x18 d:/mingw/bin/../lib/gcc/mingw32/4.5.2/../../../libmingw32.a(tlssup.o)
                0x00425000                _tls_used
 *(.tls$)
 *(SORT(.tls$*))
 .tls$AAA       0x00425018        0x4 d:/mingw/bin/../lib/gcc/mingw32/4.5.2/../../../libmingw32.a(tlssup.o)
                0x00425018                _tls_start
 .tls$ZZZ       0x0042501c        0x4 d:/mingw/bin/../lib/gcc/mingw32/4.5.2/../../../libmingw32.a(tlssup.o)
                0x0042501c                _tls_end
                0x00425020                ___tls_end__ = .

.endjunk        0x00426000        0x0
                0x00426000                PROVIDE (end, .)
                0x00426000                PROVIDE (_end, .)
                0x00426000                __end__ = .

.rsrc           0x00426000     0x3000
 *(.rsrc)
 .rsrc          0x00426000     0x2e34 pageant.res.o
 *(SORT(.rsrc$*))

.reloc
 *(.reloc)

.stab
 *(.stab)

.stabstr
 *(.stabstr)

.debug_aranges
 *(.debug_aranges)

.debug_pubnames
 *(.debug_pubnames)

.debug_pubtypes
 *(.debug_pubtypes)

.debug_info
 *(.debug_info)
 *(.gnu.linkonce.wi.*)

.debug_abbrev
 *(.debug_abbrev)

.debug_line
 *(.debug_line)

.debug_frame
 *(.debug_frame*)

.debug_str
 *(.debug_str)

.debug_loc
 *(.debug_loc)

.debug_macinfo
 *(.debug_macinfo)

.debug_weaknames
 *(.debug_weaknames)

.debug_funcnames
 *(.debug_funcnames)

.debug_typenames
 *(.debug_typenames)

.debug_varnames
 *(.debug_varnames)

.debug_ranges
 *(.debug_ranges)

.debug_types
 *(.debug_types)
 *(.gnu.linkonce.wt.*)
OUTPUT(pageant.exe pei-i386)
