Archive member included because of file (symbol)

d:/mingw/bin/../lib/gcc/mingw32/4.5.2/../../../libadvapi32.a(dgxgs00412.o)
                              wingss.o (RegOpenKeyA@12)
d:/mingw/bin/../lib/gcc/mingw32/4.5.2/../../../libadvapi32.a(dgxgs00423.o)
                              wingss.o (RegQueryValueExA@24)
d:/mingw/bin/../lib/gcc/mingw32/4.5.2/../../../libadvapi32.a(dgxgs00386.o)
                              wingss.o (RegCloseKey@4)
d:/mingw/bin/../lib/gcc/mingw32/4.5.2/../../../libadvapi32.a(dgxgs00245.o)
                              winmisc.o (GetUserNameA@8)
d:/mingw/bin/../lib/gcc/mingw32/4.5.2/../../../libadvapi32.a(dgxgs00196.o)
                              winpgntc.o (GetLengthSid@4)
d:/mingw/bin/../lib/gcc/mingw32/4.5.2/../../../libadvapi32.a(dgxgs00083.o)
                              winpgntc.o (CopySid@12)
d:/mingw/bin/../lib/gcc/mingw32/4.5.2/../../../libadvapi32.a(dgxgs00393.o)
                              winstore.o (RegDeleteKeyA@8)
d:/mingw/bin/../lib/gcc/mingw32/4.5.2/../../../libadvapi32.a(dgxgs00400.o)
                              winstore.o (RegEnumKeyA@16)
d:/mingw/bin/../lib/gcc/mingw32/4.5.2/../../../libadvapi32.a(dgxgs00389.o)
                              winstore.o (RegCreateKeyA@12)
d:/mingw/bin/../lib/gcc/mingw32/4.5.2/../../../libadvapi32.a(dgxgs00434.o)
                              winstore.o (RegSetValueExA@24)
d:/mingw/bin/../lib/gcc/mingw32/4.5.2/../../../libadvapi32.a(dgxgs00390.o)
                              winstore.o (RegCreateKeyExA@36)
d:/mingw/bin/../lib/gcc/mingw32/4.5.2/../../../libadvapi32.a(dgxgs00397.o)
                              winstore.o (RegDeleteValueA@8)
d:/mingw/bin/../lib/gcc/mingw32/4.5.2/../../../libadvapi32.a(dgxgh.o)
                              d:/mingw/bin/../lib/gcc/mingw32/4.5.2/../../../libadvapi32.a(dgxgs00412.o) (_head_libadvapi32_a)
d:/mingw/bin/../lib/gcc/mingw32/4.5.2/../../../libadvapi32.a(dgxgt.o)
                              d:/mingw/bin/../lib/gcc/mingw32/4.5.2/../../../libadvapi32.a(dgxgh.o) (_libadvapi32_a_iname)
d:/mingw/bin/../lib/gcc/mingw32/4.5.2/../../../libuser32.a(daois00259.o)
                              winnoise.o (GetForegroundWindow@0)
d:/mingw/bin/../lib/gcc/mingw32/4.5.2/../../../libuser32.a(daois00224.o)
                              winnoise.o (GetCapture@0)
d:/mingw/bin/../lib/gcc/mingw32/4.5.2/../../../libuser32.a(daois00241.o)
                              winnoise.o (GetClipboardOwner@0)
d:/mingw/bin/../lib/gcc/mingw32/4.5.2/../../../libuser32.a(daois00310.o)
                              winnoise.o (GetQueueStatus@4)
d:/mingw/bin/../lib/gcc/mingw32/4.5.2/../../../libuser32.a(daois00247.o)
                              winnoise.o (GetCursorPos@4)
d:/mingw/bin/../lib/gcc/mingw32/4.5.2/../../../libuser32.a(daois00210.o)
                              winpgntc.o (FindWindowA@8)
d:/mingw/bin/../lib/gcc/mingw32/4.5.2/../../../libuser32.a(daois00508.o)
                              winpgntc.o (SendMessageA@16)
d:/mingw/bin/../lib/gcc/mingw32/4.5.2/../../../libuser32.a(daoih.o)
                              d:/mingw/bin/../lib/gcc/mingw32/4.5.2/../../../libuser32.a(daois00259.o) (_head_libuser32_a)
d:/mingw/bin/../lib/gcc/mingw32/4.5.2/../../../libuser32.a(daoit.o)
                              d:/mingw/bin/../lib/gcc/mingw32/4.5.2/../../../libuser32.a(daoih.o) (_libuser32_a_iname)
d:/mingw/bin/../lib/gcc/mingw32/4.5.2/../../../libmingw32.a(tlssup.o)
                              d:/mingw/bin/../lib/gcc/mingw32/4.5.2/../../../crt2.o (__dyn_tls_init_callback)
d:/mingw/bin/../lib/gcc/mingw32/4.5.2/../../../libmingw32.a(CRTglob.o)
                              d:/mingw/bin/../lib/gcc/mingw32/4.5.2/../../../crt2.o (_CRT_glob)
d:/mingw/bin/../lib/gcc/mingw32/4.5.2/../../../libmingw32.a(CRTfmode.o)
                              d:/mingw/bin/../lib/gcc/mingw32/4.5.2/../../../crt2.o (_CRT_fmode)
d:/mingw/bin/../lib/gcc/mingw32/4.5.2/../../../libmingw32.a(txtmode.o)
                              d:/mingw/bin/../lib/gcc/mingw32/4.5.2/../../../crt2.o (_fmode)
d:/mingw/bin/../lib/gcc/mingw32/4.5.2/../../../libmingw32.a(cpu_features.o)
                              d:/mingw/bin/../lib/gcc/mingw32/4.5.2/../../../crt2.o (__cpu_features_init)
d:/mingw/bin/../lib/gcc/mingw32/4.5.2/../../../libmingw32.a(pseudo-reloc.o)
                              d:/mingw/bin/../lib/gcc/mingw32/4.5.2/../../../crt2.o (_pei386_runtime_relocator)
d:/mingw/bin/../lib/gcc/mingw32/4.5.2/../../../libmingw32.a(gccmain.o)
                              d:/mingw/bin/../lib/gcc/mingw32/4.5.2/../../../crt2.o (__main)
d:/mingw/bin/../lib/gcc/mingw32/4.5.2/../../../libmingw32.a(CRT_fp10.o)
                              d:/mingw/bin/../lib/gcc/mingw32/4.5.2/../../../crt2.o (_fpreset)
d:/mingw/bin/../lib/gcc/mingw32/4.5.2/../../../libmingw32.a(crtst.o)
                              d:/mingw/bin/../lib/gcc/mingw32/4.5.2/../../../libmingw32.a(tlssup.o) (_CRT_MT)
d:/mingw/bin/../lib/gcc/mingw32/4.5.2/../../../libmingw32.a(tlsthrd.o)
                              d:/mingw/bin/../lib/gcc/mingw32/4.5.2/../../../libmingw32.a(tlssup.o) (__mingw_TLScallback)
d:/mingw/bin/../lib/gcc/mingw32/4.5.2/../../../libmingw32.a(pseudo-reloc-list.o)
                              d:/mingw/bin/../lib/gcc/mingw32/4.5.2/../../../libmingw32.a(pseudo-reloc.o) (__RUNTIME_PSEUDO_RELOC_LIST_END__)
d:/mingw/bin/../lib/gcc/mingw32/4.5.2/libgcc.a(_chkstk.o)
                              psftp.o (__chkstk)
d:/mingw/bin/../lib/gcc/mingw32/4.5.2/libgcc.a(_umoddi3.o)
                              sshbn.o (__umoddi3)
d:/mingw/bin/../lib/gcc/mingw32/4.5.2/libgcc.a(_udivdi3.o)
                              sshbn.o (__udivdi3)
d:/mingw/bin/../lib/gcc/mingw32/4.5.2/libgcc.a(_ctors.o)
                              d:/mingw/bin/../lib/gcc/mingw32/4.5.2/../../../libmingw32.a(gccmain.o) (__CTOR_LIST__)
d:/mingw/bin/../lib/gcc/mingw32/4.5.2/../../../libmoldname.a(dgzls00084.o)
                              proxy.o (strnicmp)
d:/mingw/bin/../lib/gcc/mingw32/4.5.2/../../../libmoldname.a(dgzls00081.o)
                              ssh.o (stricmp)
d:/mingw/bin/../lib/gcc/mingw32/4.5.2/../../../libmoldname.a(dgzlh.o)
                              d:/mingw/bin/../lib/gcc/mingw32/4.5.2/../../../libmoldname.a(dgzls00084.o) (_head_libmoldname_a)
d:/mingw/bin/../lib/gcc/mingw32/4.5.2/../../../libmoldname.a(dgzlt.o)
                              d:/mingw/bin/../lib/gcc/mingw32/4.5.2/../../../libmoldname.a(dgzlh.o) (_libmoldname_a_iname)
d:/mingw/bin/../lib/gcc/mingw32/4.5.2/../../../libmsvcrt.a(duyms00590.o)
                              d:/mingw/bin/../lib/gcc/mingw32/4.5.2/../../../crt2.o (_imp__atexit)
d:/mingw/bin/../lib/gcc/mingw32/4.5.2/../../../libmsvcrt.a(duyms00383.o)
                              d:/mingw/bin/../lib/gcc/mingw32/4.5.2/../../../crt2.o (_imp___onexit)
d:/mingw/bin/../lib/gcc/mingw32/4.5.2/../../../libmsvcrt.a(duyms00266.o)
                              d:/mingw/bin/../lib/gcc/mingw32/4.5.2/../../../crt2.o (_imp___iob)
d:/mingw/bin/../lib/gcc/mingw32/4.5.2/../../../libmsvcrt.a(duyms00099.o)
                              d:/mingw/bin/../lib/gcc/mingw32/4.5.2/../../../crt2.o (_imp____set_app_type)
d:/mingw/bin/../lib/gcc/mingw32/4.5.2/../../../libmsvcrt.a(duyms00055.o)
                              d:/mingw/bin/../lib/gcc/mingw32/4.5.2/../../../crt2.o (__getmainargs)
d:/mingw/bin/../lib/gcc/mingw32/4.5.2/../../../libmsvcrt.a(duyms00079.o)
                              d:/mingw/bin/../lib/gcc/mingw32/4.5.2/../../../crt2.o (__p__fmode)
d:/mingw/bin/../lib/gcc/mingw32/4.5.2/../../../libmsvcrt.a(duyms00077.o)
                              d:/mingw/bin/../lib/gcc/mingw32/4.5.2/../../../crt2.o (__p__environ)
d:/mingw/bin/../lib/gcc/mingw32/4.5.2/../../../libmsvcrt.a(duyms00147.o)
                              d:/mingw/bin/../lib/gcc/mingw32/4.5.2/../../../crt2.o (_cexit)
d:/mingw/bin/../lib/gcc/mingw32/4.5.2/../../../libmsvcrt.a(duyms00426.o)
                              d:/mingw/bin/../lib/gcc/mingw32/4.5.2/../../../crt2.o (_setmode)
d:/mingw/bin/../lib/gcc/mingw32/4.5.2/../../../libmsvcrt.a(duyms00706.o)
                              d:/mingw/bin/../lib/gcc/mingw32/4.5.2/../../../crt2.o (signal)
d:/mingw/bin/../lib/gcc/mingw32/4.5.2/../../../libmsvcrt.a(duyms00724.o)
                              cmdline.o (strncpy)
d:/mingw/bin/../lib/gcc/mingw32/4.5.2/../../../libmsvcrt.a(duyms00715.o)
                              cmdline.o (strcmp)
d:/mingw/bin/../lib/gcc/mingw32/4.5.2/../../../libmsvcrt.a(duyms00714.o)
                              cmdline.o (strchr)
d:/mingw/bin/../lib/gcc/mingw32/4.5.2/../../../libmsvcrt.a(duyms00723.o)
                              cmdline.o (strncmp)
d:/mingw/bin/../lib/gcc/mingw32/4.5.2/../../../libmsvcrt.a(duyms00592.o)
                              cmdline.o (atoi)
d:/mingw/bin/../lib/gcc/mingw32/4.5.2/../../../libmsvcrt.a(duyms00618.o)
                              cmdline.o (fopen)
d:/mingw/bin/../lib/gcc/mingw32/4.5.2/../../../libmsvcrt.a(duyms00611.o)
                              cmdline.o (fgetc)
d:/mingw/bin/../lib/gcc/mingw32/4.5.2/../../../libmsvcrt.a(duyms00607.o)
                              cmdline.o (fclose)
d:/mingw/bin/../lib/gcc/mingw32/4.5.2/../../../libmsvcrt.a(duyms00137.o)
                              int64.o (_assert)
d:/mingw/bin/../lib/gcc/mingw32/4.5.2/../../../libmsvcrt.a(duyms00065.o)
                              logging.o (_imp____mb_cur_max)
d:/mingw/bin/../lib/gcc/mingw32/4.5.2/../../../libmsvcrt.a(duyms00392.o)
                              logging.o (_imp___pctype)
d:/mingw/bin/../lib/gcc/mingw32/4.5.2/../../../libmsvcrt.a(duyms00610.o)
                              logging.o (fflush)
d:/mingw/bin/../lib/gcc/mingw32/4.5.2/../../../libmsvcrt.a(duyms00633.o)
                              logging.o (fwrite)
d:/mingw/bin/../lib/gcc/mingw32/4.5.2/../../../libmsvcrt.a(duyms00720.o)
                              logging.o (strftime)
d:/mingw/bin/../lib/gcc/mingw32/4.5.2/../../../libmsvcrt.a(duyms00742.o)
                              logging.o (tolower)
d:/mingw/bin/../lib/gcc/mingw32/4.5.2/../../../libmsvcrt.a(duyms00619.o)
                              logging.o (fprintf)
d:/mingw/bin/../lib/gcc/mingw32/4.5.2/../../../libmsvcrt.a(duyms00709.o)
                              logging.o (sprintf)
d:/mingw/bin/../lib/gcc/mingw32/4.5.2/../../../libmsvcrt.a(duyms00268.o)
                              logging.o (_isctype)
d:/mingw/bin/../lib/gcc/mingw32/4.5.2/../../../libmsvcrt.a(duyms00732.o)
                              misc.o (strtoul)
d:/mingw/bin/../lib/gcc/mingw32/4.5.2/../../../libmsvcrt.a(duyms00731.o)
                              misc.o (strtol)
d:/mingw/bin/../lib/gcc/mingw32/4.5.2/../../../libmsvcrt.a(duyms00676.o)
                              misc.o (malloc)
d:/mingw/bin/../lib/gcc/mingw32/4.5.2/../../../libmsvcrt.a(duyms00717.o)
                              misc.o (strcpy)
d:/mingw/bin/../lib/gcc/mingw32/4.5.2/../../../libmsvcrt.a(duyms00698.o)
                              misc.o (realloc)
d:/mingw/bin/../lib/gcc/mingw32/4.5.2/../../../libmsvcrt.a(duyms00490.o)
                              misc.o (_vsnprintf)
d:/mingw/bin/../lib/gcc/mingw32/4.5.2/../../../libmsvcrt.a(duyms00625.o)
                              misc.o (free)
d:/mingw/bin/../lib/gcc/mingw32/4.5.2/../../../libmsvcrt.a(duyms00613.o)
                              misc.o (fgets)
d:/mingw/bin/../lib/gcc/mingw32/4.5.2/../../../libmsvcrt.a(duyms00683.o)
                              portfwd.o (memmove)
d:/mingw/bin/../lib/gcc/mingw32/4.5.2/../../../libmsvcrt.a(duyms00712.o)
                              proxy.o (sscanf)
d:/mingw/bin/../lib/gcc/mingw32/4.5.2/../../../libmsvcrt.a(duyms00692.o)
                              psftp.o (puts)
d:/mingw/bin/../lib/gcc/mingw32/4.5.2/../../../libmsvcrt.a(duyms00689.o)
                              psftp.o (printf)
d:/mingw/bin/../lib/gcc/mingw32/4.5.2/../../../libmsvcrt.a(duyms00736.o)
                              psftp.o (system)
d:/mingw/bin/../lib/gcc/mingw32/4.5.2/../../../libmsvcrt.a(duyms00726.o)
                              psftp.o (strrchr)
d:/mingw/bin/../lib/gcc/mingw32/4.5.2/../../../libmsvcrt.a(duyms00727.o)
                              psftp.o (strspn)
d:/mingw/bin/../lib/gcc/mingw32/4.5.2/../../../libmsvcrt.a(duyms00718.o)
                              psftp.o (strcspn)
d:/mingw/bin/../lib/gcc/mingw32/4.5.2/../../../libmsvcrt.a(duyms00695.o)
                              psftp.o (qsort)
d:/mingw/bin/../lib/gcc/mingw32/4.5.2/../../../libmsvcrt.a(duyms00621.o)
                              psftp.o (fputs)
d:/mingw/bin/../lib/gcc/mingw32/4.5.2/../../../libmsvcrt.a(duyms00748.o)
                              psftp.o (vfprintf)
d:/mingw/bin/../lib/gcc/mingw32/4.5.2/../../../libmsvcrt.a(duyms00604.o)
                              psftp.o (exit)
d:/mingw/bin/../lib/gcc/mingw32/4.5.2/../../../libmsvcrt.a(duyms00681.o)
                              ssh.o (memcmp)
d:/mingw/bin/../lib/gcc/mingw32/4.5.2/../../../libmsvcrt.a(duyms00620.o)
                              ssh.o (fputc)
d:/mingw/bin/../lib/gcc/mingw32/4.5.2/../../../libmsvcrt.a(duyms00680.o)
                              ssh.o (memchr)
d:/mingw/bin/../lib/gcc/mingw32/4.5.2/../../../libmsvcrt.a(duyms00583.o)
                              sshbn.o (abort)
d:/mingw/bin/../lib/gcc/mingw32/4.5.2/../../../libmsvcrt.a(duyms00746.o)
                              sshpubk.o (ungetc)
d:/mingw/bin/../lib/gcc/mingw32/4.5.2/../../../libmsvcrt.a(duyms00624.o)
                              sshpubk.o (fread)
d:/mingw/bin/../lib/gcc/mingw32/4.5.2/../../../libmsvcrt.a(duyms00637.o)
                              winmisc.o (getenv)
d:/mingw/bin/../lib/gcc/mingw32/4.5.2/../../../libmsvcrt.a(duyms00699.o)
                              winstore.o (remove)
d:/mingw/bin/../lib/gcc/mingw32/4.5.2/../../../libmsvcrt.a(duyms00739.o)
                              x11fwd.o (time)
d:/mingw/bin/../lib/gcc/mingw32/4.5.2/../../../libmsvcrt.a(duyms00538.o)
                              d:/mingw/bin/../lib/gcc/mingw32/4.5.2/../../../libmingw32.a(tlssup.o) (_imp___winmajor)
d:/mingw/bin/../lib/gcc/mingw32/4.5.2/../../../libmsvcrt.a(duyms00682.o)
                              d:/mingw/bin/../lib/gcc/mingw32/4.5.2/../../../libmingw32.a(pseudo-reloc.o) (memcpy)
d:/mingw/bin/../lib/gcc/mingw32/4.5.2/../../../libmsvcrt.a(duyms00595.o)
                              d:/mingw/bin/../lib/gcc/mingw32/4.5.2/../../../libmingw32.a(tlsthrd.o) (calloc)
d:/mingw/bin/../lib/gcc/mingw32/4.5.2/../../../libmsvcrt.a(duymh.o)
                              d:/mingw/bin/../lib/gcc/mingw32/4.5.2/../../../libmsvcrt.a(duyms00590.o) (_head_libmsvcrt_a)
d:/mingw/bin/../lib/gcc/mingw32/4.5.2/../../../libmsvcrt.a(duymt.o)
                              d:/mingw/bin/../lib/gcc/mingw32/4.5.2/../../../libmsvcrt.a(duymh.o) (_libmsvcrt_a_iname)
d:/mingw/bin/../lib/gcc/mingw32/4.5.2/../../../libkernel32.a(dchds01140.o)
                              d:/mingw/bin/../lib/gcc/mingw32/4.5.2/../../../crt2.o (SetUnhandledExceptionFilter@4)
d:/mingw/bin/../lib/gcc/mingw32/4.5.2/../../../libkernel32.a(dchds00279.o)
                              d:/mingw/bin/../lib/gcc/mingw32/4.5.2/../../../crt2.o (ExitProcess@4)
d:/mingw/bin/../lib/gcc/mingw32/4.5.2/../../../libkernel32.a(dchds00529.o)
                              d:/mingw/bin/../lib/gcc/mingw32/4.5.2/crtbegin.o (GetModuleHandleA@4)
d:/mingw/bin/../lib/gcc/mingw32/4.5.2/../../../libkernel32.a(dchds00577.o)
                              d:/mingw/bin/../lib/gcc/mingw32/4.5.2/crtbegin.o (GetProcAddress@8)
d:/mingw/bin/../lib/gcc/mingw32/4.5.2/../../../libkernel32.a(dchds00656.o)
                              ssh.o (GetTickCount@0)
d:/mingw/bin/../lib/gcc/mingw32/4.5.2/../../../libkernel32.a(dchds01267.o)
                              wincons.o (WriteFile@20)
d:/mingw/bin/../lib/gcc/mingw32/4.5.2/../../../libkernel32.a(dchds00608.o)
                              wincons.o (GetStdHandle@4)
d:/mingw/bin/../lib/gcc/mingw32/4.5.2/../../../libkernel32.a(dchds00426.o)
                              wincons.o (GetConsoleMode@8)
d:/mingw/bin/../lib/gcc/mingw32/4.5.2/../../../libkernel32.a(dchds01037.o)
                              wincons.o (SetConsoleMode@8)
d:/mingw/bin/../lib/gcc/mingw32/4.5.2/../../../libkernel32.a(dchds00947.o)
                              wincons.o (ReadFile@20)
d:/mingw/bin/../lib/gcc/mingw32/4.5.2/../../../libkernel32.a(dchds00817.o)
                              wingss.o (LoadLibraryA@4)
d:/mingw/bin/../lib/gcc/mingw32/4.5.2/../../../libkernel32.a(dchds00352.o)
                              wingss.o (FreeLibrary@4)
d:/mingw/bin/../lib/gcc/mingw32/4.5.2/../../../libkernel32.a(dchds00082.o)
                              winhandl.o (CloseHandle@4)
d:/mingw/bin/../lib/gcc/mingw32/4.5.2/../../../libkernel32.a(dchds01065.o)
                              winhandl.o (SetEvent@4)
d:/mingw/bin/../lib/gcc/mingw32/4.5.2/../../../libkernel32.a(dchds01223.o)
                              winhandl.o (WaitForSingleObject@8)
d:/mingw/bin/../lib/gcc/mingw32/4.5.2/../../../libkernel32.a(dchds00510.o)
                              winhandl.o (GetLastError@0)
d:/mingw/bin/../lib/gcc/mingw32/4.5.2/../../../libkernel32.a(dchds00564.o)
                              winhandl.o (GetOverlappedResult@16)
d:/mingw/bin/../lib/gcc/mingw32/4.5.2/../../../libkernel32.a(dchds00129.o)
                              winhandl.o (CreateEventA@16)
d:/mingw/bin/../lib/gcc/mingw32/4.5.2/../../../libkernel32.a(dchds00179.o)
                              winhandl.o (CreateThread@24)
d:/mingw/bin/../lib/gcc/mingw32/4.5.2/../../../libkernel32.a(dchds00671.o)
                              winmisc.o (GetVersionExA@4)
d:/mingw/bin/../lib/gcc/mingw32/4.5.2/../../../libkernel32.a(dchds00619.o)
                              winmisc.o (GetSystemDirectoryA@8)
d:/mingw/bin/../lib/gcc/mingw32/4.5.2/../../../libkernel32.a(dchds00016.o)
                              winmisc.o (AllocConsole@0)
d:/mingw/bin/../lib/gcc/mingw32/4.5.2/../../../libkernel32.a(dchds00682.o)
                              winnoise.o (GetWindowsDirectoryA@8)
d:/mingw/bin/../lib/gcc/mingw32/4.5.2/../../../libkernel32.a(dchds00304.o)
                              winnoise.o (FindFirstFileA@8)
d:/mingw/bin/../lib/gcc/mingw32/4.5.2/../../../libkernel32.a(dchds00321.o)
                              winnoise.o (FindNextFileA@8)
d:/mingw/bin/../lib/gcc/mingw32/4.5.2/../../../libkernel32.a(dchds00300.o)
                              winnoise.o (FindClose@4)
d:/mingw/bin/../lib/gcc/mingw32/4.5.2/../../../libkernel32.a(dchds00447.o)
                              winnoise.o (GetCurrentProcessId@0)
d:/mingw/bin/../lib/gcc/mingw32/4.5.2/../../../libkernel32.a(dchds00627.o)
                              winnoise.o (GetSystemTime@4)
d:/mingw/bin/../lib/gcc/mingw32/4.5.2/../../../libkernel32.a(dchds00628.o)
                              winnoise.o (GetSystemTimeAdjustment@12)
d:/mingw/bin/../lib/gcc/mingw32/4.5.2/../../../libkernel32.a(dchds00699.o)
                              winnoise.o (GlobalMemoryStatus@4)
d:/mingw/bin/../lib/gcc/mingw32/4.5.2/../../../libkernel32.a(dchds00450.o)
                              winnoise.o (GetCurrentThread@0)
d:/mingw/bin/../lib/gcc/mingw32/4.5.2/../../../libkernel32.a(dchds00653.o)
                              winnoise.o (GetThreadTimes@20)
d:/mingw/bin/../lib/gcc/mingw32/4.5.2/../../../libkernel32.a(dchds00446.o)
                              winnoise.o (GetCurrentProcess@0)
d:/mingw/bin/../lib/gcc/mingw32/4.5.2/../../../libkernel32.a(dchds00590.o)
                              winnoise.o (GetProcessTimes@20)
d:/mingw/bin/../lib/gcc/mingw32/4.5.2/../../../libkernel32.a(dchds00922.o)
                              winnoise.o (QueryPerformanceCounter@4)
d:/mingw/bin/../lib/gcc/mingw32/4.5.2/../../../libkernel32.a(dchds00885.o)
                              winpgntc.o (OpenProcess@12)
d:/mingw/bin/../lib/gcc/mingw32/4.5.2/../../../libkernel32.a(dchds00829.o)
                              winpgntc.o (LocalFree@4)
d:/mingw/bin/../lib/gcc/mingw32/4.5.2/../../../libkernel32.a(dchds00825.o)
                              winpgntc.o (LocalAlloc@8)
d:/mingw/bin/../lib/gcc/mingw32/4.5.2/../../../libkernel32.a(dchds00451.o)
                              winpgntc.o (GetCurrentThreadId@0)
d:/mingw/bin/../lib/gcc/mingw32/4.5.2/../../../libkernel32.a(dchds00136.o)
                              winpgntc.o (CreateFileMappingA@24)
d:/mingw/bin/../lib/gcc/mingw32/4.5.2/../../../libkernel32.a(dchds00844.o)
                              winpgntc.o (MapViewOfFile@20)
d:/mingw/bin/../lib/gcc/mingw32/4.5.2/../../../libkernel32.a(dchds01188.o)
                              winpgntc.o (UnmapViewOfFile@4)
d:/mingw/bin/../lib/gcc/mingw32/4.5.2/../../../libkernel32.a(dchds00160.o)
                              winproxy.o (CreatePipe@16)
d:/mingw/bin/../lib/gcc/mingw32/4.5.2/../../../libkernel32.a(dchds01088.o)
                              winproxy.o (SetHandleInformation@12)
d:/mingw/bin/../lib/gcc/mingw32/4.5.2/../../../libkernel32.a(dchds00163.o)
                              winproxy.o (CreateProcessA@40)
d:/mingw/bin/../lib/gcc/mingw32/4.5.2/../../../libkernel32.a(dchds01052.o)
                              winsftp.o (SetCurrentDirectoryA@4)
d:/mingw/bin/../lib/gcc/mingw32/4.5.2/../../../libkernel32.a(dchds00347.o)
                              winsftp.o (FormatMessageA@28)
d:/mingw/bin/../lib/gcc/mingw32/4.5.2/../../../libkernel32.a(dchds00444.o)
                              winsftp.o (GetCurrentDirectoryA@8)
d:/mingw/bin/../lib/gcc/mingw32/4.5.2/../../../libkernel32.a(dchds00135.o)
                              winsftp.o (CreateFileA@28)
d:/mingw/bin/../lib/gcc/mingw32/4.5.2/../../../libkernel32.a(dchds00492.o)
                              winsftp.o (GetFileSize@8)
d:/mingw/bin/../lib/gcc/mingw32/4.5.2/../../../libkernel32.a(dchds00494.o)
                              winsftp.o (GetFileTime@16)
d:/mingw/bin/../lib/gcc/mingw32/4.5.2/../../../libkernel32.a(dchds01082.o)
                              winsftp.o (SetFileTime@16)
d:/mingw/bin/../lib/gcc/mingw32/4.5.2/../../../libkernel32.a(dchds01078.o)
                              winsftp.o (SetFilePointer@16)
d:/mingw/bin/../lib/gcc/mingw32/4.5.2/../../../libkernel32.a(dchds00481.o)
                              winsftp.o (GetFileAttributesA@4)
d:/mingw/bin/../lib/gcc/mingw32/4.5.2/../../../libkernel32.a(dchds00123.o)
                              winsftp.o (CreateDirectoryA@8)
d:/mingw/bin/../lib/gcc/mingw32/4.5.2/../../../libkernel32.a(dchds01221.o)
                              winsftp.o (WaitForMultipleObjects@16)
d:/mingw/bin/../lib/gcc/mingw32/4.5.2/../../../libkernel32.a(dchds00473.o)
                              winstore.o (GetEnvironmentVariableA@12)
d:/mingw/bin/../lib/gcc/mingw32/4.5.2/../../../libkernel32.a(dchds00511.o)
                              wintime.o (GetLocalTime@4)
d:/mingw/bin/../lib/gcc/mingw32/4.5.2/../../../libkernel32.a(dchds01215.o)
                              d:/mingw/bin/../lib/gcc/mingw32/4.5.2/../../../libmingw32.a(pseudo-reloc.o) (VirtualQuery@12)
d:/mingw/bin/../lib/gcc/mingw32/4.5.2/../../../libkernel32.a(dchds01213.o)
                              d:/mingw/bin/../lib/gcc/mingw32/4.5.2/../../../libmingw32.a(pseudo-reloc.o) (VirtualProtect@16)
d:/mingw/bin/../lib/gcc/mingw32/4.5.2/../../../libkernel32.a(dchds01173.o)
                              d:/mingw/bin/../lib/gcc/mingw32/4.5.2/../../../libmingw32.a(tlsthrd.o) (TlsGetValue@4)
d:/mingw/bin/../lib/gcc/mingw32/4.5.2/../../../libkernel32.a(dchds00207.o)
                              d:/mingw/bin/../lib/gcc/mingw32/4.5.2/../../../libmingw32.a(tlsthrd.o) (DeleteCriticalSection@4)
d:/mingw/bin/../lib/gcc/mingw32/4.5.2/../../../libkernel32.a(dchds00734.o)
                              d:/mingw/bin/../lib/gcc/mingw32/4.5.2/../../../libmingw32.a(tlsthrd.o) (InitializeCriticalSection@4)
d:/mingw/bin/../lib/gcc/mingw32/4.5.2/../../../libkernel32.a(dchds00236.o)
                              d:/mingw/bin/../lib/gcc/mingw32/4.5.2/../../../libmingw32.a(tlsthrd.o) (EnterCriticalSection@4)
d:/mingw/bin/../lib/gcc/mingw32/4.5.2/../../../libkernel32.a(dchds00814.o)
                              d:/mingw/bin/../lib/gcc/mingw32/4.5.2/../../../libmingw32.a(tlsthrd.o) (LeaveCriticalSection@4)
d:/mingw/bin/../lib/gcc/mingw32/4.5.2/../../../libkernel32.a(dchdh.o)
                              d:/mingw/bin/../lib/gcc/mingw32/4.5.2/../../../libkernel32.a(dchds01140.o) (_head_libkernel32_a)
d:/mingw/bin/../lib/gcc/mingw32/4.5.2/../../../libkernel32.a(dchdt.o)
                              d:/mingw/bin/../lib/gcc/mingw32/4.5.2/../../../libkernel32.a(dchdh.o) (_libkernel32_a_iname)

Allocating common symbols
Common symbol       size              file

p_WSAEnumNetworkEvents
                    0x4               psftp.o
p_WSAAsyncSelect    0x4               psftp.o
__DTOR_LIST__       0x8               d:/mingw/bin/../lib/gcc/mingw32/4.5.2/libgcc.a(_ctors.o)
loaded_session      0x4               psftp.o
term                0x4               psftp.o
homedir             0x4               psftp.o
p_select            0x4               psftp.o
default_port        0x4               psftp.o
hinst               0x4               psftp.o
__mingw_gMTKeyDtor  0x10              d:/mingw/bin/../lib/gcc/mingw32/4.5.2/../../../libmingw32.a(tlssup.o)
logbox              0x4               psftp.o
p_WSAGetLastError   0x4               psftp.o
flags               0x4               psftp.o
pwd                 0x4               psftp.o
osVersion           0x94              winmisc.o
__CTOR_LIST__       0x8               d:/mingw/bin/../lib/gcc/mingw32/4.5.2/libgcc.a(_ctors.o)
p_GetSecurityInfo   0x4               winpgntc.o
cmdline_session_name
                    0x4               psftp.o
next_noise_collection
                    0x4               sshrand.o
__mingw_gMTRemoveKeyDtor
                    0x10              d:/mingw/bin/../lib/gcc/mingw32/4.5.2/../../../libmingw32.a(tlssup.o)
__mingw_usemthread_dll
                    0x10              d:/mingw/bin/../lib/gcc/mingw32/4.5.2/../../../libmingw32.a(tlssup.o)
hwnd                0x4               psftp.o
logctx              0x4               psftp.o
default_protocol    0x4               psftp.o
p_WSAEventSelect    0x4               psftp.o

Discarded input sections

 .drectve       0x00000000      0x1d8 psftp.o
 .drectve       0x00000000       0x28 sshrand.o
 .drectve       0x00000000       0x1c winmisc.o
 .drectve       0x00000000       0x24 winpgntc.o
 .drectve       0x00000000       0x3c d:/mingw/bin/../lib/gcc/mingw32/4.5.2/libgcc.a(_ctors.o)
 .text          0x00000000        0x8 d:/mingw/bin/../lib/gcc/mingw32/4.5.2/../../../libmsvcrt.a(duyms00099.o)

Memory Configuration

Name             Origin             Length             Attributes
*default*        0x00000000         0xffffffff

Linker script and memory map

                0x00400000                __image_base__ = 0x400000
                0x00000000                __dll__ = 0x0
                0x00400000                ___ImageBase = 0x400000
                0x00001000                __section_alignment__ = 0x1000
                0x00000200                __file_alignment__ = 0x200
                0x00000004                __major_os_version__ = 0x4
                0x00000000                __minor_os_version__ = 0x0
                0x00000001                __major_image_version__ = 0x1
                0x00000000                __minor_image_version__ = 0x0
                0x00000004                __major_subsystem_version__ = 0x4
                0x00000000                __minor_subsystem_version__ = 0x0
                0x00000003                __subsystem__ = 0x3
                0x00200000                __size_of_stack_reserve__ = 0x200000
                0x00001000                __size_of_stack_commit__ = 0x1000
                0x00100000                __size_of_heap_reserve__ = 0x100000
                0x00001000                __size_of_heap_commit__ = 0x1000
                0x00000000                __loader_flags__ = 0x0
                0x00000000                __dll_characteristics__ = 0x0
LOAD d:/mingw/bin/../lib/gcc/mingw32/4.5.2/../../../crt2.o
LOAD d:/mingw/bin/../lib/gcc/mingw32/4.5.2/crtbegin.o
LOAD be_none.o
LOAD cmdline.o
LOAD cproxy.o
LOAD int64.o
LOAD logging.o
LOAD misc.o
LOAD pgssapi.o
LOAD pinger.o
LOAD portfwd.o
LOAD proxy.o
LOAD psftp.o
LOAD psftp.res.o
LOAD settings.o
LOAD sftp.o
LOAD ssh.o
LOAD sshaes.o
LOAD ssharcf.o
LOAD sshblowf.o
LOAD sshbn.o
LOAD sshcrc.o
LOAD sshcrcda.o
LOAD sshdes.o
LOAD sshdh.o
LOAD sshdss.o
LOAD sshgssc.o
LOAD sshmd5.o
LOAD sshpubk.o
LOAD sshrand.o
LOAD sshrsa.o
LOAD sshsh256.o
LOAD sshsh512.o
LOAD sshsha.o
LOAD sshzlib.o
LOAD timing.o
LOAD tree234.o
LOAD version.o
LOAD wildcard.o
LOAD wincons.o
LOAD windefs.o
LOAD wingss.o
LOAD winhandl.o
LOAD winmisc.o
LOAD winnet.o
LOAD winnoise.o
LOAD winnojmp.o
LOAD winpgntc.o
LOAD winproxy.o
LOAD winsftp.o
LOAD winstore.o
LOAD wintime.o
LOAD x11fwd.o
LOAD d:/mingw/bin/../lib/gcc/mingw32/4.5.2/../../../libadvapi32.a
LOAD d:/mingw/bin/../lib/gcc/mingw32/4.5.2/../../../libcomctl32.a
LOAD d:/mingw/bin/../lib/gcc/mingw32/4.5.2/../../../libcomdlg32.a
LOAD d:/mingw/bin/../lib/gcc/mingw32/4.5.2/../../../libgdi32.a
LOAD d:/mingw/bin/../lib/gcc/mingw32/4.5.2/../../../libimm32.a
LOAD d:/mingw/bin/../lib/gcc/mingw32/4.5.2/../../../libole32.a
LOAD d:/mingw/bin/../lib/gcc/mingw32/4.5.2/../../../libshell32.a
LOAD d:/mingw/bin/../lib/gcc/mingw32/4.5.2/../../../libuser32.a
LOAD d:/mingw/bin/../lib/gcc/mingw32/4.5.2/../../../libwinmm.a
LOAD d:/mingw/bin/../lib/gcc/mingw32/4.5.2/../../../libwinspool.a
LOAD d:/mingw/bin/../lib/gcc/mingw32/4.5.2/../../../libmingw32.a
LOAD d:/mingw/bin/../lib/gcc/mingw32/4.5.2/libgcc_eh.a
LOAD d:/mingw/bin/../lib/gcc/mingw32/4.5.2/libgcc.a
LOAD d:/mingw/bin/../lib/gcc/mingw32/4.5.2/../../../libmoldname.a
LOAD d:/mingw/bin/../lib/gcc/mingw32/4.5.2/../../../libmingwex.a
LOAD d:/mingw/bin/../lib/gcc/mingw32/4.5.2/../../../libmsvcrt.a
LOAD d:/mingw/bin/../lib/gcc/mingw32/4.5.2/../../../libuser32.a
LOAD d:/mingw/bin/../lib/gcc/mingw32/4.5.2/../../../libkernel32.a
LOAD d:/mingw/bin/../lib/gcc/mingw32/4.5.2/../../../libadvapi32.a
LOAD d:/mingw/bin/../lib/gcc/mingw32/4.5.2/../../../libshell32.a
LOAD d:/mingw/bin/../lib/gcc/mingw32/4.5.2/../../../libmingw32.a
LOAD d:/mingw/bin/../lib/gcc/mingw32/4.5.2/libgcc_eh.a
LOAD d:/mingw/bin/../lib/gcc/mingw32/4.5.2/libgcc.a
LOAD d:/mingw/bin/../lib/gcc/mingw32/4.5.2/../../../libmoldname.a
LOAD d:/mingw/bin/../lib/gcc/mingw32/4.5.2/../../../libmingwex.a
LOAD d:/mingw/bin/../lib/gcc/mingw32/4.5.2/../../../libmsvcrt.a
LOAD d:/mingw/bin/../lib/gcc/mingw32/4.5.2/crtend.o
                0x000002e0                . = SIZEOF_HEADERS
                0x00001000                . = ALIGN (__section_alignment__)

.text           0x00401000    0x42e00
 *(.init)
 *(.text)
 .text          0x00401000      0x2f0 d:/mingw/bin/../lib/gcc/mingw32/4.5.2/../../../crt2.o
                0x00401000                atexit
                0x00401010                _onexit
                0x00401140                WinMainCRTStartup
                0x00401160                mainCRTStartup
 .text          0x004012f0       0xd0 d:/mingw/bin/../lib/gcc/mingw32/4.5.2/crtbegin.o
                0x004012f0                __gcc_register_frame
                0x0040137c                __gcc_deregister_frame
 .text          0x004013c0        0x0 be_none.o
 .text          0x004013c0     0x1698 cmdline.o
                0x0040146c                cmdline_cleanup
                0x00401500                cmdline_get_passwd_input
                0x004015a8                cmdline_process_param
                0x004029f8                cmdline_run_saved
 .text          0x00402a58      0x4f8 cproxy.o
                0x00402a58                proxy_socks5_offerencryptedauth
                0x00402a6c                proxy_socks5_handlechap
                0x00402e08                proxy_socks5_selectchap
 .text          0x00402f50      0x2b0 int64.o
                0x00402f50                uint64_div10
                0x00402fd4                uint64_decimal
                0x00403064                uint64_make
                0x00403070                uint64_add
                0x0040308c                uint64_add32
                0x004030a0                uint64_compare
                0x004030c0                uint64_subtract
                0x004030e0                uint64_to_double
                0x0040310c                uint64_shift_right
                0x00403148                uint64_shift_left
                0x00403188                uint64_from_decimal
 .text          0x00403200      0xbdc logging.o
                0x00403200                logflush
                0x00403228                logfclose
                0x00403590                logfopen
                0x00403850                logtraffic
                0x00403880                log_eventlog
                0x00403904                log_packet
                0x00403cbc                log_init
                0x00403d18                log_free
                0x00403d44                log_reconfig
 .text          0x00403ddc      0xb28 misc.o
                0x00403ddc                parse_blocksize
                0x00403e98                ctrlparse
                0x00403f40                base64_encode_atom
                0x00404004                bufchain_init
                0x00404020                bufchain_size
                0x0040402c                bufchain_prefix
                0x0040404c                bufchain_fetch
                0x004040e0                safemalloc
                0x00404148                bufchain_add
                0x00404210                dupcat
                0x004042c8                dupstr
                0x0040431c                new_prompts
                0x00404378                saferealloc
                0x004043f4                dupvprintf
                0x0040446c                dupprintf
                0x00404488                add_prompt
                0x00404500                safefree
                0x00404518                bufchain_consume
                0x004045b8                bufchain_clear
                0x004045f0                fgetline
                0x0040468c                free_prompts
                0x00404718                debug_printf
                0x0040474c                debug_memdump
                0x004048bc                cfg_launchable
                0x004048e8                cfg_dest
 .text          0x00404904        0x0 pgssapi.o
 .text          0x00404904      0x148 pinger.o
                0x004049b4                pinger_new
                0x00404a00                pinger_reconfig
                0x00404a2c                pinger_free
 .text          0x00404a4c      0xabc portfwd.o
                0x00404ba4                pfd_newconnect
                0x00404cd0                pfd_addforward
                0x00404dd0                pfd_close
                0x004053b8                pfd_terminate
                0x004053c4                pfd_unthrottle
                0x00405400                pfd_override_throttle
                0x0040545c                pfd_send
                0x0040547c                pfd_confirm
 .text          0x00405508     0x2b58 proxy.o
                0x00405c94                proxy_activate
                0x00405de0                proxy_socks5_negotiate
                0x00406788                proxy_socks4_negotiate
                0x00406b2c                proxy_http_negotiate
                0x00407070                name_lookup
                0x004070e0                new_connection
                0x00407360                new_listener
                0x00407374                format_telnet_command
                0x00407f44                proxy_telnet_negotiate
 .text          0x00408060     0x490c psftp.o
                0x00408060                sftp_cmd_null
                0x0040806c                sftp_cmd_quit
                0x004081d8                sftp_cmd_pwd
                0x00408210                sftp_cmd_unknown
                0x00408bf0                canonify
                0x00409004                sftp_cmd_mkdir
                0x0040914c                sftp_cmd_cd
                0x004092d0                sftp_cmd_ls
                0x004096c4                sftp_get_file
                0x00409ff0                sftp_put_file
                0x0040a844                sftp_begin_wildcard_matching
                0x0040a9ac                sftp_wildcard_get_filename
                0x0040ab84                sftp_finish_wildcard_matching
                0x0040ac14                wildcard_iterate
                0x0040ad6c                sftp_cmd_chmod
                0x0040b140                sftp_cmd_rm
                0x0040b1b0                sftp_cmd_rmdir
                0x0040b220                is_wildcard
                0x0040b270                sftp_cmd_mv
                0x0040b414                sftp_general_get
                0x0040b720                sftp_cmd_reget
                0x0040b744                sftp_cmd_mget
                0x0040b768                sftp_cmd_get
                0x0040b78c                sftp_general_put
                0x0040ba84                sftp_cmd_reput
                0x0040baa8                sftp_cmd_mput
                0x0040bacc                sftp_cmd_put
                0x0040baf0                lookup_command
                0x0040bcac                sftp_getcmd
                0x0040bf40                do_sftp
                0x0040c03c                fatalbox
                0x0040c0b4                modalfatalbox
                0x0040c12c                connection_fatal
                0x0040c1a4                ldisc_send
                0x0040c1d0                agent_schedule_callback
                0x0040c1f4                from_backend
                0x0040c2fc                from_backend_untrusted
                0x0040c320                sftp_recvdata
                0x0040c40c                do_sftp_cleanup
                0x0040c4a4                sftp_cmd_close
                0x0040c504                sftp_senddata
                0x0040c530                cmdline_error
                0x0040c5a4                psftp_main
 .text          0x0040c96c     0x371c settings.o
                0x0040d0bc                backend_from_name
                0x0040d104                backend_from_proto
                0x0040d130                get_remote_username
                0x0040d1c8                save_open_settings
                0x0040e8fc                save_settings
                0x0040e944                load_open_settings
                0x0040fdd0                load_settings
                0x0040fe24                do_defaults
                0x0040fe30                get_sesslist
 .text          0x00410088     0x1cd4 sftp.o
                0x00410814                sftp_send
                0x00410894                sftp_recv
                0x00410958                sftp_cleanup_request
                0x0041097c                sftp_register
                0x0041098c                sftp_find_request
                0x00410a34                fxp_error
                0x00410a40                fxp_error_type
                0x00410a4c                fxp_init
                0x00410b2c                fxp_realpath_send
                0x00410b70                fxp_realpath_recv
                0x00410c2c                fxp_open_send
                0x00410c7c                fxp_open_recv
                0x00410d20                fxp_opendir_send
                0x00410d60                fxp_opendir_recv
                0x00410e04                fxp_close_send
                0x00410e64                fxp_close_recv
                0x00410e8c                fxp_mkdir_send
                0x00410ed4                fxp_mkdir_recv
                0x00410f0c                fxp_rmdir_send
                0x00410f4c                fxp_rmdir_recv
                0x00410f84                fxp_remove_send
                0x00410fc4                fxp_remove_recv
                0x00410ffc                fxp_rename_send
                0x00411044                fxp_rename_recv
                0x0041107c                fxp_stat_send
                0x004110bc                fxp_stat_recv
                0x00411138                fxp_fstat_send
                0x00411184                fxp_fstat_recv
                0x00411200                fxp_setstat_send
                0x0041125c                fxp_setstat_recv
                0x00411294                fxp_fsetstat_send
                0x00411304                fxp_fsetstat_recv
                0x0041133c                fxp_read_send
                0x004113a0                fxp_read_recv
                0x00411454                fxp_readdir_send
                0x004114a0                fxp_readdir_recv
                0x004116ac                fxp_write_send
                0x00411718                fxp_write_recv
                0x00411750                fxp_free_names
                0x004117a8                fxp_dup_name
                0x004117fc                fxp_free_name
                0x00411828                fxp_get_userdata
                0x00411834                fxp_set_userdata
                0x00411844                xfer_done
                0x0041186c                xfer_download_queue
                0x00411964                xfer_download_init
                0x00411990                xfer_download_gotpkt
                0x00411b0c                xfer_set_error
                0x00411b1c                xfer_download_data
                0x00411bb4                xfer_upload_init
                0x00411bd4                xfer_upload_ready
                0x00411be8                xfer_upload_data
                0x00411ca4                xfer_upload_gotpkt
                0x00411d18                xfer_cleanup
 .text          0x00411d5c    0x11d7c ssh.o
                0x00423568                sshfwd_close
                0x00423858                sshfwd_write
                0x004238f8                sshfwd_unthrottle
                0x00423970                new_sock_channel
                0x004239c8                ssh_send_port_open
                0x00423ac8                ssh_fallback_cmd
 .text          0x00423ad8     0x24c0 sshaes.o
                0x00425870                aes_iv
                0x00425aec                aes_ssh2_decrypt_blk
                0x00425bf8                aes_ssh2_encrypt_blk
                0x00425c10                aes_free_context
                0x00425c1c                aes_make_context
                0x00425ec0                aes128_key
                0x00425ed8                aes192_key
                0x00425ef0                aes256_key
                0x00425f08                aes256_encrypt_pubkey
                0x00425f50                aes256_decrypt_pubkey
 .text          0x00425f98      0x1fc ssharcf.o
 .text          0x00426194      0xf74 sshblowf.o
 .text          0x00427108     0x2c08 sshbn.o
                0x00427cd8                bn_restore_invariant
                0x00427cfc                copybn
                0x00427d38                freebn
                0x00427d5c                modmul
                0x00428158                decbn
                0x004281a8                bignum_from_bytes
                0x00428270                ssh1_read_bignum
                0x004282d8                bignum_bitcount
                0x00428304                ssh1_bignum_length
                0x00428330                ssh2_bignum_length
                0x0042835c                bignum_byte
                0x004283bc                bignum_bit
                0x00428414                bignum_set_bit
                0x00428470                bn_power_2
                0x004284b4                ssh1_write_bignum
                0x0042853c                bignum_cmp
                0x004285a4                bignum_rshift
                0x0042866c                bigmuladd
                0x004288f0                bigmul
                0x00428914                bigadd
                0x004289d0                bigsub
                0x00428ab8                bignum_bitmask
                0x00428b38                bignum_from_long
                0x00428b6c                bignum_add_long
                0x00428bf8                bignum_mod_short
                0x00428cbc                diagbn
                0x00428df4                bigdiv
                0x00428e20                bigmod
                0x00428e50                modpow_simple
                0x00429350                biggcd
                0x004293e0                modinv
                0x004295c8                modpow
                0x00429b64                bignum_decimal
 .text          0x00429d10       0x6c sshcrc.o
                0x00429d10                crc32_update
                0x00429d44                crc32_compute
 .text          0x00429d7c      0x3f4 sshcrcda.o
                0x00429e54                crcda_make_context
                0x00429e80                crcda_free_context
                0x00429eb4                detect_attack
 .text          0x0042a170     0x2318 sshdes.o
                0x0042bf70                des3_decrypt_pubkey
                0x0042c074                des3_encrypt_pubkey
                0x0042c178                des3_decrypt_pubkey_ossh
                0x0042c2cc                des3_encrypt_pubkey_ossh
                0x0042c420                des_encrypt_xdmauth
                0x0042c454                des_decrypt_xdmauth
 .text          0x0042c488      0x2ec sshdh.o
                0x0042c488                dh_setup_group
                0x0042c50c                dh_setup_gex
                0x0042c57c                dh_cleanup
                0x0042c5d4                dh_create_e
                0x0042c750                dh_find_K
 .text          0x0042c774     0x1768 sshdss.o
 .text          0x0042dedc      0x460 sshgssc.o
                0x0042e2ec                ssh_gssapi_bind_fns
 .text          0x0042e33c      0xe1c sshmd5.o
                0x0042e358                hmacmd5_free_context
                0x0042e364                hmacmd5_make_context
                0x0042e380                MD5Init
                0x0042e3b8                MD5Update
                0x0042ec88                MD5Final
                0x0042ef4c                MD5Simple
                0x0042efb4                hmacmd5_key
                0x0042f130                hmacmd5_do_hmac
 .text          0x0042f158     0x2430 sshpubk.o
                0x0042f6c0                loadrsakey
                0x0042f770                rsakey_encrypted
                0x0042f804                rsakey_pubblob
                0x0042f8fc                saversakey
                0x0042fc3c                base64_decode_atom
                0x0042fe70                find_pubkey_alg
                0x0042feb4                ssh2_load_userkey
                0x00430918                ssh2_userkey_loadpub
                0x00430b18                ssh2_userkey_encrypted
                0x00430c7c                base64_lines
                0x00430c9c                base64_encode
                0x00430d34                ssh2_save_userkey
                0x00431430                key_type
                0x0043156c                key_type_to_str
 .text          0x00431588      0x488 sshrand.o
                0x00431728                random_add_noise
                0x00431874                random_add_heavynoise
                0x004318d4                random_ref
                0x00431938                random_unref
                0x00431980                random_byte
                0x004319b0                random_get_savedata
 .text          0x00431a10     0x2268 sshrsa.o
                0x00432a68                makekey
                0x00432b88                makeprivate
                0x00432b98                rsaencrypt
                0x00432c7c                crt_modpow
                0x004332ac                rsadecrypt
                0x004332c0                rsastr_len
                0x00433320                rsastr_fmt
                0x004334b0                rsa_fingerprint
                0x004336a4                rsa_verify
                0x00433810                rsa_public_blob
                0x004338c0                rsa_public_blob_len
                0x00433928                freersakey
                0x00433a80                ssh_rsakex_newkey
                0x00433a8c                ssh_rsakex_freekey
                0x00433a98                ssh_rsakex_klen
                0x00433ab0                ssh_rsakex_encrypt
 .text          0x00433c78      0xaf8 sshsh256.o
                0x00433ce0                SHA256_Core_Init
                0x00433d20                SHA256_Block
                0x0043445c                SHA256_Init
                0x004344b0                SHA256_Bytes
                0x004345c4                SHA256_Final
                0x004346ec                SHA256_Simple
 .text          0x00434770     0x1c40 sshsh512.o
                0x00434770                SHA512_Init
                0x004347cc                SHA512_Bytes
                0x00436190                SHA512_Final
                0x00436330                SHA512_Simple
 .text          0x004363b0      0xa1c sshsha.o
                0x00436448                SHATransform
                0x00436658                SHA_Init
                0x00436698                SHA_Bytes
                0x00436950                SHA_Final
                0x00436ce8                SHA_Simple
                0x00436d58                hmac_sha1_simple
 .text          0x00436dcc     0x18fc sshzlib.o
                0x0043781c                zlib_compress_init
                0x004378ec                zlib_decompress_init
                0x00437a38                zlib_decompress_cleanup
                0x00437a94                zlib_compress_cleanup
                0x00437b50                zlib_decompress_block
                0x004382e8                zlib_compress_block
 .text          0x004386c8      0x284 timing.o
                0x0043877c                schedule_timer
                0x00438838                run_timers
                0x00438928                expire_timer_context
 .text          0x0043894c     0x11cc tree234.o
                0x00439790                newtree234
                0x004397b8                freetree234
                0x004397d4                count234
                0x004397ec                add234
                0x00439810                addpos234
                0x00439834                index234
                0x004398b0                findrelpos234
                0x00439a08                find234
                0x00439a3c                findrel234
                0x00439a6c                findpos234
                0x00439a9c                delpos234
                0x00439acc                del234
 .text          0x00439b18        0x0 version.o
 .text          0x00439b18      0x2fc wildcard.o
                0x00439ca0                wc_error
                0x00439cc8                wc_match
                0x00439dc8                wc_unescape
 .text          0x00439e14      0x804 wincons.o
                0x00439e44                cleanup_exit
                0x00439e60                set_busy_status
                0x00439e68                notify_remote_exit
                0x00439e70                timer_change_notify
                0x00439e78                verify_ssh_host_key
                0x0043a04c                update_specials_menu
                0x0043a054                askalg
                0x0043a178                askappend
                0x0043a298                old_keyfile_warning
                0x0043a2c8                pgp_fingerprints
                0x0043a2f8                console_provide_logctx
                0x0043a308                logevent
                0x0043a31c                console_get_userpass_input
                0x0043a610                frontend_keypress
 .text          0x0043a618       0xf8 windefs.o
                0x0043a618                platform_default_fontspec
                0x0043a67c                platform_default_filename
                0x0043a6dc                platform_default_s
                0x0043a708                platform_default_i
 .text          0x0043a710      0x9b8 wingss.o
                0x0043abc8                ssh_gss_setup
                0x0043b058                ssh_gss_cleanup
 .text          0x0043b0c8      0xa40 winhandl.o
                0x0043b550                handle_input_new
                0x0043b664                handle_output_new
                0x0043b780                handle_write
                0x0043b7dc                handle_get_events
                0x0043b874                handle_free
                0x0043b8ec                handle_got_event
                0x0043ba64                handle_unthrottle
                0x0043bac4                handle_backlog
                0x0043bafc                handle_get_privdata
 .text          0x0043bb08      0x394 winmisc.o
                0x0043bb08                platform_get_x_display
                0x0043bb24                filename_from_str
                0x0043bb6c                filename_to_str
                0x0043bb74                filename_equal
                0x0043bb9c                filename_is_null
                0x0043bbac                init_winver
                0x0043bbdc                load_system32_dll
                0x0043bc80                get_username
                0x0043bdcc                dputs
 .text          0x0043be9c     0x263c winnet.o
                0x0043c580                sk_startup
                0x0043c5c8                sk_init
                0x0043cd54                sk_cleanup
                0x0043cdd8                winsock_error_string
                0x0043cdfc                sk_namelookup
                0x0043d110                sk_nonamelookup
                0x0043d180                sk_nextaddr
                0x0043d1b8                sk_getaddr
                0x0043d2c8                sk_hostname_is_local
                0x0043d314                sk_address_is_local
                0x0043d3d4                sk_addrtype
                0x0043d410                sk_addrcopy
                0x0043d4d8                sk_addr_free
                0x0043d58c                sk_addr_dup
                0x0043d598                sk_register
                0x0043d680                sk_new
                0x0043d77c                sk_newlistener
                0x0043dad8                try_send
                0x0043dd08                select_result
                0x0043e284                net_pending_errors
                0x0043e2f0                sk_addr_error
                0x0043e2fc                socket_reselect_all
                0x0043e348                first_socket
                0x0043e380                next_socket
                0x0043e3b4                socket_writable
                0x0043e3f4                net_service_lookup
                0x0043e42c                get_hostname
                0x0043e498                platform_get_x11_unix_address
 .text          0x0043e4d8      0x2dc winnoise.o
                0x0043e4d8                random_save_seed
                0x0043e520                noise_get_heavy
                0x0043e5d8                noise_get_light
                0x0043e62c                noise_regular
                0x0043e758                noise_ultralight
 .text          0x0043e7b4       0x18 winnojmp.o
                0x0043e7b4                add_session_to_jumplist
                0x0043e7bc                remove_session_from_jumplist
                0x0043e7c4                clear_jumplist
 .text          0x0043e7cc      0x57c winpgntc.o
                0x0043e7cc                agent_exists
                0x0043e7f4                init_advapi
                0x0043e91c                get_user_sid
                0x0043eab0                agent_query
 .text          0x0043ed48      0x408 winproxy.o
                0x0043ee00                localproxy_sentdata
                0x0043ee2c                localproxy_gotdata
                0x0043eec0                platform_new_connection
 .text          0x0043f150     0x101c winsftp.o
                0x0043f180                get_ttymode
                0x0043f188                get_userpass_input
                0x0043f1d0                platform_get_x11_auth
                0x0043f1d8                psftp_lcd
                0x0043f274                psftp_getcwd
                0x0043f2dc                open_existing_file
                0x0043f438                read_from_file
                0x0043f47c                close_rfile
                0x0043f4a0                open_new_file
                0x0043f510                open_existing_wfile
                0x0043f5a8                write_to_file
                0x0043f5ec                set_file_times
                0x0043f670                close_wfile
                0x0043f694                seek_file
                0x0043f6f4                get_file_posn
                0x0043f734                file_type
                0x0043f75c                open_directory
                0x0043f7e8                read_filename
                0x0043f884                close_directory
                0x0043f8b4                test_wildcard
                0x0043f90c                begin_wildcard_matching
                0x0043fa14                wildcard_get_filename
                0x0043faac                finish_wildcard_matching
                0x0043fae8                vet_filename
                0x0043fb54                create_directory
                0x0043fb7c                dir_file_cat
                0x0043fba8                do_select
                0x0043fc60                do_eventsel_loop
                0x0043feac                ssh_sftp_loop_iteration
                0x00440018                ssh_sftp_get_cmdline
                0x00440148                main
 .text          0x0044016c     0x16cc winstore.o
                0x004406d4                open_settings_w
                0x004407ec                write_setting_s
                0x0044083c                write_setting_i
                0x0044087c                close_settings_w
                0x00440890                open_settings_r
                0x00440950                read_setting_s
                0x004409a8                read_setting_i
                0x00440a0c                read_setting_fontspec
                0x00440b30                write_setting_fontspec
                0x00440bfc                read_setting_filename
                0x00440c30                write_setting_filename
                0x00440c54                close_settings_r
                0x00440fc8                del_settings
                0x00441058                enum_settings_start
                0x004410ac                enum_settings_next
                0x004411c8                enum_settings_finish
                0x004411ec                verify_host_key
                0x00441530                store_host_key
                0x004415f8                read_random_seed
                0x0044166c                write_random_seed
                0x004416bc                add_to_jumplist_registry
                0x004416d0                remove_from_jumplist_registry
                0x004416e4                get_jumplist_registry_entries
                0x00441720                cleanup_all
 .text          0x00441838       0x88 wintime.o
                0x00441838                ltime
 .text          0x004418c0     0x148c x11fwd.o
                0x004419a4                x11_setup_display
                0x00441f60                x11_free_display
                0x00442034                x11_get_auth_from_authfile
                0x00442374                x11_get_screen_number
                0x004423c8                x11_init
                0x00442520                x11_close
                0x004425a0                x11_unthrottle
                0x004425dc                x11_override_throttle
                0x00442638                x11_send
 .text          0x00442d4c        0x8 d:/mingw/bin/../lib/gcc/mingw32/4.5.2/../../../libadvapi32.a(dgxgs00412.o)
                0x00442d4c                RegOpenKeyA@12
 .text          0x00442d54        0x8 d:/mingw/bin/../lib/gcc/mingw32/4.5.2/../../../libadvapi32.a(dgxgs00423.o)
                0x00442d54                RegQueryValueExA@24
 .text          0x00442d5c        0x8 d:/mingw/bin/../lib/gcc/mingw32/4.5.2/../../../libadvapi32.a(dgxgs00386.o)
                0x00442d5c                RegCloseKey@4
 .text          0x00442d64        0x8 d:/mingw/bin/../lib/gcc/mingw32/4.5.2/../../../libadvapi32.a(dgxgs00245.o)
                0x00442d64                GetUserNameA@8
 .text          0x00442d6c        0x8 d:/mingw/bin/../lib/gcc/mingw32/4.5.2/../../../libadvapi32.a(dgxgs00196.o)
                0x00442d6c                GetLengthSid@4
 .text          0x00442d74        0x8 d:/mingw/bin/../lib/gcc/mingw32/4.5.2/../../../libadvapi32.a(dgxgs00083.o)
                0x00442d74                CopySid@12
 .text          0x00442d7c        0x8 d:/mingw/bin/../lib/gcc/mingw32/4.5.2/../../../libadvapi32.a(dgxgs00393.o)
                0x00442d7c                RegDeleteKeyA@8
 .text          0x00442d84        0x8 d:/mingw/bin/../lib/gcc/mingw32/4.5.2/../../../libadvapi32.a(dgxgs00400.o)
                0x00442d84                RegEnumKeyA@16
 .text          0x00442d8c        0x8 d:/mingw/bin/../lib/gcc/mingw32/4.5.2/../../../libadvapi32.a(dgxgs00389.o)
                0x00442d8c                RegCreateKeyA@12
 .text          0x00442d94        0x8 d:/mingw/bin/../lib/gcc/mingw32/4.5.2/../../../libadvapi32.a(dgxgs00434.o)
                0x00442d94                RegSetValueExA@24
 .text          0x00442d9c        0x8 d:/mingw/bin/../lib/gcc/mingw32/4.5.2/../../../libadvapi32.a(dgxgs00390.o)
                0x00442d9c                RegCreateKeyExA@36
 .text          0x00442da4        0x8 d:/mingw/bin/../lib/gcc/mingw32/4.5.2/../../../libadvapi32.a(dgxgs00397.o)
                0x00442da4                RegDeleteValueA@8
 .text          0x00442dac        0x0 d:/mingw/bin/../lib/gcc/mingw32/4.5.2/../../../libadvapi32.a(dgxgh.o)
 .text          0x00442dac        0x0 d:/mingw/bin/../lib/gcc/mingw32/4.5.2/../../../libadvapi32.a(dgxgt.o)
 .text          0x00442dac        0x8 d:/mingw/bin/../lib/gcc/mingw32/4.5.2/../../../libuser32.a(daois00259.o)
                0x00442dac                GetForegroundWindow@0
 .text          0x00442db4        0x8 d:/mingw/bin/../lib/gcc/mingw32/4.5.2/../../../libuser32.a(daois00224.o)
                0x00442db4                GetCapture@0
 .text          0x00442dbc        0x8 d:/mingw/bin/../lib/gcc/mingw32/4.5.2/../../../libuser32.a(daois00241.o)
                0x00442dbc                GetClipboardOwner@0
 .text          0x00442dc4        0x8 d:/mingw/bin/../lib/gcc/mingw32/4.5.2/../../../libuser32.a(daois00310.o)
                0x00442dc4                GetQueueStatus@4
 .text          0x00442dcc        0x8 d:/mingw/bin/../lib/gcc/mingw32/4.5.2/../../../libuser32.a(daois00247.o)
                0x00442dcc                GetCursorPos@4
 .text          0x00442dd4        0x8 d:/mingw/bin/../lib/gcc/mingw32/4.5.2/../../../libuser32.a(daois00210.o)
                0x00442dd4                FindWindowA@8
 .text          0x00442ddc        0x8 d:/mingw/bin/../lib/gcc/mingw32/4.5.2/../../../libuser32.a(daois00508.o)
                0x00442ddc                SendMessageA@16
 .text          0x00442de4        0x0 d:/mingw/bin/../lib/gcc/mingw32/4.5.2/../../../libuser32.a(daoih.o)
 .text          0x00442de4        0x0 d:/mingw/bin/../lib/gcc/mingw32/4.5.2/../../../libuser32.a(daoit.o)
 *fill*         0x00442de4        0xc 00
 .text          0x00442df0      0x1d0 d:/mingw/bin/../lib/gcc/mingw32/4.5.2/../../../libmingw32.a(tlssup.o)
                0x00442df0                __tlregdtor
                0x00442e40                __dyn_tls_init@12
 .text          0x00442fc0        0x0 d:/mingw/bin/../lib/gcc/mingw32/4.5.2/../../../libmingw32.a(CRTglob.o)
 .text          0x00442fc0        0x0 d:/mingw/bin/../lib/gcc/mingw32/4.5.2/../../../libmingw32.a(CRTfmode.o)
 .text          0x00442fc0        0x0 d:/mingw/bin/../lib/gcc/mingw32/4.5.2/../../../libmingw32.a(txtmode.o)
 .text          0x00442fc0       0xe0 d:/mingw/bin/../lib/gcc/mingw32/4.5.2/../../../libmingw32.a(cpu_features.o)
                0x00442fc0                __cpu_features_init
 .text          0x004430a0      0x2e0 d:/mingw/bin/../lib/gcc/mingw32/4.5.2/../../../libmingw32.a(pseudo-reloc.o)
                0x004431d0                _pei386_runtime_relocator
 .text          0x00443380       0xb0 d:/mingw/bin/../lib/gcc/mingw32/4.5.2/../../../libmingw32.a(gccmain.o)
                0x00443380                __do_global_dtors
                0x004433b0                __do_global_ctors
                0x00443410                __main
 .text          0x00443430       0x10 d:/mingw/bin/../lib/gcc/mingw32/4.5.2/../../../libmingw32.a(CRT_fp10.o)
                0x00443430                fpreset
                0x00443430                _fpreset
 .text          0x00443440        0x0 d:/mingw/bin/../lib/gcc/mingw32/4.5.2/../../../libmingw32.a(crtst.o)
 .text          0x00443440      0x210 d:/mingw/bin/../lib/gcc/mingw32/4.5.2/../../../libmingw32.a(tlsthrd.o)
                0x004434c0                __mingw_TLScallback
                0x00443550                ___w64_mingwthr_remove_key_dtor
                0x004435e0                ___w64_mingwthr_add_key_dtor
 .text          0x00443650        0x0 d:/mingw/bin/../lib/gcc/mingw32/4.5.2/../../../libmingw32.a(pseudo-reloc-list.o)
 .text          0x00443650       0x34 d:/mingw/bin/../lib/gcc/mingw32/4.5.2/libgcc.a(_chkstk.o)
                0x00443650                _alloca
                0x00443650                __chkstk
 .text          0x00443684      0x124 d:/mingw/bin/../lib/gcc/mingw32/4.5.2/libgcc.a(_umoddi3.o)
                0x00443684                __umoddi3
 .text          0x004437a8      0x110 d:/mingw/bin/../lib/gcc/mingw32/4.5.2/libgcc.a(_udivdi3.o)
                0x004437a8                __udivdi3
 .text          0x004438b8        0x0 d:/mingw/bin/../lib/gcc/mingw32/4.5.2/libgcc.a(_ctors.o)
 .text          0x004438b8        0x8 d:/mingw/bin/../lib/gcc/mingw32/4.5.2/../../../libmoldname.a(dgzls00084.o)
                0x004438b8                strnicmp
 .text          0x004438c0        0x8 d:/mingw/bin/../lib/gcc/mingw32/4.5.2/../../../libmoldname.a(dgzls00081.o)
                0x004438c0                stricmp
 .text          0x004438c8        0x0 d:/mingw/bin/../lib/gcc/mingw32/4.5.2/../../../libmoldname.a(dgzlh.o)
 .text          0x004438c8        0x0 d:/mingw/bin/../lib/gcc/mingw32/4.5.2/../../../libmoldname.a(dgzlt.o)
 .text          0x004438c8        0x0 d:/mingw/bin/../lib/gcc/mingw32/4.5.2/../../../libmsvcrt.a(duyms00590.o)
 .text          0x004438c8        0x0 d:/mingw/bin/../lib/gcc/mingw32/4.5.2/../../../libmsvcrt.a(duyms00383.o)
 .text          0x004438c8        0x0 d:/mingw/bin/../lib/gcc/mingw32/4.5.2/../../../libmsvcrt.a(duyms00266.o)
 .text          0x004438c8        0x8 d:/mingw/bin/../lib/gcc/mingw32/4.5.2/../../../libmsvcrt.a(duyms00055.o)
                0x004438c8                __getmainargs
 .text          0x004438d0        0x8 d:/mingw/bin/../lib/gcc/mingw32/4.5.2/../../../libmsvcrt.a(duyms00079.o)
                0x004438d0                __p__fmode
 .text          0x004438d8        0x8 d:/mingw/bin/../lib/gcc/mingw32/4.5.2/../../../libmsvcrt.a(duyms00077.o)
                0x004438d8                __p__environ
 .text          0x004438e0        0x8 d:/mingw/bin/../lib/gcc/mingw32/4.5.2/../../../libmsvcrt.a(duyms00147.o)
                0x004438e0                _cexit
 .text          0x004438e8        0x8 d:/mingw/bin/../lib/gcc/mingw32/4.5.2/../../../libmsvcrt.a(duyms00426.o)
                0x004438e8                _setmode
 .text          0x004438f0        0x8 d:/mingw/bin/../lib/gcc/mingw32/4.5.2/../../../libmsvcrt.a(duyms00706.o)
                0x004438f0                signal
 .text          0x004438f8        0x8 d:/mingw/bin/../lib/gcc/mingw32/4.5.2/../../../libmsvcrt.a(duyms00724.o)
                0x004438f8                strncpy
 .text          0x00443900        0x8 d:/mingw/bin/../lib/gcc/mingw32/4.5.2/../../../libmsvcrt.a(duyms00715.o)
                0x00443900                strcmp
 .text          0x00443908        0x8 d:/mingw/bin/../lib/gcc/mingw32/4.5.2/../../../libmsvcrt.a(duyms00714.o)
                0x00443908                strchr
 .text          0x00443910        0x8 d:/mingw/bin/../lib/gcc/mingw32/4.5.2/../../../libmsvcrt.a(duyms00723.o)
                0x00443910                strncmp
 .text          0x00443918        0x8 d:/mingw/bin/../lib/gcc/mingw32/4.5.2/../../../libmsvcrt.a(duyms00592.o)
                0x00443918                atoi
 .text          0x00443920        0x8 d:/mingw/bin/../lib/gcc/mingw32/4.5.2/../../../libmsvcrt.a(duyms00618.o)
                0x00443920                fopen
 .text          0x00443928        0x8 d:/mingw/bin/../lib/gcc/mingw32/4.5.2/../../../libmsvcrt.a(duyms00611.o)
                0x00443928                fgetc
 .text          0x00443930        0x8 d:/mingw/bin/../lib/gcc/mingw32/4.5.2/../../../libmsvcrt.a(duyms00607.o)
                0x00443930                fclose
 .text          0x00443938        0x8 d:/mingw/bin/../lib/gcc/mingw32/4.5.2/../../../libmsvcrt.a(duyms00137.o)
                0x00443938                _assert
 .text          0x00443940        0x0 d:/mingw/bin/../lib/gcc/mingw32/4.5.2/../../../libmsvcrt.a(duyms00065.o)
 .text          0x00443940        0x0 d:/mingw/bin/../lib/gcc/mingw32/4.5.2/../../../libmsvcrt.a(duyms00392.o)
 .text          0x00443940        0x8 d:/mingw/bin/../lib/gcc/mingw32/4.5.2/../../../libmsvcrt.a(duyms00610.o)
                0x00443940                fflush
 .text          0x00443948        0x8 d:/mingw/bin/../lib/gcc/mingw32/4.5.2/../../../libmsvcrt.a(duyms00633.o)
                0x00443948                fwrite
 .text          0x00443950        0x8 d:/mingw/bin/../lib/gcc/mingw32/4.5.2/../../../libmsvcrt.a(duyms00720.o)
                0x00443950                strftime
 .text          0x00443958        0x8 d:/mingw/bin/../lib/gcc/mingw32/4.5.2/../../../libmsvcrt.a(duyms00742.o)
                0x00443958                tolower
 .text          0x00443960        0x8 d:/mingw/bin/../lib/gcc/mingw32/4.5.2/../../../libmsvcrt.a(duyms00619.o)
                0x00443960                fprintf
 .text          0x00443968        0x8 d:/mingw/bin/../lib/gcc/mingw32/4.5.2/../../../libmsvcrt.a(duyms00709.o)
                0x00443968                sprintf
 .text          0x00443970        0x8 d:/mingw/bin/../lib/gcc/mingw32/4.5.2/../../../libmsvcrt.a(duyms00268.o)
                0x00443970                _isctype
 .text          0x00443978        0x8 d:/mingw/bin/../lib/gcc/mingw32/4.5.2/../../../libmsvcrt.a(duyms00732.o)
                0x00443978                strtoul
 .text          0x00443980        0x8 d:/mingw/bin/../lib/gcc/mingw32/4.5.2/../../../libmsvcrt.a(duyms00731.o)
                0x00443980                strtol
 .text          0x00443988        0x8 d:/mingw/bin/../lib/gcc/mingw32/4.5.2/../../../libmsvcrt.a(duyms00676.o)
                0x00443988                malloc
 .text          0x00443990        0x8 d:/mingw/bin/../lib/gcc/mingw32/4.5.2/../../../libmsvcrt.a(duyms00717.o)
                0x00443990                strcpy
 .text          0x00443998        0x8 d:/mingw/bin/../lib/gcc/mingw32/4.5.2/../../../libmsvcrt.a(duyms00698.o)
                0x00443998                realloc
 .text          0x004439a0        0x8 d:/mingw/bin/../lib/gcc/mingw32/4.5.2/../../../libmsvcrt.a(duyms00490.o)
                0x004439a0                _vsnprintf
 .text          0x004439a8        0x8 d:/mingw/bin/../lib/gcc/mingw32/4.5.2/../../../libmsvcrt.a(duyms00625.o)
                0x004439a8                free
 .text          0x004439b0        0x8 d:/mingw/bin/../lib/gcc/mingw32/4.5.2/../../../libmsvcrt.a(duyms00613.o)
                0x004439b0                fgets
 .text          0x004439b8        0x8 d:/mingw/bin/../lib/gcc/mingw32/4.5.2/../../../libmsvcrt.a(duyms00683.o)
                0x004439b8                memmove
 .text          0x004439c0        0x8 d:/mingw/bin/../lib/gcc/mingw32/4.5.2/../../../libmsvcrt.a(duyms00712.o)
                0x004439c0                sscanf
 .text          0x004439c8        0x8 d:/mingw/bin/../lib/gcc/mingw32/4.5.2/../../../libmsvcrt.a(duyms00692.o)
                0x004439c8                puts
 .text          0x004439d0        0x8 d:/mingw/bin/../lib/gcc/mingw32/4.5.2/../../../libmsvcrt.a(duyms00689.o)
                0x004439d0                printf
 .text          0x004439d8        0x8 d:/mingw/bin/../lib/gcc/mingw32/4.5.2/../../../libmsvcrt.a(duyms00736.o)
                0x004439d8                system
 .text          0x004439e0        0x8 d:/mingw/bin/../lib/gcc/mingw32/4.5.2/../../../libmsvcrt.a(duyms00726.o)
                0x004439e0                strrchr
 .text          0x004439e8        0x8 d:/mingw/bin/../lib/gcc/mingw32/4.5.2/../../../libmsvcrt.a(duyms00727.o)
                0x004439e8                strspn
 .text          0x004439f0        0x8 d:/mingw/bin/../lib/gcc/mingw32/4.5.2/../../../libmsvcrt.a(duyms00718.o)
                0x004439f0                strcspn
 .text          0x004439f8        0x8 d:/mingw/bin/../lib/gcc/mingw32/4.5.2/../../../libmsvcrt.a(duyms00695.o)
                0x004439f8                qsort
 .text          0x00443a00        0x8 d:/mingw/bin/../lib/gcc/mingw32/4.5.2/../../../libmsvcrt.a(duyms00621.o)
                0x00443a00                fputs
 .text          0x00443a08        0x8 d:/mingw/bin/../lib/gcc/mingw32/4.5.2/../../../libmsvcrt.a(duyms00748.o)
                0x00443a08                vfprintf
 .text          0x00443a10        0x8 d:/mingw/bin/../lib/gcc/mingw32/4.5.2/../../../libmsvcrt.a(duyms00604.o)
                0x00443a10                exit
 .text          0x00443a18        0x8 d:/mingw/bin/../lib/gcc/mingw32/4.5.2/../../../libmsvcrt.a(duyms00681.o)
                0x00443a18                memcmp
 .text          0x00443a20        0x8 d:/mingw/bin/../lib/gcc/mingw32/4.5.2/../../../libmsvcrt.a(duyms00620.o)
                0x00443a20                fputc
 .text          0x00443a28        0x8 d:/mingw/bin/../lib/gcc/mingw32/4.5.2/../../../libmsvcrt.a(duyms00680.o)
                0x00443a28                memchr
 .text          0x00443a30        0x8 d:/mingw/bin/../lib/gcc/mingw32/4.5.2/../../../libmsvcrt.a(duyms00583.o)
                0x00443a30                abort
 .text          0x00443a38        0x8 d:/mingw/bin/../lib/gcc/mingw32/4.5.2/../../../libmsvcrt.a(duyms00746.o)
                0x00443a38                ungetc
 .text          0x00443a40        0x8 d:/mingw/bin/../lib/gcc/mingw32/4.5.2/../../../libmsvcrt.a(duyms00624.o)
                0x00443a40                fread
 .text          0x00443a48        0x8 d:/mingw/bin/../lib/gcc/mingw32/4.5.2/../../../libmsvcrt.a(duyms00637.o)
                0x00443a48                getenv
 .text          0x00443a50        0x8 d:/mingw/bin/../lib/gcc/mingw32/4.5.2/../../../libmsvcrt.a(duyms00699.o)
                0x00443a50                remove
 .text          0x00443a58        0x8 d:/mingw/bin/../lib/gcc/mingw32/4.5.2/../../../libmsvcrt.a(duyms00739.o)
                0x00443a58                time
 .text          0x00443a60        0x0 d:/mingw/bin/../lib/gcc/mingw32/4.5.2/../../../libmsvcrt.a(duyms00538.o)
 .text          0x00443a60        0x8 d:/mingw/bin/../lib/gcc/mingw32/4.5.2/../../../libmsvcrt.a(duyms00682.o)
                0x00443a60                memcpy
 .text          0x00443a68        0x8 d:/mingw/bin/../lib/gcc/mingw32/4.5.2/../../../libmsvcrt.a(duyms00595.o)
                0x00443a68                calloc
 .text          0x00443a70        0x0 d:/mingw/bin/../lib/gcc/mingw32/4.5.2/../../../libmsvcrt.a(duymh.o)
 .text          0x00443a70        0x0 d:/mingw/bin/../lib/gcc/mingw32/4.5.2/../../../libmsvcrt.a(duymt.o)
 .text          0x00443a70        0x8 d:/mingw/bin/../lib/gcc/mingw32/4.5.2/../../../libkernel32.a(dchds01140.o)
                0x00443a70                SetUnhandledExceptionFilter@4
 .text          0x00443a78        0x8 d:/mingw/bin/../lib/gcc/mingw32/4.5.2/../../../libkernel32.a(dchds00279.o)
                0x00443a78                ExitProcess@4
 .text          0x00443a80        0x8 d:/mingw/bin/../lib/gcc/mingw32/4.5.2/../../../libkernel32.a(dchds00529.o)
                0x00443a80                GetModuleHandleA@4
 .text          0x00443a88        0x8 d:/mingw/bin/../lib/gcc/mingw32/4.5.2/../../../libkernel32.a(dchds00577.o)
                0x00443a88                GetProcAddress@8
 .text          0x00443a90        0x8 d:/mingw/bin/../lib/gcc/mingw32/4.5.2/../../../libkernel32.a(dchds00656.o)
                0x00443a90                GetTickCount@0
 .text          0x00443a98        0x8 d:/mingw/bin/../lib/gcc/mingw32/4.5.2/../../../libkernel32.a(dchds01267.o)
                0x00443a98                WriteFile@20
 .text          0x00443aa0        0x8 d:/mingw/bin/../lib/gcc/mingw32/4.5.2/../../../libkernel32.a(dchds00608.o)
                0x00443aa0                GetStdHandle@4
 .text          0x00443aa8        0x8 d:/mingw/bin/../lib/gcc/mingw32/4.5.2/../../../libkernel32.a(dchds00426.o)
                0x00443aa8                GetConsoleMode@8
 .text          0x00443ab0        0x8 d:/mingw/bin/../lib/gcc/mingw32/4.5.2/../../../libkernel32.a(dchds01037.o)
                0x00443ab0                SetConsoleMode@8
 .text          0x00443ab8        0x8 d:/mingw/bin/../lib/gcc/mingw32/4.5.2/../../../libkernel32.a(dchds00947.o)
                0x00443ab8                ReadFile@20
 .text          0x00443ac0        0x8 d:/mingw/bin/../lib/gcc/mingw32/4.5.2/../../../libkernel32.a(dchds00817.o)
                0x00443ac0                LoadLibraryA@4
 .text          0x00443ac8        0x8 d:/mingw/bin/../lib/gcc/mingw32/4.5.2/../../../libkernel32.a(dchds00352.o)
                0x00443ac8                FreeLibrary@4
 .text          0x00443ad0        0x8 d:/mingw/bin/../lib/gcc/mingw32/4.5.2/../../../libkernel32.a(dchds00082.o)
                0x00443ad0                CloseHandle@4
 .text          0x00443ad8        0x8 d:/mingw/bin/../lib/gcc/mingw32/4.5.2/../../../libkernel32.a(dchds01065.o)
                0x00443ad8                SetEvent@4
 .text          0x00443ae0        0x8 d:/mingw/bin/../lib/gcc/mingw32/4.5.2/../../../libkernel32.a(dchds01223.o)
                0x00443ae0                WaitForSingleObject@8
 .text          0x00443ae8        0x8 d:/mingw/bin/../lib/gcc/mingw32/4.5.2/../../../libkernel32.a(dchds00510.o)
                0x00443ae8                GetLastError@0
 .text          0x00443af0        0x8 d:/mingw/bin/../lib/gcc/mingw32/4.5.2/../../../libkernel32.a(dchds00564.o)
                0x00443af0                GetOverlappedResult@16
 .text          0x00443af8        0x8 d:/mingw/bin/../lib/gcc/mingw32/4.5.2/../../../libkernel32.a(dchds00129.o)
                0x00443af8                CreateEventA@16
 .text          0x00443b00        0x8 d:/mingw/bin/../lib/gcc/mingw32/4.5.2/../../../libkernel32.a(dchds00179.o)
                0x00443b00                CreateThread@24
 .text          0x00443b08        0x8 d:/mingw/bin/../lib/gcc/mingw32/4.5.2/../../../libkernel32.a(dchds00671.o)
                0x00443b08                GetVersionExA@4
 .text          0x00443b10        0x8 d:/mingw/bin/../lib/gcc/mingw32/4.5.2/../../../libkernel32.a(dchds00619.o)
                0x00443b10                GetSystemDirectoryA@8
 .text          0x00443b18        0x8 d:/mingw/bin/../lib/gcc/mingw32/4.5.2/../../../libkernel32.a(dchds00016.o)
                0x00443b18                AllocConsole@0
 .text          0x00443b20        0x8 d:/mingw/bin/../lib/gcc/mingw32/4.5.2/../../../libkernel32.a(dchds00682.o)
                0x00443b20                GetWindowsDirectoryA@8
 .text          0x00443b28        0x8 d:/mingw/bin/../lib/gcc/mingw32/4.5.2/../../../libkernel32.a(dchds00304.o)
                0x00443b28                FindFirstFileA@8
 .text          0x00443b30        0x8 d:/mingw/bin/../lib/gcc/mingw32/4.5.2/../../../libkernel32.a(dchds00321.o)
                0x00443b30                FindNextFileA@8
 .text          0x00443b38        0x8 d:/mingw/bin/../lib/gcc/mingw32/4.5.2/../../../libkernel32.a(dchds00300.o)
                0x00443b38                FindClose@4
 .text          0x00443b40        0x8 d:/mingw/bin/../lib/gcc/mingw32/4.5.2/../../../libkernel32.a(dchds00447.o)
                0x00443b40                GetCurrentProcessId@0
 .text          0x00443b48        0x8 d:/mingw/bin/../lib/gcc/mingw32/4.5.2/../../../libkernel32.a(dchds00627.o)
                0x00443b48                GetSystemTime@4
 .text          0x00443b50        0x8 d:/mingw/bin/../lib/gcc/mingw32/4.5.2/../../../libkernel32.a(dchds00628.o)
                0x00443b50                GetSystemTimeAdjustment@12
 .text          0x00443b58        0x8 d:/mingw/bin/../lib/gcc/mingw32/4.5.2/../../../libkernel32.a(dchds00699.o)
                0x00443b58                GlobalMemoryStatus@4
 .text          0x00443b60        0x8 d:/mingw/bin/../lib/gcc/mingw32/4.5.2/../../../libkernel32.a(dchds00450.o)
                0x00443b60                GetCurrentThread@0
 .text          0x00443b68        0x8 d:/mingw/bin/../lib/gcc/mingw32/4.5.2/../../../libkernel32.a(dchds00653.o)
                0x00443b68                GetThreadTimes@20
 .text          0x00443b70        0x8 d:/mingw/bin/../lib/gcc/mingw32/4.5.2/../../../libkernel32.a(dchds00446.o)
                0x00443b70                GetCurrentProcess@0
 .text          0x00443b78        0x8 d:/mingw/bin/../lib/gcc/mingw32/4.5.2/../../../libkernel32.a(dchds00590.o)
                0x00443b78                GetProcessTimes@20
 .text          0x00443b80        0x8 d:/mingw/bin/../lib/gcc/mingw32/4.5.2/../../../libkernel32.a(dchds00922.o)
                0x00443b80                QueryPerformanceCounter@4
 .text          0x00443b88        0x8 d:/mingw/bin/../lib/gcc/mingw32/4.5.2/../../../libkernel32.a(dchds00885.o)
                0x00443b88                OpenProcess@12
 .text          0x00443b90        0x8 d:/mingw/bin/../lib/gcc/mingw32/4.5.2/../../../libkernel32.a(dchds00829.o)
                0x00443b90                LocalFree@4
 .text          0x00443b98        0x8 d:/mingw/bin/../lib/gcc/mingw32/4.5.2/../../../libkernel32.a(dchds00825.o)
                0x00443b98                LocalAlloc@8
 .text          0x00443ba0        0x8 d:/mingw/bin/../lib/gcc/mingw32/4.5.2/../../../libkernel32.a(dchds00451.o)
                0x00443ba0                GetCurrentThreadId@0
 .text          0x00443ba8        0x8 d:/mingw/bin/../lib/gcc/mingw32/4.5.2/../../../libkernel32.a(dchds00136.o)
                0x00443ba8                CreateFileMappingA@24
 .text          0x00443bb0        0x8 d:/mingw/bin/../lib/gcc/mingw32/4.5.2/../../../libkernel32.a(dchds00844.o)
                0x00443bb0                MapViewOfFile@20
 .text          0x00443bb8        0x8 d:/mingw/bin/../lib/gcc/mingw32/4.5.2/../../../libkernel32.a(dchds01188.o)
                0x00443bb8                UnmapViewOfFile@4
 .text          0x00443bc0        0x8 d:/mingw/bin/../lib/gcc/mingw32/4.5.2/../../../libkernel32.a(dchds00160.o)
                0x00443bc0                CreatePipe@16
 .text          0x00443bc8        0x8 d:/mingw/bin/../lib/gcc/mingw32/4.5.2/../../../libkernel32.a(dchds01088.o)
                0x00443bc8                SetHandleInformation@12
 .text          0x00443bd0        0x8 d:/mingw/bin/../lib/gcc/mingw32/4.5.2/../../../libkernel32.a(dchds00163.o)
                0x00443bd0                CreateProcessA@40
 .text          0x00443bd8        0x8 d:/mingw/bin/../lib/gcc/mingw32/4.5.2/../../../libkernel32.a(dchds01052.o)
                0x00443bd8                SetCurrentDirectoryA@4
 .text          0x00443be0        0x8 d:/mingw/bin/../lib/gcc/mingw32/4.5.2/../../../libkernel32.a(dchds00347.o)
                0x00443be0                FormatMessageA@28
 .text          0x00443be8        0x8 d:/mingw/bin/../lib/gcc/mingw32/4.5.2/../../../libkernel32.a(dchds00444.o)
                0x00443be8                GetCurrentDirectoryA@8
 .text          0x00443bf0        0x8 d:/mingw/bin/../lib/gcc/mingw32/4.5.2/../../../libkernel32.a(dchds00135.o)
                0x00443bf0                CreateFileA@28
 .text          0x00443bf8        0x8 d:/mingw/bin/../lib/gcc/mingw32/4.5.2/../../../libkernel32.a(dchds00492.o)
                0x00443bf8                GetFileSize@8
 .text          0x00443c00        0x8 d:/mingw/bin/../lib/gcc/mingw32/4.5.2/../../../libkernel32.a(dchds00494.o)
                0x00443c00                GetFileTime@16
 .text          0x00443c08        0x8 d:/mingw/bin/../lib/gcc/mingw32/4.5.2/../../../libkernel32.a(dchds01082.o)
                0x00443c08                SetFileTime@16
 .text          0x00443c10        0x8 d:/mingw/bin/../lib/gcc/mingw32/4.5.2/../../../libkernel32.a(dchds01078.o)
                0x00443c10                SetFilePointer@16
 .text          0x00443c18        0x8 d:/mingw/bin/../lib/gcc/mingw32/4.5.2/../../../libkernel32.a(dchds00481.o)
                0x00443c18                GetFileAttributesA@4
 .text          0x00443c20        0x8 d:/mingw/bin/../lib/gcc/mingw32/4.5.2/../../../libkernel32.a(dchds00123.o)
                0x00443c20                CreateDirectoryA@8
 .text          0x00443c28        0x8 d:/mingw/bin/../lib/gcc/mingw32/4.5.2/../../../libkernel32.a(dchds01221.o)
                0x00443c28                WaitForMultipleObjects@16
 .text          0x00443c30        0x8 d:/mingw/bin/../lib/gcc/mingw32/4.5.2/../../../libkernel32.a(dchds00473.o)
                0x00443c30                GetEnvironmentVariableA@12
 .text          0x00443c38        0x8 d:/mingw/bin/../lib/gcc/mingw32/4.5.2/../../../libkernel32.a(dchds00511.o)
                0x00443c38                GetLocalTime@4
 .text          0x00443c40        0x8 d:/mingw/bin/../lib/gcc/mingw32/4.5.2/../../../libkernel32.a(dchds01215.o)
                0x00443c40                VirtualQuery@12
 .text          0x00443c48        0x8 d:/mingw/bin/../lib/gcc/mingw32/4.5.2/../../../libkernel32.a(dchds01213.o)
                0x00443c48                VirtualProtect@16
 .text          0x00443c50        0x8 d:/mingw/bin/../lib/gcc/mingw32/4.5.2/../../../libkernel32.a(dchds01173.o)
                0x00443c50                TlsGetValue@4
 .text          0x00443c58        0x8 d:/mingw/bin/../lib/gcc/mingw32/4.5.2/../../../libkernel32.a(dchds00207.o)
                0x00443c58                DeleteCriticalSection@4
 .text          0x00443c60        0x8 d:/mingw/bin/../lib/gcc/mingw32/4.5.2/../../../libkernel32.a(dchds00734.o)
                0x00443c60                InitializeCriticalSection@4
 .text          0x00443c68        0x8 d:/mingw/bin/../lib/gcc/mingw32/4.5.2/../../../libkernel32.a(dchds00236.o)
                0x00443c68                EnterCriticalSection@4
 .text          0x00443c70        0x8 d:/mingw/bin/../lib/gcc/mingw32/4.5.2/../../../libkernel32.a(dchds00814.o)
                0x00443c70                LeaveCriticalSection@4
 .text          0x00443c78        0x0 d:/mingw/bin/../lib/gcc/mingw32/4.5.2/../../../libkernel32.a(dchdh.o)
 .text          0x00443c78        0x0 d:/mingw/bin/../lib/gcc/mingw32/4.5.2/../../../libkernel32.a(dchdt.o)
 .text          0x00443c78       0x1c d:/mingw/bin/../lib/gcc/mingw32/4.5.2/crtend.o
 *(SORT(.text$*))
 *(.text.*)
 *(.glue_7t)
 *(.glue_7)
                0x00443c94                ___CTOR_LIST__ = .
                0x00443c94                __CTOR_LIST__ = .
                0x00443c94        0x4 LONG 0xffffffff
 *(.ctors)
 *(.ctor)
 *(SORT(.ctors.*))
 .ctors.65535   0x00443c98        0x4 d:/mingw/bin/../lib/gcc/mingw32/4.5.2/crtend.o
                0x00443c9c        0x4 LONG 0x0
                0x00443ca0                ___DTOR_LIST__ = .
                0x00443ca0                __DTOR_LIST__ = .
                0x00443ca0        0x4 LONG 0xffffffff
 *(.dtors)
 *(.dtor)
 *(SORT(.dtors.*))
                0x00443ca4        0x4 LONG 0x0
 *(.fini)
 *(.gcc_exc)
                0x00443ca8                PROVIDE (etext, .)
 *(.gcc_except_table)

.data           0x00444000      0x400
                0x00444000                __data_start__ = .
 *(.data)
 .data          0x00444000        0x0 d:/mingw/bin/../lib/gcc/mingw32/4.5.2/../../../crt2.o
 .data          0x00444000        0x0 d:/mingw/bin/../lib/gcc/mingw32/4.5.2/crtbegin.o
 .data          0x00444000        0x0 be_none.o
 .data          0x00444000        0x0 cmdline.o
 .data          0x00444000        0x0 cproxy.o
 .data          0x00444000        0x0 int64.o
 .data          0x00444000        0x0 logging.o
 .data          0x00444000        0x0 misc.o
 .data          0x00444000       0x24 pgssapi.o
                0x00444000                GSS_C_NT_USER_NAME
                0x00444004                GSS_C_NT_MACHINE_UID_NAME
                0x00444008                GSS_C_NT_STRING_UID_NAME
                0x0044400c                GSS_C_NT_HOSTBASED_SERVICE_X
                0x00444010                GSS_C_NT_HOSTBASED_SERVICE
                0x00444014                GSS_C_NT_ANONYMOUS
                0x00444018                GSS_C_NT_EXPORT_NAME
 .data          0x00444024        0x0 pinger.o
 .data          0x00444024        0x0 portfwd.o
 .data          0x00444024        0x0 proxy.o
 *fill*         0x00444024       0x1c 00
 .data          0x00444040      0x240 psftp.o
 .data          0x00444280        0x0 settings.o
 .data          0x00444280        0x0 sftp.o
 .data          0x00444280       0xc0 ssh.o
                0x00444280                ssh_backend
 .data          0x00444340        0x0 sshaes.o
 .data          0x00444340        0x0 ssharcf.o
 .data          0x00444340        0x0 sshblowf.o
 .data          0x00444340       0x10 sshbn.o
                0x00444340                bnOne
                0x00444348                Zero
                0x0044434c                One
 .data          0x00444350        0x0 sshcrc.o
 .data          0x00444350        0x4 sshcrcda.o
                0x00444350                ONE
 .data          0x00444354        0x0 sshdes.o
 .data          0x00444354        0x0 sshdh.o
 .data          0x00444354        0x0 sshdss.o
 .data          0x00444354        0x0 sshgssc.o
 .data          0x00444354        0x0 sshmd5.o
 .data          0x00444354        0x0 sshpubk.o
 .data          0x00444354        0x0 sshrand.o
 .data          0x00444354        0x0 sshrsa.o
 .data          0x00444354        0x0 sshsh256.o
 .data          0x00444354        0x0 sshsh512.o
 .data          0x00444354        0x0 sshsha.o
 .data          0x00444354        0x0 sshzlib.o
 .data          0x00444354        0x0 timing.o
 .data          0x00444354        0x0 tree234.o
 *fill*         0x00444354        0xc 00
 .data          0x00444360       0x80 version.o
                0x00444360                ver
                0x004443a0                sshver
 .data          0x004443e0        0x0 wildcard.o
 .data          0x004443e0        0x0 wincons.o
 .data          0x004443e0        0x0 windefs.o
 .data          0x004443e0        0x0 wingss.o
 .data          0x004443e0        0x0 winhandl.o
 .data          0x004443e0        0x4 winmisc.o
 .data          0x004443e4        0x0 winnet.o
 .data          0x004443e4        0x0 winnoise.o
 .data          0x004443e4        0x0 winnojmp.o
 .data          0x004443e4        0x0 winpgntc.o
 .data          0x004443e4        0x0 winproxy.o
 .data          0x004443e4        0x8 winsftp.o
 .data          0x004443ec        0x0 winstore.o
 .data          0x004443ec        0x0 wintime.o
 .data          0x004443ec        0x0 x11fwd.o
 .data          0x004443ec        0x0 d:/mingw/bin/../lib/gcc/mingw32/4.5.2/../../../libadvapi32.a(dgxgs00412.o)
 .data          0x004443ec        0x0 d:/mingw/bin/../lib/gcc/mingw32/4.5.2/../../../libadvapi32.a(dgxgs00423.o)
 .data          0x004443ec        0x0 d:/mingw/bin/../lib/gcc/mingw32/4.5.2/../../../libadvapi32.a(dgxgs00386.o)
 .data          0x004443ec        0x0 d:/mingw/bin/../lib/gcc/mingw32/4.5.2/../../../libadvapi32.a(dgxgs00245.o)
 .data          0x004443ec        0x0 d:/mingw/bin/../lib/gcc/mingw32/4.5.2/../../../libadvapi32.a(dgxgs00196.o)
 .data          0x004443ec        0x0 d:/mingw/bin/../lib/gcc/mingw32/4.5.2/../../../libadvapi32.a(dgxgs00083.o)
 .data          0x004443ec        0x0 d:/mingw/bin/../lib/gcc/mingw32/4.5.2/../../../libadvapi32.a(dgxgs00393.o)
 .data          0x004443ec        0x0 d:/mingw/bin/../lib/gcc/mingw32/4.5.2/../../../libadvapi32.a(dgxgs00400.o)
 .data          0x004443ec        0x0 d:/mingw/bin/../lib/gcc/mingw32/4.5.2/../../../libadvapi32.a(dgxgs00389.o)
 .data          0x004443ec        0x0 d:/mingw/bin/../lib/gcc/mingw32/4.5.2/../../../libadvapi32.a(dgxgs00434.o)
 .data          0x004443ec        0x0 d:/mingw/bin/../lib/gcc/mingw32/4.5.2/../../../libadvapi32.a(dgxgs00390.o)
 .data          0x004443ec        0x0 d:/mingw/bin/../lib/gcc/mingw32/4.5.2/../../../libadvapi32.a(dgxgs00397.o)
 .data          0x004443ec        0x0 d:/mingw/bin/../lib/gcc/mingw32/4.5.2/../../../libadvapi32.a(dgxgh.o)
 .data          0x004443ec        0x0 d:/mingw/bin/../lib/gcc/mingw32/4.5.2/../../../libadvapi32.a(dgxgt.o)
 .data          0x004443ec        0x0 d:/mingw/bin/../lib/gcc/mingw32/4.5.2/../../../libuser32.a(daois00259.o)
 .data          0x004443ec        0x0 d:/mingw/bin/../lib/gcc/mingw32/4.5.2/../../../libuser32.a(daois00224.o)
 .data          0x004443ec        0x0 d:/mingw/bin/../lib/gcc/mingw32/4.5.2/../../../libuser32.a(daois00241.o)
 .data          0x004443ec        0x0 d:/mingw/bin/../lib/gcc/mingw32/4.5.2/../../../libuser32.a(daois00310.o)
 .data          0x004443ec        0x0 d:/mingw/bin/../lib/gcc/mingw32/4.5.2/../../../libuser32.a(daois00247.o)
 .data          0x004443ec        0x0 d:/mingw/bin/../lib/gcc/mingw32/4.5.2/../../../libuser32.a(daois00210.o)
 .data          0x004443ec        0x0 d:/mingw/bin/../lib/gcc/mingw32/4.5.2/../../../libuser32.a(daois00508.o)
 .data          0x004443ec        0x0 d:/mingw/bin/../lib/gcc/mingw32/4.5.2/../../../libuser32.a(daoih.o)
 .data          0x004443ec        0x0 d:/mingw/bin/../lib/gcc/mingw32/4.5.2/../../../libuser32.a(daoit.o)
 .data          0x004443ec        0x0 d:/mingw/bin/../lib/gcc/mingw32/4.5.2/../../../libmingw32.a(tlssup.o)
 .data          0x004443ec        0x4 d:/mingw/bin/../lib/gcc/mingw32/4.5.2/../../../libmingw32.a(CRTglob.o)
                0x004443ec                _CRT_glob
 .data          0x004443f0        0x0 d:/mingw/bin/../lib/gcc/mingw32/4.5.2/../../../libmingw32.a(CRTfmode.o)
 .data          0x004443f0        0x4 d:/mingw/bin/../lib/gcc/mingw32/4.5.2/../../../libmingw32.a(txtmode.o)
                0x004443f0                _fmode
 .data          0x004443f4        0x0 d:/mingw/bin/../lib/gcc/mingw32/4.5.2/../../../libmingw32.a(cpu_features.o)
 .data          0x004443f4        0x0 d:/mingw/bin/../lib/gcc/mingw32/4.5.2/../../../libmingw32.a(pseudo-reloc.o)
 .data          0x004443f4        0x4 d:/mingw/bin/../lib/gcc/mingw32/4.5.2/../../../libmingw32.a(gccmain.o)
 .data          0x004443f8        0x0 d:/mingw/bin/../lib/gcc/mingw32/4.5.2/../../../libmingw32.a(CRT_fp10.o)
 .data          0x004443f8        0x0 d:/mingw/bin/../lib/gcc/mingw32/4.5.2/../../../libmingw32.a(crtst.o)
 .data          0x004443f8        0x0 d:/mingw/bin/../lib/gcc/mingw32/4.5.2/../../../libmingw32.a(tlsthrd.o)
 .data          0x004443f8        0x0 d:/mingw/bin/../lib/gcc/mingw32/4.5.2/../../../libmingw32.a(pseudo-reloc-list.o)
 .data          0x004443f8        0x0 d:/mingw/bin/../lib/gcc/mingw32/4.5.2/libgcc.a(_chkstk.o)
 .data          0x004443f8        0x0 d:/mingw/bin/../lib/gcc/mingw32/4.5.2/libgcc.a(_umoddi3.o)
 .data          0x004443f8        0x0 d:/mingw/bin/../lib/gcc/mingw32/4.5.2/libgcc.a(_udivdi3.o)
 .data          0x004443f8        0x0 d:/mingw/bin/../lib/gcc/mingw32/4.5.2/libgcc.a(_ctors.o)
 .data          0x004443f8        0x0 d:/mingw/bin/../lib/gcc/mingw32/4.5.2/../../../libmoldname.a(dgzls00084.o)
 .data          0x004443f8        0x0 d:/mingw/bin/../lib/gcc/mingw32/4.5.2/../../../libmoldname.a(dgzls00081.o)
 .data          0x004443f8        0x0 d:/mingw/bin/../lib/gcc/mingw32/4.5.2/../../../libmoldname.a(dgzlh.o)
 .data          0x004443f8        0x0 d:/mingw/bin/../lib/gcc/mingw32/4.5.2/../../../libmoldname.a(dgzlt.o)
 .data          0x004443f8        0x0 d:/mingw/bin/../lib/gcc/mingw32/4.5.2/../../../libmsvcrt.a(duyms00590.o)
 .data          0x004443f8        0x0 d:/mingw/bin/../lib/gcc/mingw32/4.5.2/../../../libmsvcrt.a(duyms00383.o)
 .data          0x004443f8        0x0 d:/mingw/bin/../lib/gcc/mingw32/4.5.2/../../../libmsvcrt.a(duyms00266.o)
 .data          0x004443f8        0x0 d:/mingw/bin/../lib/gcc/mingw32/4.5.2/../../../libmsvcrt.a(duyms00099.o)
 .data          0x004443f8        0x0 d:/mingw/bin/../lib/gcc/mingw32/4.5.2/../../../libmsvcrt.a(duyms00055.o)
 .data          0x004443f8        0x0 d:/mingw/bin/../lib/gcc/mingw32/4.5.2/../../../libmsvcrt.a(duyms00079.o)
 .data          0x004443f8        0x0 d:/mingw/bin/../lib/gcc/mingw32/4.5.2/../../../libmsvcrt.a(duyms00077.o)
 .data          0x004443f8        0x0 d:/mingw/bin/../lib/gcc/mingw32/4.5.2/../../../libmsvcrt.a(duyms00147.o)
 .data          0x004443f8        0x0 d:/mingw/bin/../lib/gcc/mingw32/4.5.2/../../../libmsvcrt.a(duyms00426.o)
 .data          0x004443f8        0x0 d:/mingw/bin/../lib/gcc/mingw32/4.5.2/../../../libmsvcrt.a(duyms00706.o)
 .data          0x004443f8        0x0 d:/mingw/bin/../lib/gcc/mingw32/4.5.2/../../../libmsvcrt.a(duyms00724.o)
 .data          0x004443f8        0x0 d:/mingw/bin/../lib/gcc/mingw32/4.5.2/../../../libmsvcrt.a(duyms00715.o)
 .data          0x004443f8        0x0 d:/mingw/bin/../lib/gcc/mingw32/4.5.2/../../../libmsvcrt.a(duyms00714.o)
 .data          0x004443f8        0x0 d:/mingw/bin/../lib/gcc/mingw32/4.5.2/../../../libmsvcrt.a(duyms00723.o)
 .data          0x004443f8        0x0 d:/mingw/bin/../lib/gcc/mingw32/4.5.2/../../../libmsvcrt.a(duyms00592.o)
 .data          0x004443f8        0x0 d:/mingw/bin/../lib/gcc/mingw32/4.5.2/../../../libmsvcrt.a(duyms00618.o)
 .data          0x004443f8        0x0 d:/mingw/bin/../lib/gcc/mingw32/4.5.2/../../../libmsvcrt.a(duyms00611.o)
 .data          0x004443f8        0x0 d:/mingw/bin/../lib/gcc/mingw32/4.5.2/../../../libmsvcrt.a(duyms00607.o)
 .data          0x004443f8        0x0 d:/mingw/bin/../lib/gcc/mingw32/4.5.2/../../../libmsvcrt.a(duyms00137.o)
 .data          0x004443f8        0x0 d:/mingw/bin/../lib/gcc/mingw32/4.5.2/../../../libmsvcrt.a(duyms00065.o)
 .data          0x004443f8        0x0 d:/mingw/bin/../lib/gcc/mingw32/4.5.2/../../../libmsvcrt.a(duyms00392.o)
 .data          0x004443f8        0x0 d:/mingw/bin/../lib/gcc/mingw32/4.5.2/../../../libmsvcrt.a(duyms00610.o)
 .data          0x004443f8        0x0 d:/mingw/bin/../lib/gcc/mingw32/4.5.2/../../../libmsvcrt.a(duyms00633.o)
 .data          0x004443f8        0x0 d:/mingw/bin/../lib/gcc/mingw32/4.5.2/../../../libmsvcrt.a(duyms00720.o)
 .data          0x004443f8        0x0 d:/mingw/bin/../lib/gcc/mingw32/4.5.2/../../../libmsvcrt.a(duyms00742.o)
 .data          0x004443f8        0x0 d:/mingw/bin/../lib/gcc/mingw32/4.5.2/../../../libmsvcrt.a(duyms00619.o)
 .data          0x004443f8        0x0 d:/mingw/bin/../lib/gcc/mingw32/4.5.2/../../../libmsvcrt.a(duyms00709.o)
 .data          0x004443f8        0x0 d:/mingw/bin/../lib/gcc/mingw32/4.5.2/../../../libmsvcrt.a(duyms00268.o)
 .data          0x004443f8        0x0 d:/mingw/bin/../lib/gcc/mingw32/4.5.2/../../../libmsvcrt.a(duyms00732.o)
 .data          0x004443f8        0x0 d:/mingw/bin/../lib/gcc/mingw32/4.5.2/../../../libmsvcrt.a(duyms00731.o)
 .data          0x004443f8        0x0 d:/mingw/bin/../lib/gcc/mingw32/4.5.2/../../../libmsvcrt.a(duyms00676.o)
 .data          0x004443f8        0x0 d:/mingw/bin/../lib/gcc/mingw32/4.5.2/../../../libmsvcrt.a(duyms00717.o)
 .data          0x004443f8        0x0 d:/mingw/bin/../lib/gcc/mingw32/4.5.2/../../../libmsvcrt.a(duyms00698.o)
 .data          0x004443f8        0x0 d:/mingw/bin/../lib/gcc/mingw32/4.5.2/../../../libmsvcrt.a(duyms00490.o)
 .data          0x004443f8        0x0 d:/mingw/bin/../lib/gcc/mingw32/4.5.2/../../../libmsvcrt.a(duyms00625.o)
 .data          0x004443f8        0x0 d:/mingw/bin/../lib/gcc/mingw32/4.5.2/../../../libmsvcrt.a(duyms00613.o)
 .data          0x004443f8        0x0 d:/mingw/bin/../lib/gcc/mingw32/4.5.2/../../../libmsvcrt.a(duyms00683.o)
 .data          0x004443f8        0x0 d:/mingw/bin/../lib/gcc/mingw32/4.5.2/../../../libmsvcrt.a(duyms00712.o)
 .data          0x004443f8        0x0 d:/mingw/bin/../lib/gcc/mingw32/4.5.2/../../../libmsvcrt.a(duyms00692.o)
 .data          0x004443f8        0x0 d:/mingw/bin/../lib/gcc/mingw32/4.5.2/../../../libmsvcrt.a(duyms00689.o)
 .data          0x004443f8        0x0 d:/mingw/bin/../lib/gcc/mingw32/4.5.2/../../../libmsvcrt.a(duyms00736.o)
 .data          0x004443f8        0x0 d:/mingw/bin/../lib/gcc/mingw32/4.5.2/../../../libmsvcrt.a(duyms00726.o)
 .data          0x004443f8        0x0 d:/mingw/bin/../lib/gcc/mingw32/4.5.2/../../../libmsvcrt.a(duyms00727.o)
 .data          0x004443f8        0x0 d:/mingw/bin/../lib/gcc/mingw32/4.5.2/../../../libmsvcrt.a(duyms00718.o)
 .data          0x004443f8        0x0 d:/mingw/bin/../lib/gcc/mingw32/4.5.2/../../../libmsvcrt.a(duyms00695.o)
 .data          0x004443f8        0x0 d:/mingw/bin/../lib/gcc/mingw32/4.5.2/../../../libmsvcrt.a(duyms00621.o)
 .data          0x004443f8        0x0 d:/mingw/bin/../lib/gcc/mingw32/4.5.2/../../../libmsvcrt.a(duyms00748.o)
 .data          0x004443f8        0x0 d:/mingw/bin/../lib/gcc/mingw32/4.5.2/../../../libmsvcrt.a(duyms00604.o)
 .data          0x004443f8        0x0 d:/mingw/bin/../lib/gcc/mingw32/4.5.2/../../../libmsvcrt.a(duyms00681.o)
 .data          0x004443f8        0x0 d:/mingw/bin/../lib/gcc/mingw32/4.5.2/../../../libmsvcrt.a(duyms00620.o)
 .data          0x004443f8        0x0 d:/mingw/bin/../lib/gcc/mingw32/4.5.2/../../../libmsvcrt.a(duyms00680.o)
 .data          0x004443f8        0x0 d:/mingw/bin/../lib/gcc/mingw32/4.5.2/../../../libmsvcrt.a(duyms00583.o)
 .data          0x004443f8        0x0 d:/mingw/bin/../lib/gcc/mingw32/4.5.2/../../../libmsvcrt.a(duyms00746.o)
 .data          0x004443f8        0x0 d:/mingw/bin/../lib/gcc/mingw32/4.5.2/../../../libmsvcrt.a(duyms00624.o)
 .data          0x004443f8        0x0 d:/mingw/bin/../lib/gcc/mingw32/4.5.2/../../../libmsvcrt.a(duyms00637.o)
 .data          0x004443f8        0x0 d:/mingw/bin/../lib/gcc/mingw32/4.5.2/../../../libmsvcrt.a(duyms00699.o)
 .data          0x004443f8        0x0 d:/mingw/bin/../lib/gcc/mingw32/4.5.2/../../../libmsvcrt.a(duyms00739.o)
 .data          0x004443f8        0x0 d:/mingw/bin/../lib/gcc/mingw32/4.5.2/../../../libmsvcrt.a(duyms00538.o)
 .data          0x004443f8        0x0 d:/mingw/bin/../lib/gcc/mingw32/4.5.2/../../../libmsvcrt.a(duyms00682.o)
 .data          0x004443f8        0x0 d:/mingw/bin/../lib/gcc/mingw32/4.5.2/../../../libmsvcrt.a(duyms00595.o)
 .data          0x004443f8        0x0 d:/mingw/bin/../lib/gcc/mingw32/4.5.2/../../../libmsvcrt.a(duymh.o)
 .data          0x004443f8        0x0 d:/mingw/bin/../lib/gcc/mingw32/4.5.2/../../../libmsvcrt.a(duymt.o)
 .data          0x004443f8        0x0 d:/mingw/bin/../lib/gcc/mingw32/4.5.2/../../../libkernel32.a(dchds01140.o)
 .data          0x004443f8        0x0 d:/mingw/bin/../lib/gcc/mingw32/4.5.2/../../../libkernel32.a(dchds00279.o)
 .data          0x004443f8        0x0 d:/mingw/bin/../lib/gcc/mingw32/4.5.2/../../../libkernel32.a(dchds00529.o)
 .data          0x004443f8        0x0 d:/mingw/bin/../lib/gcc/mingw32/4.5.2/../../../libkernel32.a(dchds00577.o)
 .data          0x004443f8        0x0 d:/mingw/bin/../lib/gcc/mingw32/4.5.2/../../../libkernel32.a(dchds00656.o)
 .data          0x004443f8        0x0 d:/mingw/bin/../lib/gcc/mingw32/4.5.2/../../../libkernel32.a(dchds01267.o)
 .data          0x004443f8        0x0 d:/mingw/bin/../lib/gcc/mingw32/4.5.2/../../../libkernel32.a(dchds00608.o)
 .data          0x004443f8        0x0 d:/mingw/bin/../lib/gcc/mingw32/4.5.2/../../../libkernel32.a(dchds00426.o)
 .data          0x004443f8        0x0 d:/mingw/bin/../lib/gcc/mingw32/4.5.2/../../../libkernel32.a(dchds01037.o)
 .data          0x004443f8        0x0 d:/mingw/bin/../lib/gcc/mingw32/4.5.2/../../../libkernel32.a(dchds00947.o)
 .data          0x004443f8        0x0 d:/mingw/bin/../lib/gcc/mingw32/4.5.2/../../../libkernel32.a(dchds00817.o)
 .data          0x004443f8        0x0 d:/mingw/bin/../lib/gcc/mingw32/4.5.2/../../../libkernel32.a(dchds00352.o)
 .data          0x004443f8        0x0 d:/mingw/bin/../lib/gcc/mingw32/4.5.2/../../../libkernel32.a(dchds00082.o)
 .data          0x004443f8        0x0 d:/mingw/bin/../lib/gcc/mingw32/4.5.2/../../../libkernel32.a(dchds01065.o)
 .data          0x004443f8        0x0 d:/mingw/bin/../lib/gcc/mingw32/4.5.2/../../../libkernel32.a(dchds01223.o)
 .data          0x004443f8        0x0 d:/mingw/bin/../lib/gcc/mingw32/4.5.2/../../../libkernel32.a(dchds00510.o)
 .data          0x004443f8        0x0 d:/mingw/bin/../lib/gcc/mingw32/4.5.2/../../../libkernel32.a(dchds00564.o)
 .data          0x004443f8        0x0 d:/mingw/bin/../lib/gcc/mingw32/4.5.2/../../../libkernel32.a(dchds00129.o)
 .data          0x004443f8        0x0 d:/mingw/bin/../lib/gcc/mingw32/4.5.2/../../../libkernel32.a(dchds00179.o)
 .data          0x004443f8        0x0 d:/mingw/bin/../lib/gcc/mingw32/4.5.2/../../../libkernel32.a(dchds00671.o)
 .data          0x004443f8        0x0 d:/mingw/bin/../lib/gcc/mingw32/4.5.2/../../../libkernel32.a(dchds00619.o)
 .data          0x004443f8        0x0 d:/mingw/bin/../lib/gcc/mingw32/4.5.2/../../../libkernel32.a(dchds00016.o)
 .data          0x004443f8        0x0 d:/mingw/bin/../lib/gcc/mingw32/4.5.2/../../../libkernel32.a(dchds00682.o)
 .data          0x004443f8        0x0 d:/mingw/bin/../lib/gcc/mingw32/4.5.2/../../../libkernel32.a(dchds00304.o)
 .data          0x004443f8        0x0 d:/mingw/bin/../lib/gcc/mingw32/4.5.2/../../../libkernel32.a(dchds00321.o)
 .data          0x004443f8        0x0 d:/mingw/bin/../lib/gcc/mingw32/4.5.2/../../../libkernel32.a(dchds00300.o)
 .data          0x004443f8        0x0 d:/mingw/bin/../lib/gcc/mingw32/4.5.2/../../../libkernel32.a(dchds00447.o)
 .data          0x004443f8        0x0 d:/mingw/bin/../lib/gcc/mingw32/4.5.2/../../../libkernel32.a(dchds00627.o)
 .data          0x004443f8        0x0 d:/mingw/bin/../lib/gcc/mingw32/4.5.2/../../../libkernel32.a(dchds00628.o)
 .data          0x004443f8        0x0 d:/mingw/bin/../lib/gcc/mingw32/4.5.2/../../../libkernel32.a(dchds00699.o)
 .data          0x004443f8        0x0 d:/mingw/bin/../lib/gcc/mingw32/4.5.2/../../../libkernel32.a(dchds00450.o)
 .data          0x004443f8        0x0 d:/mingw/bin/../lib/gcc/mingw32/4.5.2/../../../libkernel32.a(dchds00653.o)
 .data          0x004443f8        0x0 d:/mingw/bin/../lib/gcc/mingw32/4.5.2/../../../libkernel32.a(dchds00446.o)
 .data          0x004443f8        0x0 d:/mingw/bin/../lib/gcc/mingw32/4.5.2/../../../libkernel32.a(dchds00590.o)
 .data          0x004443f8        0x0 d:/mingw/bin/../lib/gcc/mingw32/4.5.2/../../../libkernel32.a(dchds00922.o)
 .data          0x004443f8        0x0 d:/mingw/bin/../lib/gcc/mingw32/4.5.2/../../../libkernel32.a(dchds00885.o)
 .data          0x004443f8        0x0 d:/mingw/bin/../lib/gcc/mingw32/4.5.2/../../../libkernel32.a(dchds00829.o)
 .data          0x004443f8        0x0 d:/mingw/bin/../lib/gcc/mingw32/4.5.2/../../../libkernel32.a(dchds00825.o)
 .data          0x004443f8        0x0 d:/mingw/bin/../lib/gcc/mingw32/4.5.2/../../../libkernel32.a(dchds00451.o)
 .data          0x004443f8        0x0 d:/mingw/bin/../lib/gcc/mingw32/4.5.2/../../../libkernel32.a(dchds00136.o)
 .data          0x004443f8        0x0 d:/mingw/bin/../lib/gcc/mingw32/4.5.2/../../../libkernel32.a(dchds00844.o)
 .data          0x004443f8        0x0 d:/mingw/bin/../lib/gcc/mingw32/4.5.2/../../../libkernel32.a(dchds01188.o)
 .data          0x004443f8        0x0 d:/mingw/bin/../lib/gcc/mingw32/4.5.2/../../../libkernel32.a(dchds00160.o)
 .data          0x004443f8        0x0 d:/mingw/bin/../lib/gcc/mingw32/4.5.2/../../../libkernel32.a(dchds01088.o)
 .data          0x004443f8        0x0 d:/mingw/bin/../lib/gcc/mingw32/4.5.2/../../../libkernel32.a(dchds00163.o)
 .data          0x004443f8        0x0 d:/mingw/bin/../lib/gcc/mingw32/4.5.2/../../../libkernel32.a(dchds01052.o)
 .data          0x004443f8        0x0 d:/mingw/bin/../lib/gcc/mingw32/4.5.2/../../../libkernel32.a(dchds00347.o)
 .data          0x004443f8        0x0 d:/mingw/bin/../lib/gcc/mingw32/4.5.2/../../../libkernel32.a(dchds00444.o)
 .data          0x004443f8        0x0 d:/mingw/bin/../lib/gcc/mingw32/4.5.2/../../../libkernel32.a(dchds00135.o)
 .data          0x004443f8        0x0 d:/mingw/bin/../lib/gcc/mingw32/4.5.2/../../../libkernel32.a(dchds00492.o)
 .data          0x004443f8        0x0 d:/mingw/bin/../lib/gcc/mingw32/4.5.2/../../../libkernel32.a(dchds00494.o)
 .data          0x004443f8        0x0 d:/mingw/bin/../lib/gcc/mingw32/4.5.2/../../../libkernel32.a(dchds01082.o)
 .data          0x004443f8        0x0 d:/mingw/bin/../lib/gcc/mingw32/4.5.2/../../../libkernel32.a(dchds01078.o)
 .data          0x004443f8        0x0 d:/mingw/bin/../lib/gcc/mingw32/4.5.2/../../../libkernel32.a(dchds00481.o)
 .data          0x004443f8        0x0 d:/mingw/bin/../lib/gcc/mingw32/4.5.2/../../../libkernel32.a(dchds00123.o)
 .data          0x004443f8        0x0 d:/mingw/bin/../lib/gcc/mingw32/4.5.2/../../../libkernel32.a(dchds01221.o)
 .data          0x004443f8        0x0 d:/mingw/bin/../lib/gcc/mingw32/4.5.2/../../../libkernel32.a(dchds00473.o)
 .data          0x004443f8        0x0 d:/mingw/bin/../lib/gcc/mingw32/4.5.2/../../../libkernel32.a(dchds00511.o)
 .data          0x004443f8        0x0 d:/mingw/bin/../lib/gcc/mingw32/4.5.2/../../../libkernel32.a(dchds01215.o)
 .data          0x004443f8        0x0 d:/mingw/bin/../lib/gcc/mingw32/4.5.2/../../../libkernel32.a(dchds01213.o)
 .data          0x004443f8        0x0 d:/mingw/bin/../lib/gcc/mingw32/4.5.2/../../../libkernel32.a(dchds01173.o)
 .data          0x004443f8        0x0 d:/mingw/bin/../lib/gcc/mingw32/4.5.2/../../../libkernel32.a(dchds00207.o)
 .data          0x004443f8        0x0 d:/mingw/bin/../lib/gcc/mingw32/4.5.2/../../../libkernel32.a(dchds00734.o)
 .data          0x004443f8        0x0 d:/mingw/bin/../lib/gcc/mingw32/4.5.2/../../../libkernel32.a(dchds00236.o)
 .data          0x004443f8        0x0 d:/mingw/bin/../lib/gcc/mingw32/4.5.2/../../../libkernel32.a(dchds00814.o)
 .data          0x004443f8        0x0 d:/mingw/bin/../lib/gcc/mingw32/4.5.2/../../../libkernel32.a(dchdh.o)
 .data          0x004443f8        0x0 d:/mingw/bin/../lib/gcc/mingw32/4.5.2/../../../libkernel32.a(dchdt.o)
 .data          0x004443f8        0x0 d:/mingw/bin/../lib/gcc/mingw32/4.5.2/crtend.o
 *(.data2)
 *(SORT(.data$*))
 *(.jcr)
 .jcr           0x004443f8        0x0 d:/mingw/bin/../lib/gcc/mingw32/4.5.2/crtbegin.o
 .jcr           0x004443f8        0x4 d:/mingw/bin/../lib/gcc/mingw32/4.5.2/crtend.o
                0x004443fc                __data_end__ = .
 *(.data_cygwin_nocopy)

.rdata          0x00445000    0x11400
 *(.rdata)
 .rdata         0x00445000       0x64 d:/mingw/bin/../lib/gcc/mingw32/4.5.2/crtbegin.o
 .rdata         0x00445064      0x21c cmdline.o
 .rdata         0x00445280      0x140 cproxy.o
 .rdata         0x004453c0       0x1c int64.o
 .rdata         0x004453dc      0x264 logging.o
 .rdata         0x00445640      0x1e0 misc.o
 .rdata         0x00445820       0xc0 pgssapi.o
                0x00445820                GSS_MECH_KRB5
 .rdata         0x004458e0       0x54 portfwd.o
 *fill*         0x00445934        0xc 00
 .rdata         0x00445940      0x600 proxy.o
 .rdata         0x00445f40     0x25e8 psftp.o
                0x00446dfc                appname
 *fill*         0x00448528       0x18 00
 .rdata         0x00448540      0xf80 settings.o
                0x00449000                ttymodes
 .rdata         0x004494c0      0x3c0 sftp.o
 .rdata         0x00449880     0x4280 ssh.o
 .rdata         0x0044db00     0x2520 sshaes.o
                0x0044db4c                ssh2_aes
 .rdata         0x00450020       0xe0 ssharcf.o
                0x00450060                ssh_arcfour128_ssh2
                0x004500c0                ssh_arcfour256_ssh2
                0x004500ec                ssh2_arcfour
 .rdata         0x00450100     0x1180 sshblowf.o
                0x00450130                ssh_blowfish_ssh1
                0x0045014c                ssh2_blowfish
 .rdata         0x00451280       0x44 sshbn.o
 *fill*         0x004512c4       0x1c 00
 .rdata         0x004512e0      0x400 sshcrc.o
 .rdata         0x004516e0       0x58 sshcrcda.o
 *fill*         0x00451738        0x8 00
 .rdata         0x00451740      0xc20 sshdes.o
                0x0045175c                ssh2_3des
                0x00451764                ssh2_des
                0x00451784                ssh_3des
                0x004517b0                ssh_des
 .rdata         0x00452360      0x340 sshdh.o
                0x00452360                ssh_diffiehellman_group1
                0x00452368                ssh_diffiehellman_group14
                0x00452370                ssh_diffiehellman_gex
 .rdata         0x004526a0       0xe0 sshdss.o
                0x00452720                ssh_dss
 .rdata         0x00452780        0x8 sshgssc.o
 *fill*         0x00452788       0x18 00
 .rdata         0x004527a0       0x60 sshmd5.o
                0x004527c0                ssh_hmac_md5
 .rdata         0x00452800      0x324 sshpubk.o
 .rdata         0x00452b24       0x20 sshrand.o
 *fill*         0x00452b44       0x1c 00
 .rdata         0x00452b60      0x1c0 sshrsa.o
                0x00452c40                ssh_rsa
                0x00452c78                ssh_rsa_kex
 .rdata         0x00452d20      0x120 sshsh256.o
                0x00452d28                ssh_sha256
 .rdata         0x00452e40      0x2c0 sshsh512.o
 .rdata         0x00453100      0x1a0 sshsha.o
                0x00453108                ssh_sha1
                0x00453140                ssh_hmac_sha1
                0x004531a0                ssh_hmac_sha1_96
                0x00453200                ssh_hmac_sha1_buggy
                0x00453260                ssh_hmac_sha1_96_buggy
 .rdata         0x004532a0      0x4e0 sshzlib.o
                0x00453360                ssh_zlib
 .rdata         0x00453780       0x40 tree234.o
 .rdata         0x004537c0       0xfc wildcard.o
 *fill*         0x004538bc        0x4 00
 .rdata         0x004538c0      0xce0 wincons.o
 .rdata         0x004545a0       0x38 windefs.o
 *fill*         0x004545d8        0x8 00
 .rdata         0x004545e0      0x5e0 wingss.o
                0x00454b08                ngsslibs
                0x00454b5c                gsslibnames
                0x00454b80                gsslibkeywords
                0x00454bb0                gss_mech_krb5
 .rdata         0x00454bc0       0x58 winhandl.o
 .rdata         0x00454c18       0x34 winmisc.o
 *fill*         0x00454c4c       0x14 00
 .rdata         0x00454c60      0xc40 winnet.o
                0x0045506c                in6addr_any
                0x0045507c                in6addr_loopback
 .rdata         0x004558a0       0x98 winpgntc.o
 *fill*         0x00455938        0x8 00
 .rdata         0x00455940       0xc0 winproxy.o
 .rdata         0x00455a00       0xe0 winsftp.o
                0x00455a90                platform_uses_x11_unix_by_default
 .rdata         0x00455ae0      0x3d4 winstore.o
 .rdata         0x00455eb4      0x280 x11fwd.o
                0x004560fc                x11_authnames
 .rdata         0x00456134       0x40 d:/mingw/bin/../lib/gcc/mingw32/4.5.2/../../../libmingw32.a(tlssup.o)
                0x00456170                __dyn_tls_init_callback
 .rdata         0x00456174       0xac d:/mingw/bin/../lib/gcc/mingw32/4.5.2/../../../libmingw32.a(pseudo-reloc.o)
 *(SORT(.rdata$*))
                0x00456220                __rt_psrelocs_start = .
 *(.rdata_runtime_pseudo_reloc)
                0x00456220                __rt_psrelocs_end = .
                0x00000000                __rt_psrelocs_size = (__rt_psrelocs_end - __rt_psrelocs_start)
                0x00456220                ___RUNTIME_PSEUDO_RELOC_LIST_END__ = .
                0x00456220                __RUNTIME_PSEUDO_RELOC_LIST_END__ = .
                0x00456220                ___RUNTIME_PSEUDO_RELOC_LIST__ = (. - __rt_psrelocs_size)
                0x00456220                __RUNTIME_PSEUDO_RELOC_LIST__ = (. - __rt_psrelocs_size)

.eh_frame       0x00457000      0x200
 *(.eh_frame*)
 .eh_frame      0x00457000        0x0 d:/mingw/bin/../lib/gcc/mingw32/4.5.2/crtbegin.o
 .eh_frame      0x00457000       0x6c d:/mingw/bin/../lib/gcc/mingw32/4.5.2/libgcc.a(_umoddi3.o)
 .eh_frame      0x0045706c       0x6c d:/mingw/bin/../lib/gcc/mingw32/4.5.2/libgcc.a(_udivdi3.o)
 .eh_frame      0x004570d8        0x4 d:/mingw/bin/../lib/gcc/mingw32/4.5.2/crtend.o

.pdata
 *(.pdata)

.bss            0x00458000     0x3bd8
                0x00458000                __bss_start__ = .
 *(.bss)
 .bss           0x00458000        0x8 d:/mingw/bin/../lib/gcc/mingw32/4.5.2/../../../crt2.o
                0x00458000                _argc
                0x00458004                _argv
 .bss           0x00458008       0x18 d:/mingw/bin/../lib/gcc/mingw32/4.5.2/crtbegin.o
 .bss           0x00458020        0x4 be_none.o
                0x00458020                backends
 .bss           0x00458024       0x24 cmdline.o
                0x00458024                cmdline_tooltype
 .bss           0x00458048        0x0 cproxy.o
 .bss           0x00458048        0x0 int64.o
 .bss           0x00458048        0x0 logging.o
 .bss           0x00458048        0x0 misc.o
 .bss           0x00458048        0x0 pgssapi.o
 .bss           0x00458048        0x0 pinger.o
 .bss           0x00458048        0x0 portfwd.o
 .bss           0x00458048        0x0 proxy.o
 *fill*         0x00458048       0x18 00
 .bss           0x00458060     0x2c00 psftp.o
 .bss           0x0045ac60        0x0 settings.o
 .bss           0x0045ac60        0xc sftp.o
 *fill*         0x0045ac6c       0x14 00
 .bss           0x0045ac80       0xa0 ssh.o
 .bss           0x0045ad20        0x0 sshaes.o
 .bss           0x0045ad20        0x0 ssharcf.o
 .bss           0x0045ad20        0x0 sshblowf.o
 .bss           0x0045ad20        0x4 sshbn.o
                0x0045ad20                bnZero
 .bss           0x0045ad24        0x0 sshcrc.o
 .bss           0x0045ad24        0x4 sshcrcda.o
                0x0045ad24                ZERO
 .bss           0x0045ad28        0x0 sshdes.o
 .bss           0x0045ad28        0x0 sshdh.o
 .bss           0x0045ad28        0x0 sshdss.o
 .bss           0x0045ad28        0x0 sshgssc.o
 .bss           0x0045ad28        0x0 sshmd5.o
 .bss           0x0045ad28        0xc sshpubk.o
                0x0045ad28                ssh2_wrong_passphrase
 *fill*         0x0045ad34        0xc 00
 .bss           0x0045ad40      0x540 sshrand.o
                0x0045ad40                random_active
 .bss           0x0045b280        0x0 sshrsa.o
 .bss           0x0045b280        0x0 sshsh256.o
 .bss           0x0045b280        0x0 sshsh512.o
 .bss           0x0045b280        0x0 sshsha.o
 .bss           0x0045b280        0x0 sshzlib.o
 .bss           0x0045b280        0xc timing.o
 .bss           0x0045b28c        0x0 tree234.o
 .bss           0x0045b28c        0x0 version.o
 .bss           0x0045b28c        0x0 wildcard.o
 .bss           0x0045b28c        0x8 wincons.o
                0x0045b28c                console_batch_mode
 .bss           0x0045b294        0x0 windefs.o
 .bss           0x0045b294       0x20 wingss.o
                0x0045b294                gsslogmsg
 .bss           0x0045b2b4        0x4 winhandl.o
 .bss           0x0045b2b8       0x14 winmisc.o
 *fill*         0x0045b2cc       0x14 00
 .bss           0x0045b2e0      0x700 winnet.o
 .bss           0x0045b9e0        0x0 winnoise.o
 .bss           0x0045b9e0        0x0 winnojmp.o
 .bss           0x0045b9e0       0x18 winpgntc.o
                0x0045b9e0                advapi_initialised
 .bss           0x0045b9f8        0x0 winproxy.o
 .bss           0x0045b9f8        0x0 winsftp.o
 .bss           0x0045b9f8        0xc winstore.o
 .bss           0x0045ba04        0x0 wintime.o
 .bss           0x0045ba04        0x0 x11fwd.o
 .bss           0x0045ba04        0x0 d:/mingw/bin/../lib/gcc/mingw32/4.5.2/../../../libadvapi32.a(dgxgs00412.o)
 .bss           0x0045ba04        0x0 d:/mingw/bin/../lib/gcc/mingw32/4.5.2/../../../libadvapi32.a(dgxgs00423.o)
 .bss           0x0045ba04        0x0 d:/mingw/bin/../lib/gcc/mingw32/4.5.2/../../../libadvapi32.a(dgxgs00386.o)
 .bss           0x0045ba04        0x0 d:/mingw/bin/../lib/gcc/mingw32/4.5.2/../../../libadvapi32.a(dgxgs00245.o)
 .bss           0x0045ba04        0x0 d:/mingw/bin/../lib/gcc/mingw32/4.5.2/../../../libadvapi32.a(dgxgs00196.o)
 .bss           0x0045ba04        0x0 d:/mingw/bin/../lib/gcc/mingw32/4.5.2/../../../libadvapi32.a(dgxgs00083.o)
 .bss           0x0045ba04        0x0 d:/mingw/bin/../lib/gcc/mingw32/4.5.2/../../../libadvapi32.a(dgxgs00393.o)
 .bss           0x0045ba04        0x0 d:/mingw/bin/../lib/gcc/mingw32/4.5.2/../../../libadvapi32.a(dgxgs00400.o)
 .bss           0x0045ba04        0x0 d:/mingw/bin/../lib/gcc/mingw32/4.5.2/../../../libadvapi32.a(dgxgs00389.o)
 .bss           0x0045ba04        0x0 d:/mingw/bin/../lib/gcc/mingw32/4.5.2/../../../libadvapi32.a(dgxgs00434.o)
 .bss           0x0045ba04        0x0 d:/mingw/bin/../lib/gcc/mingw32/4.5.2/../../../libadvapi32.a(dgxgs00390.o)
 .bss           0x0045ba04        0x0 d:/mingw/bin/../lib/gcc/mingw32/4.5.2/../../../libadvapi32.a(dgxgs00397.o)
 .bss           0x0045ba04        0x0 d:/mingw/bin/../lib/gcc/mingw32/4.5.2/../../../libadvapi32.a(dgxgh.o)
 .bss           0x0045ba04        0x0 d:/mingw/bin/../lib/gcc/mingw32/4.5.2/../../../libadvapi32.a(dgxgt.o)
 .bss           0x0045ba04        0x0 d:/mingw/bin/../lib/gcc/mingw32/4.5.2/../../../libuser32.a(daois00259.o)
 .bss           0x0045ba04        0x0 d:/mingw/bin/../lib/gcc/mingw32/4.5.2/../../../libuser32.a(daois00224.o)
 .bss           0x0045ba04        0x0 d:/mingw/bin/../lib/gcc/mingw32/4.5.2/../../../libuser32.a(daois00241.o)
 .bss           0x0045ba04        0x0 d:/mingw/bin/../lib/gcc/mingw32/4.5.2/../../../libuser32.a(daois00310.o)
 .bss           0x0045ba04        0x0 d:/mingw/bin/../lib/gcc/mingw32/4.5.2/../../../libuser32.a(daois00247.o)
 .bss           0x0045ba04        0x0 d:/mingw/bin/../lib/gcc/mingw32/4.5.2/../../../libuser32.a(daois00210.o)
 .bss           0x0045ba04        0x0 d:/mingw/bin/../lib/gcc/mingw32/4.5.2/../../../libuser32.a(daois00508.o)
 .bss           0x0045ba04        0x0 d:/mingw/bin/../lib/gcc/mingw32/4.5.2/../../../libuser32.a(daoih.o)
 .bss           0x0045ba04        0x0 d:/mingw/bin/../lib/gcc/mingw32/4.5.2/../../../libuser32.a(daoit.o)
 *fill*         0x0045ba04        0x4 00
 .bss           0x0045ba08       0x20 d:/mingw/bin/../lib/gcc/mingw32/4.5.2/../../../libmingw32.a(tlssup.o)
                0x0045ba08                _tls_index
                0x0045ba0c                mingw_initltsdrot_force
                0x0045ba10                mingw_initltsdyn_force
                0x0045ba14                mingw_initltssuo_force
 .bss           0x0045ba28        0x0 d:/mingw/bin/../lib/gcc/mingw32/4.5.2/../../../libmingw32.a(CRTglob.o)
 .bss           0x0045ba28        0x4 d:/mingw/bin/../lib/gcc/mingw32/4.5.2/../../../libmingw32.a(CRTfmode.o)
                0x0045ba28                _CRT_fmode
 .bss           0x0045ba2c        0x0 d:/mingw/bin/../lib/gcc/mingw32/4.5.2/../../../libmingw32.a(txtmode.o)
 .bss           0x0045ba2c        0x4 d:/mingw/bin/../lib/gcc/mingw32/4.5.2/../../../libmingw32.a(cpu_features.o)
                0x0045ba2c                __cpu_features
 .bss           0x0045ba30       0x10 d:/mingw/bin/../lib/gcc/mingw32/4.5.2/../../../libmingw32.a(pseudo-reloc.o)
 .bss           0x0045ba40       0x10 d:/mingw/bin/../lib/gcc/mingw32/4.5.2/../../../libmingw32.a(gccmain.o)
 .bss           0x0045ba50        0x0 d:/mingw/bin/../lib/gcc/mingw32/4.5.2/../../../libmingw32.a(CRT_fp10.o)
 .bss           0x0045ba50        0x4 d:/mingw/bin/../lib/gcc/mingw32/4.5.2/../../../libmingw32.a(crtst.o)
                0x0045ba50                _CRT_MT
 *fill*         0x0045ba54        0x4 00
 .bss           0x0045ba58       0x40 d:/mingw/bin/../lib/gcc/mingw32/4.5.2/../../../libmingw32.a(tlsthrd.o)
 .bss           0x0045ba98        0x4 d:/mingw/bin/../lib/gcc/mingw32/4.5.2/../../../libmingw32.a(pseudo-reloc-list.o)
 .bss           0x0045ba9c        0x0 d:/mingw/bin/../lib/gcc/mingw32/4.5.2/libgcc.a(_chkstk.o)
 .bss           0x0045ba9c        0x0 d:/mingw/bin/../lib/gcc/mingw32/4.5.2/libgcc.a(_umoddi3.o)
 .bss           0x0045ba9c        0x0 d:/mingw/bin/../lib/gcc/mingw32/4.5.2/libgcc.a(_udivdi3.o)
 .bss           0x0045ba9c        0x0 d:/mingw/bin/../lib/gcc/mingw32/4.5.2/libgcc.a(_ctors.o)
 .bss           0x0045ba9c        0x0 d:/mingw/bin/../lib/gcc/mingw32/4.5.2/../../../libmoldname.a(dgzls00084.o)
 .bss           0x0045ba9c        0x0 d:/mingw/bin/../lib/gcc/mingw32/4.5.2/../../../libmoldname.a(dgzls00081.o)
 .bss           0x0045ba9c        0x0 d:/mingw/bin/../lib/gcc/mingw32/4.5.2/../../../libmoldname.a(dgzlh.o)
 .bss           0x0045ba9c        0x0 d:/mingw/bin/../lib/gcc/mingw32/4.5.2/../../../libmoldname.a(dgzlt.o)
 .bss           0x0045ba9c        0x0 d:/mingw/bin/../lib/gcc/mingw32/4.5.2/../../../libmsvcrt.a(duyms00590.o)
 .bss           0x0045ba9c        0x0 d:/mingw/bin/../lib/gcc/mingw32/4.5.2/../../../libmsvcrt.a(duyms00383.o)
 .bss           0x0045ba9c        0x0 d:/mingw/bin/../lib/gcc/mingw32/4.5.2/../../../libmsvcrt.a(duyms00266.o)
 .bss           0x0045ba9c        0x0 d:/mingw/bin/../lib/gcc/mingw32/4.5.2/../../../libmsvcrt.a(duyms00099.o)
 .bss           0x0045ba9c        0x0 d:/mingw/bin/../lib/gcc/mingw32/4.5.2/../../../libmsvcrt.a(duyms00055.o)
 .bss           0x0045ba9c        0x0 d:/mingw/bin/../lib/gcc/mingw32/4.5.2/../../../libmsvcrt.a(duyms00079.o)
 .bss           0x0045ba9c        0x0 d:/mingw/bin/../lib/gcc/mingw32/4.5.2/../../../libmsvcrt.a(duyms00077.o)
 .bss           0x0045ba9c        0x0 d:/mingw/bin/../lib/gcc/mingw32/4.5.2/../../../libmsvcrt.a(duyms00147.o)
 .bss           0x0045ba9c        0x0 d:/mingw/bin/../lib/gcc/mingw32/4.5.2/../../../libmsvcrt.a(duyms00426.o)
 .bss           0x0045ba9c        0x0 d:/mingw/bin/../lib/gcc/mingw32/4.5.2/../../../libmsvcrt.a(duyms00706.o)
 .bss           0x0045ba9c        0x0 d:/mingw/bin/../lib/gcc/mingw32/4.5.2/../../../libmsvcrt.a(duyms00724.o)
 .bss           0x0045ba9c        0x0 d:/mingw/bin/../lib/gcc/mingw32/4.5.2/../../../libmsvcrt.a(duyms00715.o)
 .bss           0x0045ba9c        0x0 d:/mingw/bin/../lib/gcc/mingw32/4.5.2/../../../libmsvcrt.a(duyms00714.o)
 .bss           0x0045ba9c        0x0 d:/mingw/bin/../lib/gcc/mingw32/4.5.2/../../../libmsvcrt.a(duyms00723.o)
 .bss           0x0045ba9c        0x0 d:/mingw/bin/../lib/gcc/mingw32/4.5.2/../../../libmsvcrt.a(duyms00592.o)
 .bss           0x0045ba9c        0x0 d:/mingw/bin/../lib/gcc/mingw32/4.5.2/../../../libmsvcrt.a(duyms00618.o)
 .bss           0x0045ba9c        0x0 d:/mingw/bin/../lib/gcc/mingw32/4.5.2/../../../libmsvcrt.a(duyms00611.o)
 .bss           0x0045ba9c        0x0 d:/mingw/bin/../lib/gcc/mingw32/4.5.2/../../../libmsvcrt.a(duyms00607.o)
 .bss           0x0045ba9c        0x0 d:/mingw/bin/../lib/gcc/mingw32/4.5.2/../../../libmsvcrt.a(duyms00137.o)
 .bss           0x0045ba9c        0x0 d:/mingw/bin/../lib/gcc/mingw32/4.5.2/../../../libmsvcrt.a(duyms00065.o)
 .bss           0x0045ba9c        0x0 d:/mingw/bin/../lib/gcc/mingw32/4.5.2/../../../libmsvcrt.a(duyms00392.o)
 .bss           0x0045ba9c        0x0 d:/mingw/bin/../lib/gcc/mingw32/4.5.2/../../../libmsvcrt.a(duyms00610.o)
 .bss           0x0045ba9c        0x0 d:/mingw/bin/../lib/gcc/mingw32/4.5.2/../../../libmsvcrt.a(duyms00633.o)
 .bss           0x0045ba9c        0x0 d:/mingw/bin/../lib/gcc/mingw32/4.5.2/../../../libmsvcrt.a(duyms00720.o)
 .bss           0x0045ba9c        0x0 d:/mingw/bin/../lib/gcc/mingw32/4.5.2/../../../libmsvcrt.a(duyms00742.o)
 .bss           0x0045ba9c        0x0 d:/mingw/bin/../lib/gcc/mingw32/4.5.2/../../../libmsvcrt.a(duyms00619.o)
 .bss           0x0045ba9c        0x0 d:/mingw/bin/../lib/gcc/mingw32/4.5.2/../../../libmsvcrt.a(duyms00709.o)
 .bss           0x0045ba9c        0x0 d:/mingw/bin/../lib/gcc/mingw32/4.5.2/../../../libmsvcrt.a(duyms00268.o)
 .bss           0x0045ba9c        0x0 d:/mingw/bin/../lib/gcc/mingw32/4.5.2/../../../libmsvcrt.a(duyms00732.o)
 .bss           0x0045ba9c        0x0 d:/mingw/bin/../lib/gcc/mingw32/4.5.2/../../../libmsvcrt.a(duyms00731.o)
 .bss           0x0045ba9c        0x0 d:/mingw/bin/../lib/gcc/mingw32/4.5.2/../../../libmsvcrt.a(duyms00676.o)
 .bss           0x0045ba9c        0x0 d:/mingw/bin/../lib/gcc/mingw32/4.5.2/../../../libmsvcrt.a(duyms00717.o)
 .bss           0x0045ba9c        0x0 d:/mingw/bin/../lib/gcc/mingw32/4.5.2/../../../libmsvcrt.a(duyms00698.o)
 .bss           0x0045ba9c        0x0 d:/mingw/bin/../lib/gcc/mingw32/4.5.2/../../../libmsvcrt.a(duyms00490.o)
 .bss           0x0045ba9c        0x0 d:/mingw/bin/../lib/gcc/mingw32/4.5.2/../../../libmsvcrt.a(duyms00625.o)
 .bss           0x0045ba9c        0x0 d:/mingw/bin/../lib/gcc/mingw32/4.5.2/../../../libmsvcrt.a(duyms00613.o)
 .bss           0x0045ba9c        0x0 d:/mingw/bin/../lib/gcc/mingw32/4.5.2/../../../libmsvcrt.a(duyms00683.o)
 .bss           0x0045ba9c        0x0 d:/mingw/bin/../lib/gcc/mingw32/4.5.2/../../../libmsvcrt.a(duyms00712.o)
 .bss           0x0045ba9c        0x0 d:/mingw/bin/../lib/gcc/mingw32/4.5.2/../../../libmsvcrt.a(duyms00692.o)
 .bss           0x0045ba9c        0x0 d:/mingw/bin/../lib/gcc/mingw32/4.5.2/../../../libmsvcrt.a(duyms00689.o)
 .bss           0x0045ba9c        0x0 d:/mingw/bin/../lib/gcc/mingw32/4.5.2/../../../libmsvcrt.a(duyms00736.o)
 .bss           0x0045ba9c        0x0 d:/mingw/bin/../lib/gcc/mingw32/4.5.2/../../../libmsvcrt.a(duyms00726.o)
 .bss           0x0045ba9c        0x0 d:/mingw/bin/../lib/gcc/mingw32/4.5.2/../../../libmsvcrt.a(duyms00727.o)
 .bss           0x0045ba9c        0x0 d:/mingw/bin/../lib/gcc/mingw32/4.5.2/../../../libmsvcrt.a(duyms00718.o)
 .bss           0x0045ba9c        0x0 d:/mingw/bin/../lib/gcc/mingw32/4.5.2/../../../libmsvcrt.a(duyms00695.o)
 .bss           0x0045ba9c        0x0 d:/mingw/bin/../lib/gcc/mingw32/4.5.2/../../../libmsvcrt.a(duyms00621.o)
 .bss           0x0045ba9c        0x0 d:/mingw/bin/../lib/gcc/mingw32/4.5.2/../../../libmsvcrt.a(duyms00748.o)
 .bss           0x0045ba9c        0x0 d:/mingw/bin/../lib/gcc/mingw32/4.5.2/../../../libmsvcrt.a(duyms00604.o)
 .bss           0x0045ba9c        0x0 d:/mingw/bin/../lib/gcc/mingw32/4.5.2/../../../libmsvcrt.a(duyms00681.o)
 .bss           0x0045ba9c        0x0 d:/mingw/bin/../lib/gcc/mingw32/4.5.2/../../../libmsvcrt.a(duyms00620.o)
 .bss           0x0045ba9c        0x0 d:/mingw/bin/../lib/gcc/mingw32/4.5.2/../../../libmsvcrt.a(duyms00680.o)
 .bss           0x0045ba9c        0x0 d:/mingw/bin/../lib/gcc/mingw32/4.5.2/../../../libmsvcrt.a(duyms00583.o)
 .bss           0x0045ba9c        0x0 d:/mingw/bin/../lib/gcc/mingw32/4.5.2/../../../libmsvcrt.a(duyms00746.o)
 .bss           0x0045ba9c        0x0 d:/mingw/bin/../lib/gcc/mingw32/4.5.2/../../../libmsvcrt.a(duyms00624.o)
 .bss           0x0045ba9c        0x0 d:/mingw/bin/../lib/gcc/mingw32/4.5.2/../../../libmsvcrt.a(duyms00637.o)
 .bss           0x0045ba9c        0x0 d:/mingw/bin/../lib/gcc/mingw32/4.5.2/../../../libmsvcrt.a(duyms00699.o)
 .bss           0x0045ba9c        0x0 d:/mingw/bin/../lib/gcc/mingw32/4.5.2/../../../libmsvcrt.a(duyms00739.o)
 .bss           0x0045ba9c        0x0 d:/mingw/bin/../lib/gcc/mingw32/4.5.2/../../../libmsvcrt.a(duyms00538.o)
 .bss           0x0045ba9c        0x0 d:/mingw/bin/../lib/gcc/mingw32/4.5.2/../../../libmsvcrt.a(duyms00682.o)
 .bss           0x0045ba9c        0x0 d:/mingw/bin/../lib/gcc/mingw32/4.5.2/../../../libmsvcrt.a(duyms00595.o)
 .bss           0x0045ba9c        0x0 d:/mingw/bin/../lib/gcc/mingw32/4.5.2/../../../libmsvcrt.a(duymh.o)
 .bss           0x0045ba9c        0x0 d:/mingw/bin/../lib/gcc/mingw32/4.5.2/../../../libmsvcrt.a(duymt.o)
 .bss           0x0045ba9c        0x0 d:/mingw/bin/../lib/gcc/mingw32/4.5.2/../../../libkernel32.a(dchds01140.o)
 .bss           0x0045ba9c        0x0 d:/mingw/bin/../lib/gcc/mingw32/4.5.2/../../../libkernel32.a(dchds00279.o)
 .bss           0x0045ba9c        0x0 d:/mingw/bin/../lib/gcc/mingw32/4.5.2/../../../libkernel32.a(dchds00529.o)
 .bss           0x0045ba9c        0x0 d:/mingw/bin/../lib/gcc/mingw32/4.5.2/../../../libkernel32.a(dchds00577.o)
 .bss           0x0045ba9c        0x0 d:/mingw/bin/../lib/gcc/mingw32/4.5.2/../../../libkernel32.a(dchds00656.o)
 .bss           0x0045ba9c        0x0 d:/mingw/bin/../lib/gcc/mingw32/4.5.2/../../../libkernel32.a(dchds01267.o)
 .bss           0x0045ba9c        0x0 d:/mingw/bin/../lib/gcc/mingw32/4.5.2/../../../libkernel32.a(dchds00608.o)
 .bss           0x0045ba9c        0x0 d:/mingw/bin/../lib/gcc/mingw32/4.5.2/../../../libkernel32.a(dchds00426.o)
 .bss           0x0045ba9c        0x0 d:/mingw/bin/../lib/gcc/mingw32/4.5.2/../../../libkernel32.a(dchds01037.o)
 .bss           0x0045ba9c        0x0 d:/mingw/bin/../lib/gcc/mingw32/4.5.2/../../../libkernel32.a(dchds00947.o)
 .bss           0x0045ba9c        0x0 d:/mingw/bin/../lib/gcc/mingw32/4.5.2/../../../libkernel32.a(dchds00817.o)
 .bss           0x0045ba9c        0x0 d:/mingw/bin/../lib/gcc/mingw32/4.5.2/../../../libkernel32.a(dchds00352.o)
 .bss           0x0045ba9c        0x0 d:/mingw/bin/../lib/gcc/mingw32/4.5.2/../../../libkernel32.a(dchds00082.o)
 .bss           0x0045ba9c        0x0 d:/mingw/bin/../lib/gcc/mingw32/4.5.2/../../../libkernel32.a(dchds01065.o)
 .bss           0x0045ba9c        0x0 d:/mingw/bin/../lib/gcc/mingw32/4.5.2/../../../libkernel32.a(dchds01223.o)
 .bss           0x0045ba9c        0x0 d:/mingw/bin/../lib/gcc/mingw32/4.5.2/../../../libkernel32.a(dchds00510.o)
 .bss           0x0045ba9c        0x0 d:/mingw/bin/../lib/gcc/mingw32/4.5.2/../../../libkernel32.a(dchds00564.o)
 .bss           0x0045ba9c        0x0 d:/mingw/bin/../lib/gcc/mingw32/4.5.2/../../../libkernel32.a(dchds00129.o)
 .bss           0x0045ba9c        0x0 d:/mingw/bin/../lib/gcc/mingw32/4.5.2/../../../libkernel32.a(dchds00179.o)
 .bss           0x0045ba9c        0x0 d:/mingw/bin/../lib/gcc/mingw32/4.5.2/../../../libkernel32.a(dchds00671.o)
 .bss           0x0045ba9c        0x0 d:/mingw/bin/../lib/gcc/mingw32/4.5.2/../../../libkernel32.a(dchds00619.o)
 .bss           0x0045ba9c        0x0 d:/mingw/bin/../lib/gcc/mingw32/4.5.2/../../../libkernel32.a(dchds00016.o)
 .bss           0x0045ba9c        0x0 d:/mingw/bin/../lib/gcc/mingw32/4.5.2/../../../libkernel32.a(dchds00682.o)
 .bss           0x0045ba9c        0x0 d:/mingw/bin/../lib/gcc/mingw32/4.5.2/../../../libkernel32.a(dchds00304.o)
 .bss           0x0045ba9c        0x0 d:/mingw/bin/../lib/gcc/mingw32/4.5.2/../../../libkernel32.a(dchds00321.o)
 .bss           0x0045ba9c        0x0 d:/mingw/bin/../lib/gcc/mingw32/4.5.2/../../../libkernel32.a(dchds00300.o)
 .bss           0x0045ba9c        0x0 d:/mingw/bin/../lib/gcc/mingw32/4.5.2/../../../libkernel32.a(dchds00447.o)
 .bss           0x0045ba9c        0x0 d:/mingw/bin/../lib/gcc/mingw32/4.5.2/../../../libkernel32.a(dchds00627.o)
 .bss           0x0045ba9c        0x0 d:/mingw/bin/../lib/gcc/mingw32/4.5.2/../../../libkernel32.a(dchds00628.o)
 .bss           0x0045ba9c        0x0 d:/mingw/bin/../lib/gcc/mingw32/4.5.2/../../../libkernel32.a(dchds00699.o)
 .bss           0x0045ba9c        0x0 d:/mingw/bin/../lib/gcc/mingw32/4.5.2/../../../libkernel32.a(dchds00450.o)
 .bss           0x0045ba9c        0x0 d:/mingw/bin/../lib/gcc/mingw32/4.5.2/../../../libkernel32.a(dchds00653.o)
 .bss           0x0045ba9c        0x0 d:/mingw/bin/../lib/gcc/mingw32/4.5.2/../../../libkernel32.a(dchds00446.o)
 .bss           0x0045ba9c        0x0 d:/mingw/bin/../lib/gcc/mingw32/4.5.2/../../../libkernel32.a(dchds00590.o)
 .bss           0x0045ba9c        0x0 d:/mingw/bin/../lib/gcc/mingw32/4.5.2/../../../libkernel32.a(dchds00922.o)
 .bss           0x0045ba9c        0x0 d:/mingw/bin/../lib/gcc/mingw32/4.5.2/../../../libkernel32.a(dchds00885.o)
 .bss           0x0045ba9c        0x0 d:/mingw/bin/../lib/gcc/mingw32/4.5.2/../../../libkernel32.a(dchds00829.o)
 .bss           0x0045ba9c        0x0 d:/mingw/bin/../lib/gcc/mingw32/4.5.2/../../../libkernel32.a(dchds00825.o)
 .bss           0x0045ba9c        0x0 d:/mingw/bin/../lib/gcc/mingw32/4.5.2/../../../libkernel32.a(dchds00451.o)
 .bss           0x0045ba9c        0x0 d:/mingw/bin/../lib/gcc/mingw32/4.5.2/../../../libkernel32.a(dchds00136.o)
 .bss           0x0045ba9c        0x0 d:/mingw/bin/../lib/gcc/mingw32/4.5.2/../../../libkernel32.a(dchds00844.o)
 .bss           0x0045ba9c        0x0 d:/mingw/bin/../lib/gcc/mingw32/4.5.2/../../../libkernel32.a(dchds01188.o)
 .bss           0x0045ba9c        0x0 d:/mingw/bin/../lib/gcc/mingw32/4.5.2/../../../libkernel32.a(dchds00160.o)
 .bss           0x0045ba9c        0x0 d:/mingw/bin/../lib/gcc/mingw32/4.5.2/../../../libkernel32.a(dchds01088.o)
 .bss           0x0045ba9c        0x0 d:/mingw/bin/../lib/gcc/mingw32/4.5.2/../../../libkernel32.a(dchds00163.o)
 .bss           0x0045ba9c        0x0 d:/mingw/bin/../lib/gcc/mingw32/4.5.2/../../../libkernel32.a(dchds01052.o)
 .bss           0x0045ba9c        0x0 d:/mingw/bin/../lib/gcc/mingw32/4.5.2/../../../libkernel32.a(dchds00347.o)
 .bss           0x0045ba9c        0x0 d:/mingw/bin/../lib/gcc/mingw32/4.5.2/../../../libkernel32.a(dchds00444.o)
 .bss           0x0045ba9c        0x0 d:/mingw/bin/../lib/gcc/mingw32/4.5.2/../../../libkernel32.a(dchds00135.o)
 .bss           0x0045ba9c        0x0 d:/mingw/bin/../lib/gcc/mingw32/4.5.2/../../../libkernel32.a(dchds00492.o)
 .bss           0x0045ba9c        0x0 d:/mingw/bin/../lib/gcc/mingw32/4.5.2/../../../libkernel32.a(dchds00494.o)
 .bss           0x0045ba9c        0x0 d:/mingw/bin/../lib/gcc/mingw32/4.5.2/../../../libkernel32.a(dchds01082.o)
 .bss           0x0045ba9c        0x0 d:/mingw/bin/../lib/gcc/mingw32/4.5.2/../../../libkernel32.a(dchds01078.o)
 .bss           0x0045ba9c        0x0 d:/mingw/bin/../lib/gcc/mingw32/4.5.2/../../../libkernel32.a(dchds00481.o)
 .bss           0x0045ba9c        0x0 d:/mingw/bin/../lib/gcc/mingw32/4.5.2/../../../libkernel32.a(dchds00123.o)
 .bss           0x0045ba9c        0x0 d:/mingw/bin/../lib/gcc/mingw32/4.5.2/../../../libkernel32.a(dchds01221.o)
 .bss           0x0045ba9c        0x0 d:/mingw/bin/../lib/gcc/mingw32/4.5.2/../../../libkernel32.a(dchds00473.o)
 .bss           0x0045ba9c        0x0 d:/mingw/bin/../lib/gcc/mingw32/4.5.2/../../../libkernel32.a(dchds00511.o)
 .bss           0x0045ba9c        0x0 d:/mingw/bin/../lib/gcc/mingw32/4.5.2/../../../libkernel32.a(dchds01215.o)
 .bss           0x0045ba9c        0x0 d:/mingw/bin/../lib/gcc/mingw32/4.5.2/../../../libkernel32.a(dchds01213.o)
 .bss           0x0045ba9c        0x0 d:/mingw/bin/../lib/gcc/mingw32/4.5.2/../../../libkernel32.a(dchds01173.o)
 .bss           0x0045ba9c        0x0 d:/mingw/bin/../lib/gcc/mingw32/4.5.2/../../../libkernel32.a(dchds00207.o)
 .bss           0x0045ba9c        0x0 d:/mingw/bin/../lib/gcc/mingw32/4.5.2/../../../libkernel32.a(dchds00734.o)
 .bss           0x0045ba9c        0x0 d:/mingw/bin/../lib/gcc/mingw32/4.5.2/../../../libkernel32.a(dchds00236.o)
 .bss           0x0045ba9c        0x0 d:/mingw/bin/../lib/gcc/mingw32/4.5.2/../../../libkernel32.a(dchds00814.o)
 .bss           0x0045ba9c        0x0 d:/mingw/bin/../lib/gcc/mingw32/4.5.2/../../../libkernel32.a(dchdh.o)
 .bss           0x0045ba9c        0x0 d:/mingw/bin/../lib/gcc/mingw32/4.5.2/../../../libkernel32.a(dchdt.o)
 .bss           0x0045ba9c        0x0 d:/mingw/bin/../lib/gcc/mingw32/4.5.2/crtend.o
 *(COMMON)
 COMMON         0x0045ba9c       0x44 psftp.o
                0x0045ba9c                p_WSAEnumNetworkEvents
                0x0045baa0                p_WSAAsyncSelect
                0x0045baa4                loaded_session
                0x0045baa8                term
                0x0045baac                homedir
                0x0045bab0                p_select
                0x0045bab4                default_port
                0x0045bab8                hinst
                0x0045babc                logbox
                0x0045bac0                p_WSAGetLastError
                0x0045bac4                flags
                0x0045bac8                pwd
                0x0045bacc                cmdline_session_name
                0x0045bad0                hwnd
                0x0045bad4                logctx
                0x0045bad8                default_protocol
                0x0045badc                p_WSAEventSelect
 COMMON         0x0045bae0        0x4 sshrand.o
                0x0045bae0                next_noise_collection
 *fill*         0x0045bae4       0x1c 00
 COMMON         0x0045bb00       0x94 winmisc.o
                0x0045bb00                osVersion
 COMMON         0x0045bb94        0x4 winpgntc.o
                0x0045bb94                p_GetSecurityInfo
 COMMON         0x0045bb98       0x30 d:/mingw/bin/../lib/gcc/mingw32/4.5.2/../../../libmingw32.a(tlssup.o)
                0x0045bb98                __mingw_gMTKeyDtor
                0x0045bba8                __mingw_gMTRemoveKeyDtor
                0x0045bbb8                __mingw_usemthread_dll
 COMMON         0x0045bbc8       0x10 d:/mingw/bin/../lib/gcc/mingw32/4.5.2/libgcc.a(_ctors.o)
                0x0045bbd8                __bss_end__ = .

.edata
 *(.edata)

/DISCARD/
 *(.debug$S)
 *(.debug$T)
 *(.debug$F)
 *(.drectve)
 *(.note.GNU-stack)
 *(.gnu.lto_*)

.idata          0x0045c000     0x1200
 SORT(*)(.idata$2)
 .idata$2       0x0045c000       0x14 d:/mingw/bin/../lib/gcc/mingw32/4.5.2/../../../libadvapi32.a(dgxgh.o)
                0x0045c000                _head_libadvapi32_a
 .idata$2       0x0045c014       0x14 d:/mingw/bin/../lib/gcc/mingw32/4.5.2/../../../libkernel32.a(dchdh.o)
                0x0045c014                _head_libkernel32_a
 .idata$2       0x0045c028       0x14 d:/mingw/bin/../lib/gcc/mingw32/4.5.2/../../../libmoldname.a(dgzlh.o)
                0x0045c028                _head_libmoldname_a
 .idata$2       0x0045c03c       0x14 d:/mingw/bin/../lib/gcc/mingw32/4.5.2/../../../libmsvcrt.a(duymh.o)
                0x0045c03c                _head_libmsvcrt_a
 .idata$2       0x0045c050       0x14 d:/mingw/bin/../lib/gcc/mingw32/4.5.2/../../../libuser32.a(daoih.o)
                0x0045c050                _head_libuser32_a
 SORT(*)(.idata$3)
                0x0045c064        0x4 LONG 0x0
                0x0045c068        0x4 LONG 0x0
                0x0045c06c        0x4 LONG 0x0
                0x0045c070        0x4 LONG 0x0
                0x0045c074        0x4 LONG 0x0
 SORT(*)(.idata$4)
 .idata$4       0x0045c078        0x0 d:/mingw/bin/../lib/gcc/mingw32/4.5.2/../../../libadvapi32.a(dgxgh.o)
 .idata$4       0x0045c078        0x4 d:/mingw/bin/../lib/gcc/mingw32/4.5.2/../../../libadvapi32.a(dgxgs00083.o)
 .idata$4       0x0045c07c        0x4 d:/mingw/bin/../lib/gcc/mingw32/4.5.2/../../../libadvapi32.a(dgxgs00196.o)
 .idata$4       0x0045c080        0x4 d:/mingw/bin/../lib/gcc/mingw32/4.5.2/../../../libadvapi32.a(dgxgs00245.o)
 .idata$4       0x0045c084        0x4 d:/mingw/bin/../lib/gcc/mingw32/4.5.2/../../../libadvapi32.a(dgxgs00386.o)
 .idata$4       0x0045c088        0x4 d:/mingw/bin/../lib/gcc/mingw32/4.5.2/../../../libadvapi32.a(dgxgs00389.o)
 .idata$4       0x0045c08c        0x4 d:/mingw/bin/../lib/gcc/mingw32/4.5.2/../../../libadvapi32.a(dgxgs00390.o)
 .idata$4       0x0045c090        0x4 d:/mingw/bin/../lib/gcc/mingw32/4.5.2/../../../libadvapi32.a(dgxgs00393.o)
 .idata$4       0x0045c094        0x4 d:/mingw/bin/../lib/gcc/mingw32/4.5.2/../../../libadvapi32.a(dgxgs00397.o)
 .idata$4       0x0045c098        0x4 d:/mingw/bin/../lib/gcc/mingw32/4.5.2/../../../libadvapi32.a(dgxgs00400.o)
 .idata$4       0x0045c09c        0x4 d:/mingw/bin/../lib/gcc/mingw32/4.5.2/../../../libadvapi32.a(dgxgs00412.o)
 .idata$4       0x0045c0a0        0x4 d:/mingw/bin/../lib/gcc/mingw32/4.5.2/../../../libadvapi32.a(dgxgs00423.o)
 .idata$4       0x0045c0a4        0x4 d:/mingw/bin/../lib/gcc/mingw32/4.5.2/../../../libadvapi32.a(dgxgs00434.o)
 .idata$4       0x0045c0a8        0x4 d:/mingw/bin/../lib/gcc/mingw32/4.5.2/../../../libadvapi32.a(dgxgt.o)
 .idata$4       0x0045c0ac        0x0 d:/mingw/bin/../lib/gcc/mingw32/4.5.2/../../../libkernel32.a(dchdh.o)
 .idata$4       0x0045c0ac        0x4 d:/mingw/bin/../lib/gcc/mingw32/4.5.2/../../../libkernel32.a(dchds00016.o)
 .idata$4       0x0045c0b0        0x4 d:/mingw/bin/../lib/gcc/mingw32/4.5.2/../../../libkernel32.a(dchds00082.o)
 .idata$4       0x0045c0b4        0x4 d:/mingw/bin/../lib/gcc/mingw32/4.5.2/../../../libkernel32.a(dchds00123.o)
 .idata$4       0x0045c0b8        0x4 d:/mingw/bin/../lib/gcc/mingw32/4.5.2/../../../libkernel32.a(dchds00129.o)
 .idata$4       0x0045c0bc        0x4 d:/mingw/bin/../lib/gcc/mingw32/4.5.2/../../../libkernel32.a(dchds00135.o)
 .idata$4       0x0045c0c0        0x4 d:/mingw/bin/../lib/gcc/mingw32/4.5.2/../../../libkernel32.a(dchds00136.o)
 .idata$4       0x0045c0c4        0x4 d:/mingw/bin/../lib/gcc/mingw32/4.5.2/../../../libkernel32.a(dchds00160.o)
 .idata$4       0x0045c0c8        0x4 d:/mingw/bin/../lib/gcc/mingw32/4.5.2/../../../libkernel32.a(dchds00163.o)
 .idata$4       0x0045c0cc        0x4 d:/mingw/bin/../lib/gcc/mingw32/4.5.2/../../../libkernel32.a(dchds00179.o)
 .idata$4       0x0045c0d0        0x4 d:/mingw/bin/../lib/gcc/mingw32/4.5.2/../../../libkernel32.a(dchds00207.o)
 .idata$4       0x0045c0d4        0x4 d:/mingw/bin/../lib/gcc/mingw32/4.5.2/../../../libkernel32.a(dchds00236.o)
 .idata$4       0x0045c0d8        0x4 d:/mingw/bin/../lib/gcc/mingw32/4.5.2/../../../libkernel32.a(dchds00279.o)
 .idata$4       0x0045c0dc        0x4 d:/mingw/bin/../lib/gcc/mingw32/4.5.2/../../../libkernel32.a(dchds00300.o)
 .idata$4       0x0045c0e0        0x4 d:/mingw/bin/../lib/gcc/mingw32/4.5.2/../../../libkernel32.a(dchds00304.o)
 .idata$4       0x0045c0e4        0x4 d:/mingw/bin/../lib/gcc/mingw32/4.5.2/../../../libkernel32.a(dchds00321.o)
 .idata$4       0x0045c0e8        0x4 d:/mingw/bin/../lib/gcc/mingw32/4.5.2/../../../libkernel32.a(dchds00347.o)
 .idata$4       0x0045c0ec        0x4 d:/mingw/bin/../lib/gcc/mingw32/4.5.2/../../../libkernel32.a(dchds00352.o)
 .idata$4       0x0045c0f0        0x4 d:/mingw/bin/../lib/gcc/mingw32/4.5.2/../../../libkernel32.a(dchds00426.o)
 .idata$4       0x0045c0f4        0x4 d:/mingw/bin/../lib/gcc/mingw32/4.5.2/../../../libkernel32.a(dchds00444.o)
 .idata$4       0x0045c0f8        0x4 d:/mingw/bin/../lib/gcc/mingw32/4.5.2/../../../libkernel32.a(dchds00446.o)
 .idata$4       0x0045c0fc        0x4 d:/mingw/bin/../lib/gcc/mingw32/4.5.2/../../../libkernel32.a(dchds00447.o)
 .idata$4       0x0045c100        0x4 d:/mingw/bin/../lib/gcc/mingw32/4.5.2/../../../libkernel32.a(dchds00450.o)
 .idata$4       0x0045c104        0x4 d:/mingw/bin/../lib/gcc/mingw32/4.5.2/../../../libkernel32.a(dchds00451.o)
 .idata$4       0x0045c108        0x4 d:/mingw/bin/../lib/gcc/mingw32/4.5.2/../../../libkernel32.a(dchds00473.o)
 .idata$4       0x0045c10c        0x4 d:/mingw/bin/../lib/gcc/mingw32/4.5.2/../../../libkernel32.a(dchds00481.o)
 .idata$4       0x0045c110        0x4 d:/mingw/bin/../lib/gcc/mingw32/4.5.2/../../../libkernel32.a(dchds00492.o)
 .idata$4       0x0045c114        0x4 d:/mingw/bin/../lib/gcc/mingw32/4.5.2/../../../libkernel32.a(dchds00494.o)
 .idata$4       0x0045c118        0x4 d:/mingw/bin/../lib/gcc/mingw32/4.5.2/../../../libkernel32.a(dchds00510.o)
 .idata$4       0x0045c11c        0x4 d:/mingw/bin/../lib/gcc/mingw32/4.5.2/../../../libkernel32.a(dchds00511.o)
 .idata$4       0x0045c120        0x4 d:/mingw/bin/../lib/gcc/mingw32/4.5.2/../../../libkernel32.a(dchds00529.o)
 .idata$4       0x0045c124        0x4 d:/mingw/bin/../lib/gcc/mingw32/4.5.2/../../../libkernel32.a(dchds00564.o)
 .idata$4       0x0045c128        0x4 d:/mingw/bin/../lib/gcc/mingw32/4.5.2/../../../libkernel32.a(dchds00577.o)
 .idata$4       0x0045c12c        0x4 d:/mingw/bin/../lib/gcc/mingw32/4.5.2/../../../libkernel32.a(dchds00590.o)
 .idata$4       0x0045c130        0x4 d:/mingw/bin/../lib/gcc/mingw32/4.5.2/../../../libkernel32.a(dchds00608.o)
 .idata$4       0x0045c134        0x4 d:/mingw/bin/../lib/gcc/mingw32/4.5.2/../../../libkernel32.a(dchds00619.o)
 .idata$4       0x0045c138        0x4 d:/mingw/bin/../lib/gcc/mingw32/4.5.2/../../../libkernel32.a(dchds00627.o)
 .idata$4       0x0045c13c        0x4 d:/mingw/bin/../lib/gcc/mingw32/4.5.2/../../../libkernel32.a(dchds00628.o)
 .idata$4       0x0045c140        0x4 d:/mingw/bin/../lib/gcc/mingw32/4.5.2/../../../libkernel32.a(dchds00653.o)
 .idata$4       0x0045c144        0x4 d:/mingw/bin/../lib/gcc/mingw32/4.5.2/../../../libkernel32.a(dchds00656.o)
 .idata$4       0x0045c148        0x4 d:/mingw/bin/../lib/gcc/mingw32/4.5.2/../../../libkernel32.a(dchds00671.o)
 .idata$4       0x0045c14c        0x4 d:/mingw/bin/../lib/gcc/mingw32/4.5.2/../../../libkernel32.a(dchds00682.o)
 .idata$4       0x0045c150        0x4 d:/mingw/bin/../lib/gcc/mingw32/4.5.2/../../../libkernel32.a(dchds00699.o)
 .idata$4       0x0045c154        0x4 d:/mingw/bin/../lib/gcc/mingw32/4.5.2/../../../libkernel32.a(dchds00734.o)
 .idata$4       0x0045c158        0x4 d:/mingw/bin/../lib/gcc/mingw32/4.5.2/../../../libkernel32.a(dchds00814.o)
 .idata$4       0x0045c15c        0x4 d:/mingw/bin/../lib/gcc/mingw32/4.5.2/../../../libkernel32.a(dchds00817.o)
 .idata$4       0x0045c160        0x4 d:/mingw/bin/../lib/gcc/mingw32/4.5.2/../../../libkernel32.a(dchds00825.o)
 .idata$4       0x0045c164        0x4 d:/mingw/bin/../lib/gcc/mingw32/4.5.2/../../../libkernel32.a(dchds00829.o)
 .idata$4       0x0045c168        0x4 d:/mingw/bin/../lib/gcc/mingw32/4.5.2/../../../libkernel32.a(dchds00844.o)
 .idata$4       0x0045c16c        0x4 d:/mingw/bin/../lib/gcc/mingw32/4.5.2/../../../libkernel32.a(dchds00885.o)
 .idata$4       0x0045c170        0x4 d:/mingw/bin/../lib/gcc/mingw32/4.5.2/../../../libkernel32.a(dchds00922.o)
 .idata$4       0x0045c174        0x4 d:/mingw/bin/../lib/gcc/mingw32/4.5.2/../../../libkernel32.a(dchds00947.o)
 .idata$4       0x0045c178        0x4 d:/mingw/bin/../lib/gcc/mingw32/4.5.2/../../../libkernel32.a(dchds01037.o)
 .idata$4       0x0045c17c        0x4 d:/mingw/bin/../lib/gcc/mingw32/4.5.2/../../../libkernel32.a(dchds01052.o)
 .idata$4       0x0045c180        0x4 d:/mingw/bin/../lib/gcc/mingw32/4.5.2/../../../libkernel32.a(dchds01065.o)
 .idata$4       0x0045c184        0x4 d:/mingw/bin/../lib/gcc/mingw32/4.5.2/../../../libkernel32.a(dchds01078.o)
 .idata$4       0x0045c188        0x4 d:/mingw/bin/../lib/gcc/mingw32/4.5.2/../../../libkernel32.a(dchds01082.o)
 .idata$4       0x0045c18c        0x4 d:/mingw/bin/../lib/gcc/mingw32/4.5.2/../../../libkernel32.a(dchds01088.o)
 .idata$4       0x0045c190        0x4 d:/mingw/bin/../lib/gcc/mingw32/4.5.2/../../../libkernel32.a(dchds01140.o)
 .idata$4       0x0045c194        0x4 d:/mingw/bin/../lib/gcc/mingw32/4.5.2/../../../libkernel32.a(dchds01173.o)
 .idata$4       0x0045c198        0x4 d:/mingw/bin/../lib/gcc/mingw32/4.5.2/../../../libkernel32.a(dchds01188.o)
 .idata$4       0x0045c19c        0x4 d:/mingw/bin/../lib/gcc/mingw32/4.5.2/../../../libkernel32.a(dchds01213.o)
 .idata$4       0x0045c1a0        0x4 d:/mingw/bin/../lib/gcc/mingw32/4.5.2/../../../libkernel32.a(dchds01215.o)
 .idata$4       0x0045c1a4        0x4 d:/mingw/bin/../lib/gcc/mingw32/4.5.2/../../../libkernel32.a(dchds01221.o)
 .idata$4       0x0045c1a8        0x4 d:/mingw/bin/../lib/gcc/mingw32/4.5.2/../../../libkernel32.a(dchds01223.o)
 .idata$4       0x0045c1ac        0x4 d:/mingw/bin/../lib/gcc/mingw32/4.5.2/../../../libkernel32.a(dchds01267.o)
 .idata$4       0x0045c1b0        0x4 d:/mingw/bin/../lib/gcc/mingw32/4.5.2/../../../libkernel32.a(dchdt.o)
 .idata$4       0x0045c1b4        0x0 d:/mingw/bin/../lib/gcc/mingw32/4.5.2/../../../libmoldname.a(dgzlh.o)
 .idata$4       0x0045c1b4        0x4 d:/mingw/bin/../lib/gcc/mingw32/4.5.2/../../../libmoldname.a(dgzls00081.o)
 .idata$4       0x0045c1b8        0x4 d:/mingw/bin/../lib/gcc/mingw32/4.5.2/../../../libmoldname.a(dgzls00084.o)
 .idata$4       0x0045c1bc        0x4 d:/mingw/bin/../lib/gcc/mingw32/4.5.2/../../../libmoldname.a(dgzlt.o)
 .idata$4       0x0045c1c0        0x0 d:/mingw/bin/../lib/gcc/mingw32/4.5.2/../../../libmsvcrt.a(duymh.o)
 .idata$4       0x0045c1c0        0x4 d:/mingw/bin/../lib/gcc/mingw32/4.5.2/../../../libmsvcrt.a(duyms00055.o)
 .idata$4       0x0045c1c4        0x4 d:/mingw/bin/../lib/gcc/mingw32/4.5.2/../../../libmsvcrt.a(duyms00065.o)
 .idata$4       0x0045c1c8        0x4 d:/mingw/bin/../lib/gcc/mingw32/4.5.2/../../../libmsvcrt.a(duyms00077.o)
 .idata$4       0x0045c1cc        0x4 d:/mingw/bin/../lib/gcc/mingw32/4.5.2/../../../libmsvcrt.a(duyms00079.o)
 .idata$4       0x0045c1d0        0x4 d:/mingw/bin/../lib/gcc/mingw32/4.5.2/../../../libmsvcrt.a(duyms00099.o)
 .idata$4       0x0045c1d4        0x4 d:/mingw/bin/../lib/gcc/mingw32/4.5.2/../../../libmsvcrt.a(duyms00137.o)
 .idata$4       0x0045c1d8        0x4 d:/mingw/bin/../lib/gcc/mingw32/4.5.2/../../../libmsvcrt.a(duyms00147.o)
 .idata$4       0x0045c1dc        0x4 d:/mingw/bin/../lib/gcc/mingw32/4.5.2/../../../libmsvcrt.a(duyms00266.o)
 .idata$4       0x0045c1e0        0x4 d:/mingw/bin/../lib/gcc/mingw32/4.5.2/../../../libmsvcrt.a(duyms00268.o)
 .idata$4       0x0045c1e4        0x4 d:/mingw/bin/../lib/gcc/mingw32/4.5.2/../../../libmsvcrt.a(duyms00383.o)
 .idata$4       0x0045c1e8        0x4 d:/mingw/bin/../lib/gcc/mingw32/4.5.2/../../../libmsvcrt.a(duyms00392.o)
 .idata$4       0x0045c1ec        0x4 d:/mingw/bin/../lib/gcc/mingw32/4.5.2/../../../libmsvcrt.a(duyms00426.o)
 .idata$4       0x0045c1f0        0x4 d:/mingw/bin/../lib/gcc/mingw32/4.5.2/../../../libmsvcrt.a(duyms00490.o)
 .idata$4       0x0045c1f4        0x4 d:/mingw/bin/../lib/gcc/mingw32/4.5.2/../../../libmsvcrt.a(duyms00538.o)
 .idata$4       0x0045c1f8        0x4 d:/mingw/bin/../lib/gcc/mingw32/4.5.2/../../../libmsvcrt.a(duyms00583.o)
 .idata$4       0x0045c1fc        0x4 d:/mingw/bin/../lib/gcc/mingw32/4.5.2/../../../libmsvcrt.a(duyms00590.o)
 .idata$4       0x0045c200        0x4 d:/mingw/bin/../lib/gcc/mingw32/4.5.2/../../../libmsvcrt.a(duyms00592.o)
 .idata$4       0x0045c204        0x4 d:/mingw/bin/../lib/gcc/mingw32/4.5.2/../../../libmsvcrt.a(duyms00595.o)
 .idata$4       0x0045c208        0x4 d:/mingw/bin/../lib/gcc/mingw32/4.5.2/../../../libmsvcrt.a(duyms00604.o)
 .idata$4       0x0045c20c        0x4 d:/mingw/bin/../lib/gcc/mingw32/4.5.2/../../../libmsvcrt.a(duyms00607.o)
 .idata$4       0x0045c210        0x4 d:/mingw/bin/../lib/gcc/mingw32/4.5.2/../../../libmsvcrt.a(duyms00610.o)
 .idata$4       0x0045c214        0x4 d:/mingw/bin/../lib/gcc/mingw32/4.5.2/../../../libmsvcrt.a(duyms00611.o)
 .idata$4       0x0045c218        0x4 d:/mingw/bin/../lib/gcc/mingw32/4.5.2/../../../libmsvcrt.a(duyms00613.o)
 .idata$4       0x0045c21c        0x4 d:/mingw/bin/../lib/gcc/mingw32/4.5.2/../../../libmsvcrt.a(duyms00618.o)
 .idata$4       0x0045c220        0x4 d:/mingw/bin/../lib/gcc/mingw32/4.5.2/../../../libmsvcrt.a(duyms00619.o)
 .idata$4       0x0045c224        0x4 d:/mingw/bin/../lib/gcc/mingw32/4.5.2/../../../libmsvcrt.a(duyms00620.o)
 .idata$4       0x0045c228        0x4 d:/mingw/bin/../lib/gcc/mingw32/4.5.2/../../../libmsvcrt.a(duyms00621.o)
 .idata$4       0x0045c22c        0x4 d:/mingw/bin/../lib/gcc/mingw32/4.5.2/../../../libmsvcrt.a(duyms00624.o)
 .idata$4       0x0045c230        0x4 d:/mingw/bin/../lib/gcc/mingw32/4.5.2/../../../libmsvcrt.a(duyms00625.o)
 .idata$4       0x0045c234        0x4 d:/mingw/bin/../lib/gcc/mingw32/4.5.2/../../../libmsvcrt.a(duyms00633.o)
 .idata$4       0x0045c238        0x4 d:/mingw/bin/../lib/gcc/mingw32/4.5.2/../../../libmsvcrt.a(duyms00637.o)
 .idata$4       0x0045c23c        0x4 d:/mingw/bin/../lib/gcc/mingw32/4.5.2/../../../libmsvcrt.a(duyms00676.o)
 .idata$4       0x0045c240        0x4 d:/mingw/bin/../lib/gcc/mingw32/4.5.2/../../../libmsvcrt.a(duyms00680.o)
 .idata$4       0x0045c244        0x4 d:/mingw/bin/../lib/gcc/mingw32/4.5.2/../../../libmsvcrt.a(duyms00681.o)
 .idata$4       0x0045c248        0x4 d:/mingw/bin/../lib/gcc/mingw32/4.5.2/../../../libmsvcrt.a(duyms00682.o)
 .idata$4       0x0045c24c        0x4 d:/mingw/bin/../lib/gcc/mingw32/4.5.2/../../../libmsvcrt.a(duyms00683.o)
 .idata$4       0x0045c250        0x4 d:/mingw/bin/../lib/gcc/mingw32/4.5.2/../../../libmsvcrt.a(duyms00689.o)
 .idata$4       0x0045c254        0x4 d:/mingw/bin/../lib/gcc/mingw32/4.5.2/../../../libmsvcrt.a(duyms00692.o)
 .idata$4       0x0045c258        0x4 d:/mingw/bin/../lib/gcc/mingw32/4.5.2/../../../libmsvcrt.a(duyms00695.o)
 .idata$4       0x0045c25c        0x4 d:/mingw/bin/../lib/gcc/mingw32/4.5.2/../../../libmsvcrt.a(duyms00698.o)
 .idata$4       0x0045c260        0x4 d:/mingw/bin/../lib/gcc/mingw32/4.5.2/../../../libmsvcrt.a(duyms00699.o)
 .idata$4       0x0045c264        0x4 d:/mingw/bin/../lib/gcc/mingw32/4.5.2/../../../libmsvcrt.a(duyms00706.o)
 .idata$4       0x0045c268        0x4 d:/mingw/bin/../lib/gcc/mingw32/4.5.2/../../../libmsvcrt.a(duyms00709.o)
 .idata$4       0x0045c26c        0x4 d:/mingw/bin/../lib/gcc/mingw32/4.5.2/../../../libmsvcrt.a(duyms00712.o)
 .idata$4       0x0045c270        0x4 d:/mingw/bin/../lib/gcc/mingw32/4.5.2/../../../libmsvcrt.a(duyms00714.o)
 .idata$4       0x0045c274        0x4 d:/mingw/bin/../lib/gcc/mingw32/4.5.2/../../../libmsvcrt.a(duyms00715.o)
 .idata$4       0x0045c278        0x4 d:/mingw/bin/../lib/gcc/mingw32/4.5.2/../../../libmsvcrt.a(duyms00717.o)
 .idata$4       0x0045c27c        0x4 d:/mingw/bin/../lib/gcc/mingw32/4.5.2/../../../libmsvcrt.a(duyms00718.o)
 .idata$4       0x0045c280        0x4 d:/mingw/bin/../lib/gcc/mingw32/4.5.2/../../../libmsvcrt.a(duyms00720.o)
 .idata$4       0x0045c284        0x4 d:/mingw/bin/../lib/gcc/mingw32/4.5.2/../../../libmsvcrt.a(duyms00723.o)
 .idata$4       0x0045c288        0x4 d:/mingw/bin/../lib/gcc/mingw32/4.5.2/../../../libmsvcrt.a(duyms00724.o)
 .idata$4       0x0045c28c        0x4 d:/mingw/bin/../lib/gcc/mingw32/4.5.2/../../../libmsvcrt.a(duyms00726.o)
 .idata$4       0x0045c290        0x4 d:/mingw/bin/../lib/gcc/mingw32/4.5.2/../../../libmsvcrt.a(duyms00727.o)
 .idata$4       0x0045c294        0x4 d:/mingw/bin/../lib/gcc/mingw32/4.5.2/../../../libmsvcrt.a(duyms00731.o)
 .idata$4       0x0045c298        0x4 d:/mingw/bin/../lib/gcc/mingw32/4.5.2/../../../libmsvcrt.a(duyms00732.o)
 .idata$4       0x0045c29c        0x4 d:/mingw/bin/../lib/gcc/mingw32/4.5.2/../../../libmsvcrt.a(duyms00736.o)
 .idata$4       0x0045c2a0        0x4 d:/mingw/bin/../lib/gcc/mingw32/4.5.2/../../../libmsvcrt.a(duyms00739.o)
 .idata$4       0x0045c2a4        0x4 d:/mingw/bin/../lib/gcc/mingw32/4.5.2/../../../libmsvcrt.a(duyms00742.o)
 .idata$4       0x0045c2a8        0x4 d:/mingw/bin/../lib/gcc/mingw32/4.5.2/../../../libmsvcrt.a(duyms00746.o)
 .idata$4       0x0045c2ac        0x4 d:/mingw/bin/../lib/gcc/mingw32/4.5.2/../../../libmsvcrt.a(duyms00748.o)
 .idata$4       0x0045c2b0        0x4 d:/mingw/bin/../lib/gcc/mingw32/4.5.2/../../../libmsvcrt.a(duymt.o)
 .idata$4       0x0045c2b4        0x0 d:/mingw/bin/../lib/gcc/mingw32/4.5.2/../../../libuser32.a(daoih.o)
 .idata$4       0x0045c2b4        0x4 d:/mingw/bin/../lib/gcc/mingw32/4.5.2/../../../libuser32.a(daois00210.o)
 .idata$4       0x0045c2b8        0x4 d:/mingw/bin/../lib/gcc/mingw32/4.5.2/../../../libuser32.a(daois00224.o)
 .idata$4       0x0045c2bc        0x4 d:/mingw/bin/../lib/gcc/mingw32/4.5.2/../../../libuser32.a(daois00241.o)
 .idata$4       0x0045c2c0        0x4 d:/mingw/bin/../lib/gcc/mingw32/4.5.2/../../../libuser32.a(daois00247.o)
 .idata$4       0x0045c2c4        0x4 d:/mingw/bin/../lib/gcc/mingw32/4.5.2/../../../libuser32.a(daois00259.o)
 .idata$4       0x0045c2c8        0x4 d:/mingw/bin/../lib/gcc/mingw32/4.5.2/../../../libuser32.a(daois00310.o)
 .idata$4       0x0045c2cc        0x4 d:/mingw/bin/../lib/gcc/mingw32/4.5.2/../../../libuser32.a(daois00508.o)
 .idata$4       0x0045c2d0        0x4 d:/mingw/bin/../lib/gcc/mingw32/4.5.2/../../../libuser32.a(daoit.o)
                0x0045c2d4                __IAT_start__ = .
 SORT(*)(.idata$5)
 .idata$5       0x0045c2d4        0x0 d:/mingw/bin/../lib/gcc/mingw32/4.5.2/../../../libadvapi32.a(dgxgh.o)
 .idata$5       0x0045c2d4        0x4 d:/mingw/bin/../lib/gcc/mingw32/4.5.2/../../../libadvapi32.a(dgxgs00083.o)
                0x0045c2d4                _imp__CopySid@12
 .idata$5       0x0045c2d8        0x4 d:/mingw/bin/../lib/gcc/mingw32/4.5.2/../../../libadvapi32.a(dgxgs00196.o)
                0x0045c2d8                _imp__GetLengthSid@4
 .idata$5       0x0045c2dc        0x4 d:/mingw/bin/../lib/gcc/mingw32/4.5.2/../../../libadvapi32.a(dgxgs00245.o)
                0x0045c2dc                _imp__GetUserNameA@8
 .idata$5       0x0045c2e0        0x4 d:/mingw/bin/../lib/gcc/mingw32/4.5.2/../../../libadvapi32.a(dgxgs00386.o)
                0x0045c2e0                _imp__RegCloseKey@4
 .idata$5       0x0045c2e4        0x4 d:/mingw/bin/../lib/gcc/mingw32/4.5.2/../../../libadvapi32.a(dgxgs00389.o)
                0x0045c2e4                _imp__RegCreateKeyA@12
 .idata$5       0x0045c2e8        0x4 d:/mingw/bin/../lib/gcc/mingw32/4.5.2/../../../libadvapi32.a(dgxgs00390.o)
                0x0045c2e8                _imp__RegCreateKeyExA@36
 .idata$5       0x0045c2ec        0x4 d:/mingw/bin/../lib/gcc/mingw32/4.5.2/../../../libadvapi32.a(dgxgs00393.o)
                0x0045c2ec                _imp__RegDeleteKeyA@8
 .idata$5       0x0045c2f0        0x4 d:/mingw/bin/../lib/gcc/mingw32/4.5.2/../../../libadvapi32.a(dgxgs00397.o)
                0x0045c2f0                _imp__RegDeleteValueA@8
 .idata$5       0x0045c2f4        0x4 d:/mingw/bin/../lib/gcc/mingw32/4.5.2/../../../libadvapi32.a(dgxgs00400.o)
                0x0045c2f4                _imp__RegEnumKeyA@16
 .idata$5       0x0045c2f8        0x4 d:/mingw/bin/../lib/gcc/mingw32/4.5.2/../../../libadvapi32.a(dgxgs00412.o)
                0x0045c2f8                _imp__RegOpenKeyA@12
 .idata$5       0x0045c2fc        0x4 d:/mingw/bin/../lib/gcc/mingw32/4.5.2/../../../libadvapi32.a(dgxgs00423.o)
                0x0045c2fc                _imp__RegQueryValueExA@24
 .idata$5       0x0045c300        0x4 d:/mingw/bin/../lib/gcc/mingw32/4.5.2/../../../libadvapi32.a(dgxgs00434.o)
                0x0045c300                _imp__RegSetValueExA@24
 .idata$5       0x0045c304        0x4 d:/mingw/bin/../lib/gcc/mingw32/4.5.2/../../../libadvapi32.a(dgxgt.o)
 .idata$5       0x0045c308        0x0 d:/mingw/bin/../lib/gcc/mingw32/4.5.2/../../../libkernel32.a(dchdh.o)
 .idata$5       0x0045c308        0x4 d:/mingw/bin/../lib/gcc/mingw32/4.5.2/../../../libkernel32.a(dchds00016.o)
                0x0045c308                _imp__AllocConsole@0
 .idata$5       0x0045c30c        0x4 d:/mingw/bin/../lib/gcc/mingw32/4.5.2/../../../libkernel32.a(dchds00082.o)
                0x0045c30c                _imp__CloseHandle@4
 .idata$5       0x0045c310        0x4 d:/mingw/bin/../lib/gcc/mingw32/4.5.2/../../../libkernel32.a(dchds00123.o)
                0x0045c310                _imp__CreateDirectoryA@8
 .idata$5       0x0045c314        0x4 d:/mingw/bin/../lib/gcc/mingw32/4.5.2/../../../libkernel32.a(dchds00129.o)
                0x0045c314                _imp__CreateEventA@16
 .idata$5       0x0045c318        0x4 d:/mingw/bin/../lib/gcc/mingw32/4.5.2/../../../libkernel32.a(dchds00135.o)
                0x0045c318                _imp__CreateFileA@28
 .idata$5       0x0045c31c        0x4 d:/mingw/bin/../lib/gcc/mingw32/4.5.2/../../../libkernel32.a(dchds00136.o)
                0x0045c31c                _imp__CreateFileMappingA@24
 .idata$5       0x0045c320        0x4 d:/mingw/bin/../lib/gcc/mingw32/4.5.2/../../../libkernel32.a(dchds00160.o)
                0x0045c320                _imp__CreatePipe@16
 .idata$5       0x0045c324        0x4 d:/mingw/bin/../lib/gcc/mingw32/4.5.2/../../../libkernel32.a(dchds00163.o)
                0x0045c324                _imp__CreateProcessA@40
 .idata$5       0x0045c328        0x4 d:/mingw/bin/../lib/gcc/mingw32/4.5.2/../../../libkernel32.a(dchds00179.o)
                0x0045c328                _imp__CreateThread@24
 .idata$5       0x0045c32c        0x4 d:/mingw/bin/../lib/gcc/mingw32/4.5.2/../../../libkernel32.a(dchds00207.o)
                0x0045c32c                _imp__DeleteCriticalSection@4
 .idata$5       0x0045c330        0x4 d:/mingw/bin/../lib/gcc/mingw32/4.5.2/../../../libkernel32.a(dchds00236.o)
                0x0045c330                _imp__EnterCriticalSection@4
 .idata$5       0x0045c334        0x4 d:/mingw/bin/../lib/gcc/mingw32/4.5.2/../../../libkernel32.a(dchds00279.o)
                0x0045c334                _imp__ExitProcess@4
 .idata$5       0x0045c338        0x4 d:/mingw/bin/../lib/gcc/mingw32/4.5.2/../../../libkernel32.a(dchds00300.o)
                0x0045c338                _imp__FindClose@4
 .idata$5       0x0045c33c        0x4 d:/mingw/bin/../lib/gcc/mingw32/4.5.2/../../../libkernel32.a(dchds00304.o)
                0x0045c33c                _imp__FindFirstFileA@8
 .idata$5       0x0045c340        0x4 d:/mingw/bin/../lib/gcc/mingw32/4.5.2/../../../libkernel32.a(dchds00321.o)
                0x0045c340                _imp__FindNextFileA@8
 .idata$5       0x0045c344        0x4 d:/mingw/bin/../lib/gcc/mingw32/4.5.2/../../../libkernel32.a(dchds00347.o)
                0x0045c344                _imp__FormatMessageA@28
 .idata$5       0x0045c348        0x4 d:/mingw/bin/../lib/gcc/mingw32/4.5.2/../../../libkernel32.a(dchds00352.o)
                0x0045c348                _imp__FreeLibrary@4
 .idata$5       0x0045c34c        0x4 d:/mingw/bin/../lib/gcc/mingw32/4.5.2/../../../libkernel32.a(dchds00426.o)
                0x0045c34c                _imp__GetConsoleMode@8
 .idata$5       0x0045c350        0x4 d:/mingw/bin/../lib/gcc/mingw32/4.5.2/../../../libkernel32.a(dchds00444.o)
                0x0045c350                _imp__GetCurrentDirectoryA@8
 .idata$5       0x0045c354        0x4 d:/mingw/bin/../lib/gcc/mingw32/4.5.2/../../../libkernel32.a(dchds00446.o)
                0x0045c354                _imp__GetCurrentProcess@0
 .idata$5       0x0045c358        0x4 d:/mingw/bin/../lib/gcc/mingw32/4.5.2/../../../libkernel32.a(dchds00447.o)
                0x0045c358                _imp__GetCurrentProcessId@0
 .idata$5       0x0045c35c        0x4 d:/mingw/bin/../lib/gcc/mingw32/4.5.2/../../../libkernel32.a(dchds00450.o)
                0x0045c35c                _imp__GetCurrentThread@0
 .idata$5       0x0045c360        0x4 d:/mingw/bin/../lib/gcc/mingw32/4.5.2/../../../libkernel32.a(dchds00451.o)
                0x0045c360                _imp__GetCurrentThreadId@0
 .idata$5       0x0045c364        0x4 d:/mingw/bin/../lib/gcc/mingw32/4.5.2/../../../libkernel32.a(dchds00473.o)
                0x0045c364                _imp__GetEnvironmentVariableA@12
 .idata$5       0x0045c368        0x4 d:/mingw/bin/../lib/gcc/mingw32/4.5.2/../../../libkernel32.a(dchds00481.o)
                0x0045c368                _imp__GetFileAttributesA@4
 .idata$5       0x0045c36c        0x4 d:/mingw/bin/../lib/gcc/mingw32/4.5.2/../../../libkernel32.a(dchds00492.o)
                0x0045c36c                _imp__GetFileSize@8
 .idata$5       0x0045c370        0x4 d:/mingw/bin/../lib/gcc/mingw32/4.5.2/../../../libkernel32.a(dchds00494.o)
                0x0045c370                _imp__GetFileTime@16
 .idata$5       0x0045c374        0x4 d:/mingw/bin/../lib/gcc/mingw32/4.5.2/../../../libkernel32.a(dchds00510.o)
                0x0045c374                _imp__GetLastError@0
 .idata$5       0x0045c378        0x4 d:/mingw/bin/../lib/gcc/mingw32/4.5.2/../../../libkernel32.a(dchds00511.o)
                0x0045c378                _imp__GetLocalTime@4
 .idata$5       0x0045c37c        0x4 d:/mingw/bin/../lib/gcc/mingw32/4.5.2/../../../libkernel32.a(dchds00529.o)
                0x0045c37c                _imp__GetModuleHandleA@4
 .idata$5       0x0045c380        0x4 d:/mingw/bin/../lib/gcc/mingw32/4.5.2/../../../libkernel32.a(dchds00564.o)
                0x0045c380                _imp__GetOverlappedResult@16
 .idata$5       0x0045c384        0x4 d:/mingw/bin/../lib/gcc/mingw32/4.5.2/../../../libkernel32.a(dchds00577.o)
                0x0045c384                _imp__GetProcAddress@8
 .idata$5       0x0045c388        0x4 d:/mingw/bin/../lib/gcc/mingw32/4.5.2/../../../libkernel32.a(dchds00590.o)
                0x0045c388                _imp__GetProcessTimes@20
 .idata$5       0x0045c38c        0x4 d:/mingw/bin/../lib/gcc/mingw32/4.5.2/../../../libkernel32.a(dchds00608.o)
                0x0045c38c                _imp__GetStdHandle@4
 .idata$5       0x0045c390        0x4 d:/mingw/bin/../lib/gcc/mingw32/4.5.2/../../../libkernel32.a(dchds00619.o)
                0x0045c390                _imp__GetSystemDirectoryA@8
 .idata$5       0x0045c394        0x4 d:/mingw/bin/../lib/gcc/mingw32/4.5.2/../../../libkernel32.a(dchds00627.o)
                0x0045c394                _imp__GetSystemTime@4
 .idata$5       0x0045c398        0x4 d:/mingw/bin/../lib/gcc/mingw32/4.5.2/../../../libkernel32.a(dchds00628.o)
                0x0045c398                _imp__GetSystemTimeAdjustment@12
 .idata$5       0x0045c39c        0x4 d:/mingw/bin/../lib/gcc/mingw32/4.5.2/../../../libkernel32.a(dchds00653.o)
                0x0045c39c                _imp__GetThreadTimes@20
 .idata$5       0x0045c3a0        0x4 d:/mingw/bin/../lib/gcc/mingw32/4.5.2/../../../libkernel32.a(dchds00656.o)
                0x0045c3a0                _imp__GetTickCount@0
 .idata$5       0x0045c3a4        0x4 d:/mingw/bin/../lib/gcc/mingw32/4.5.2/../../../libkernel32.a(dchds00671.o)
                0x0045c3a4                _imp__GetVersionExA@4
 .idata$5       0x0045c3a8        0x4 d:/mingw/bin/../lib/gcc/mingw32/4.5.2/../../../libkernel32.a(dchds00682.o)
                0x0045c3a8                _imp__GetWindowsDirectoryA@8
 .idata$5       0x0045c3ac        0x4 d:/mingw/bin/../lib/gcc/mingw32/4.5.2/../../../libkernel32.a(dchds00699.o)
                0x0045c3ac                _imp__GlobalMemoryStatus@4
 .idata$5       0x0045c3b0        0x4 d:/mingw/bin/../lib/gcc/mingw32/4.5.2/../../../libkernel32.a(dchds00734.o)
                0x0045c3b0                _imp__InitializeCriticalSection@4
 .idata$5       0x0045c3b4        0x4 d:/mingw/bin/../lib/gcc/mingw32/4.5.2/../../../libkernel32.a(dchds00814.o)
                0x0045c3b4                _imp__LeaveCriticalSection@4
 .idata$5       0x0045c3b8        0x4 d:/mingw/bin/../lib/gcc/mingw32/4.5.2/../../../libkernel32.a(dchds00817.o)
                0x0045c3b8                _imp__LoadLibraryA@4
 .idata$5       0x0045c3bc        0x4 d:/mingw/bin/../lib/gcc/mingw32/4.5.2/../../../libkernel32.a(dchds00825.o)
                0x0045c3bc                _imp__LocalAlloc@8
 .idata$5       0x0045c3c0        0x4 d:/mingw/bin/../lib/gcc/mingw32/4.5.2/../../../libkernel32.a(dchds00829.o)
                0x0045c3c0                _imp__LocalFree@4
 .idata$5       0x0045c3c4        0x4 d:/mingw/bin/../lib/gcc/mingw32/4.5.2/../../../libkernel32.a(dchds00844.o)
                0x0045c3c4                _imp__MapViewOfFile@20
 .idata$5       0x0045c3c8        0x4 d:/mingw/bin/../lib/gcc/mingw32/4.5.2/../../../libkernel32.a(dchds00885.o)
                0x0045c3c8                _imp__OpenProcess@12
 .idata$5       0x0045c3cc        0x4 d:/mingw/bin/../lib/gcc/mingw32/4.5.2/../../../libkernel32.a(dchds00922.o)
                0x0045c3cc                _imp__QueryPerformanceCounter@4
 .idata$5       0x0045c3d0        0x4 d:/mingw/bin/../lib/gcc/mingw32/4.5.2/../../../libkernel32.a(dchds00947.o)
                0x0045c3d0                _imp__ReadFile@20
 .idata$5       0x0045c3d4        0x4 d:/mingw/bin/../lib/gcc/mingw32/4.5.2/../../../libkernel32.a(dchds01037.o)
                0x0045c3d4                _imp__SetConsoleMode@8
 .idata$5       0x0045c3d8        0x4 d:/mingw/bin/../lib/gcc/mingw32/4.5.2/../../../libkernel32.a(dchds01052.o)
                0x0045c3d8                _imp__SetCurrentDirectoryA@4
 .idata$5       0x0045c3dc        0x4 d:/mingw/bin/../lib/gcc/mingw32/4.5.2/../../../libkernel32.a(dchds01065.o)
                0x0045c3dc                _imp__SetEvent@4
 .idata$5       0x0045c3e0        0x4 d:/mingw/bin/../lib/gcc/mingw32/4.5.2/../../../libkernel32.a(dchds01078.o)
                0x0045c3e0                _imp__SetFilePointer@16
 .idata$5       0x0045c3e4        0x4 d:/mingw/bin/../lib/gcc/mingw32/4.5.2/../../../libkernel32.a(dchds01082.o)
                0x0045c3e4                _imp__SetFileTime@16
 .idata$5       0x0045c3e8        0x4 d:/mingw/bin/../lib/gcc/mingw32/4.5.2/../../../libkernel32.a(dchds01088.o)
                0x0045c3e8                _imp__SetHandleInformation@12
 .idata$5       0x0045c3ec        0x4 d:/mingw/bin/../lib/gcc/mingw32/4.5.2/../../../libkernel32.a(dchds01140.o)
                0x0045c3ec                _imp__SetUnhandledExceptionFilter@4
 .idata$5       0x0045c3f0        0x4 d:/mingw/bin/../lib/gcc/mingw32/4.5.2/../../../libkernel32.a(dchds01173.o)
                0x0045c3f0                _imp__TlsGetValue@4
 .idata$5       0x0045c3f4        0x4 d:/mingw/bin/../lib/gcc/mingw32/4.5.2/../../../libkernel32.a(dchds01188.o)
                0x0045c3f4                _imp__UnmapViewOfFile@4
 .idata$5       0x0045c3f8        0x4 d:/mingw/bin/../lib/gcc/mingw32/4.5.2/../../../libkernel32.a(dchds01213.o)
                0x0045c3f8                _imp__VirtualProtect@16
 .idata$5       0x0045c3fc        0x4 d:/mingw/bin/../lib/gcc/mingw32/4.5.2/../../../libkernel32.a(dchds01215.o)
                0x0045c3fc                _imp__VirtualQuery@12
 .idata$5       0x0045c400        0x4 d:/mingw/bin/../lib/gcc/mingw32/4.5.2/../../../libkernel32.a(dchds01221.o)
                0x0045c400                _imp__WaitForMultipleObjects@16
 .idata$5       0x0045c404        0x4 d:/mingw/bin/../lib/gcc/mingw32/4.5.2/../../../libkernel32.a(dchds01223.o)
                0x0045c404                _imp__WaitForSingleObject@8
 .idata$5       0x0045c408        0x4 d:/mingw/bin/../lib/gcc/mingw32/4.5.2/../../../libkernel32.a(dchds01267.o)
                0x0045c408                _imp__WriteFile@20
 .idata$5       0x0045c40c        0x4 d:/mingw/bin/../lib/gcc/mingw32/4.5.2/../../../libkernel32.a(dchdt.o)
 .idata$5       0x0045c410        0x0 d:/mingw/bin/../lib/gcc/mingw32/4.5.2/../../../libmoldname.a(dgzlh.o)
 .idata$5       0x0045c410        0x4 d:/mingw/bin/../lib/gcc/mingw32/4.5.2/../../../libmoldname.a(dgzls00081.o)
                0x0045c410                _imp__stricmp
 .idata$5       0x0045c414        0x4 d:/mingw/bin/../lib/gcc/mingw32/4.5.2/../../../libmoldname.a(dgzls00084.o)
                0x0045c414                _imp__strnicmp
 .idata$5       0x0045c418        0x4 d:/mingw/bin/../lib/gcc/mingw32/4.5.2/../../../libmoldname.a(dgzlt.o)
 .idata$5       0x0045c41c        0x0 d:/mingw/bin/../lib/gcc/mingw32/4.5.2/../../../libmsvcrt.a(duymh.o)
 .idata$5       0x0045c41c        0x4 d:/mingw/bin/../lib/gcc/mingw32/4.5.2/../../../libmsvcrt.a(duyms00055.o)
                0x0045c41c                _imp____getmainargs
 .idata$5       0x0045c420        0x4 d:/mingw/bin/../lib/gcc/mingw32/4.5.2/../../../libmsvcrt.a(duyms00065.o)
                0x0045c420                _imp____mb_cur_max
 .idata$5       0x0045c424        0x4 d:/mingw/bin/../lib/gcc/mingw32/4.5.2/../../../libmsvcrt.a(duyms00077.o)
                0x0045c424                _imp____p__environ
 .idata$5       0x0045c428        0x4 d:/mingw/bin/../lib/gcc/mingw32/4.5.2/../../../libmsvcrt.a(duyms00079.o)
                0x0045c428                _imp____p__fmode
 .idata$5       0x0045c42c        0x4 d:/mingw/bin/../lib/gcc/mingw32/4.5.2/../../../libmsvcrt.a(duyms00099.o)
                0x0045c42c                _imp____set_app_type
 .idata$5       0x0045c430        0x4 d:/mingw/bin/../lib/gcc/mingw32/4.5.2/../../../libmsvcrt.a(duyms00137.o)
                0x0045c430                _imp___assert
 .idata$5       0x0045c434        0x4 d:/mingw/bin/../lib/gcc/mingw32/4.5.2/../../../libmsvcrt.a(duyms00147.o)
                0x0045c434                _imp___cexit
 .idata$5       0x0045c438        0x4 d:/mingw/bin/../lib/gcc/mingw32/4.5.2/../../../libmsvcrt.a(duyms00266.o)
                0x0045c438                _imp___iob
 .idata$5       0x0045c43c        0x4 d:/mingw/bin/../lib/gcc/mingw32/4.5.2/../../../libmsvcrt.a(duyms00268.o)
                0x0045c43c                _imp___isctype
 .idata$5       0x0045c440        0x4 d:/mingw/bin/../lib/gcc/mingw32/4.5.2/../../../libmsvcrt.a(duyms00383.o)
                0x0045c440                _imp___onexit
 .idata$5       0x0045c444        0x4 d:/mingw/bin/../lib/gcc/mingw32/4.5.2/../../../libmsvcrt.a(duyms00392.o)
                0x0045c444                _imp___pctype
 .idata$5       0x0045c448        0x4 d:/mingw/bin/../lib/gcc/mingw32/4.5.2/../../../libmsvcrt.a(duyms00426.o)
                0x0045c448                _imp___setmode
 .idata$5       0x0045c44c        0x4 d:/mingw/bin/../lib/gcc/mingw32/4.5.2/../../../libmsvcrt.a(duyms00490.o)
                0x0045c44c                _imp___vsnprintf
 .idata$5       0x0045c450        0x4 d:/mingw/bin/../lib/gcc/mingw32/4.5.2/../../../libmsvcrt.a(duyms00538.o)
                0x0045c450                _imp___winmajor
 .idata$5       0x0045c454        0x4 d:/mingw/bin/../lib/gcc/mingw32/4.5.2/../../../libmsvcrt.a(duyms00583.o)
                0x0045c454                _imp__abort
 .idata$5       0x0045c458        0x4 d:/mingw/bin/../lib/gcc/mingw32/4.5.2/../../../libmsvcrt.a(duyms00590.o)
                0x0045c458                _imp__atexit
 .idata$5       0x0045c45c        0x4 d:/mingw/bin/../lib/gcc/mingw32/4.5.2/../../../libmsvcrt.a(duyms00592.o)
                0x0045c45c                _imp__atoi
 .idata$5       0x0045c460        0x4 d:/mingw/bin/../lib/gcc/mingw32/4.5.2/../../../libmsvcrt.a(duyms00595.o)
                0x0045c460                _imp__calloc
 .idata$5       0x0045c464        0x4 d:/mingw/bin/../lib/gcc/mingw32/4.5.2/../../../libmsvcrt.a(duyms00604.o)
                0x0045c464                _imp__exit
 .idata$5       0x0045c468        0x4 d:/mingw/bin/../lib/gcc/mingw32/4.5.2/../../../libmsvcrt.a(duyms00607.o)
                0x0045c468                _imp__fclose
 .idata$5       0x0045c46c        0x4 d:/mingw/bin/../lib/gcc/mingw32/4.5.2/../../../libmsvcrt.a(duyms00610.o)
                0x0045c46c                _imp__fflush
 .idata$5       0x0045c470        0x4 d:/mingw/bin/../lib/gcc/mingw32/4.5.2/../../../libmsvcrt.a(duyms00611.o)
                0x0045c470                _imp__fgetc
 .idata$5       0x0045c474        0x4 d:/mingw/bin/../lib/gcc/mingw32/4.5.2/../../../libmsvcrt.a(duyms00613.o)
                0x0045c474                _imp__fgets
 .idata$5       0x0045c478        0x4 d:/mingw/bin/../lib/gcc/mingw32/4.5.2/../../../libmsvcrt.a(duyms00618.o)
                0x0045c478                _imp__fopen
 .idata$5       0x0045c47c        0x4 d:/mingw/bin/../lib/gcc/mingw32/4.5.2/../../../libmsvcrt.a(duyms00619.o)
                0x0045c47c                _imp__fprintf
 .idata$5       0x0045c480        0x4 d:/mingw/bin/../lib/gcc/mingw32/4.5.2/../../../libmsvcrt.a(duyms00620.o)
                0x0045c480                _imp__fputc
 .idata$5       0x0045c484        0x4 d:/mingw/bin/../lib/gcc/mingw32/4.5.2/../../../libmsvcrt.a(duyms00621.o)
                0x0045c484                _imp__fputs
 .idata$5       0x0045c488        0x4 d:/mingw/bin/../lib/gcc/mingw32/4.5.2/../../../libmsvcrt.a(duyms00624.o)
                0x0045c488                _imp__fread
 .idata$5       0x0045c48c        0x4 d:/mingw/bin/../lib/gcc/mingw32/4.5.2/../../../libmsvcrt.a(duyms00625.o)
                0x0045c48c                _imp__free
 .idata$5       0x0045c490        0x4 d:/mingw/bin/../lib/gcc/mingw32/4.5.2/../../../libmsvcrt.a(duyms00633.o)
                0x0045c490                _imp__fwrite
 .idata$5       0x0045c494        0x4 d:/mingw/bin/../lib/gcc/mingw32/4.5.2/../../../libmsvcrt.a(duyms00637.o)
                0x0045c494                _imp__getenv
 .idata$5       0x0045c498        0x4 d:/mingw/bin/../lib/gcc/mingw32/4.5.2/../../../libmsvcrt.a(duyms00676.o)
                0x0045c498                _imp__malloc
 .idata$5       0x0045c49c        0x4 d:/mingw/bin/../lib/gcc/mingw32/4.5.2/../../../libmsvcrt.a(duyms00680.o)
                0x0045c49c                _imp__memchr
 .idata$5       0x0045c4a0        0x4 d:/mingw/bin/../lib/gcc/mingw32/4.5.2/../../../libmsvcrt.a(duyms00681.o)
                0x0045c4a0                _imp__memcmp
 .idata$5       0x0045c4a4        0x4 d:/mingw/bin/../lib/gcc/mingw32/4.5.2/../../../libmsvcrt.a(duyms00682.o)
                0x0045c4a4                _imp__memcpy
 .idata$5       0x0045c4a8        0x4 d:/mingw/bin/../lib/gcc/mingw32/4.5.2/../../../libmsvcrt.a(duyms00683.o)
                0x0045c4a8                _imp__memmove
 .idata$5       0x0045c4ac        0x4 d:/mingw/bin/../lib/gcc/mingw32/4.5.2/../../../libmsvcrt.a(duyms00689.o)
                0x0045c4ac                _imp__printf
 .idata$5       0x0045c4b0        0x4 d:/mingw/bin/../lib/gcc/mingw32/4.5.2/../../../libmsvcrt.a(duyms00692.o)
                0x0045c4b0                _imp__puts
 .idata$5       0x0045c4b4        0x4 d:/mingw/bin/../lib/gcc/mingw32/4.5.2/../../../libmsvcrt.a(duyms00695.o)
                0x0045c4b4                _imp__qsort
 .idata$5       0x0045c4b8        0x4 d:/mingw/bin/../lib/gcc/mingw32/4.5.2/../../../libmsvcrt.a(duyms00698.o)
                0x0045c4b8                _imp__realloc
 .idata$5       0x0045c4bc        0x4 d:/mingw/bin/../lib/gcc/mingw32/4.5.2/../../../libmsvcrt.a(duyms00699.o)
                0x0045c4bc                _imp__remove
 .idata$5       0x0045c4c0        0x4 d:/mingw/bin/../lib/gcc/mingw32/4.5.2/../../../libmsvcrt.a(duyms00706.o)
                0x0045c4c0                _imp__signal
 .idata$5       0x0045c4c4        0x4 d:/mingw/bin/../lib/gcc/mingw32/4.5.2/../../../libmsvcrt.a(duyms00709.o)
                0x0045c4c4                _imp__sprintf
 .idata$5       0x0045c4c8        0x4 d:/mingw/bin/../lib/gcc/mingw32/4.5.2/../../../libmsvcrt.a(duyms00712.o)
                0x0045c4c8                _imp__sscanf
 .idata$5       0x0045c4cc        0x4 d:/mingw/bin/../lib/gcc/mingw32/4.5.2/../../../libmsvcrt.a(duyms00714.o)
                0x0045c4cc                _imp__strchr
 .idata$5       0x0045c4d0        0x4 d:/mingw/bin/../lib/gcc/mingw32/4.5.2/../../../libmsvcrt.a(duyms00715.o)
                0x0045c4d0                _imp__strcmp
 .idata$5       0x0045c4d4        0x4 d:/mingw/bin/../lib/gcc/mingw32/4.5.2/../../../libmsvcrt.a(duyms00717.o)
                0x0045c4d4                _imp__strcpy
 .idata$5       0x0045c4d8        0x4 d:/mingw/bin/../lib/gcc/mingw32/4.5.2/../../../libmsvcrt.a(duyms00718.o)
                0x0045c4d8                _imp__strcspn
 .idata$5       0x0045c4dc        0x4 d:/mingw/bin/../lib/gcc/mingw32/4.5.2/../../../libmsvcrt.a(duyms00720.o)
                0x0045c4dc                _imp__strftime
 .idata$5       0x0045c4e0        0x4 d:/mingw/bin/../lib/gcc/mingw32/4.5.2/../../../libmsvcrt.a(duyms00723.o)
                0x0045c4e0                _imp__strncmp
 .idata$5       0x0045c4e4        0x4 d:/mingw/bin/../lib/gcc/mingw32/4.5.2/../../../libmsvcrt.a(duyms00724.o)
                0x0045c4e4                _imp__strncpy
 .idata$5       0x0045c4e8        0x4 d:/mingw/bin/../lib/gcc/mingw32/4.5.2/../../../libmsvcrt.a(duyms00726.o)
                0x0045c4e8                _imp__strrchr
 .idata$5       0x0045c4ec        0x4 d:/mingw/bin/../lib/gcc/mingw32/4.5.2/../../../libmsvcrt.a(duyms00727.o)
                0x0045c4ec                _imp__strspn
 .idata$5       0x0045c4f0        0x4 d:/mingw/bin/../lib/gcc/mingw32/4.5.2/../../../libmsvcrt.a(duyms00731.o)
                0x0045c4f0                _imp__strtol
 .idata$5       0x0045c4f4        0x4 d:/mingw/bin/../lib/gcc/mingw32/4.5.2/../../../libmsvcrt.a(duyms00732.o)
                0x0045c4f4                _imp__strtoul
 .idata$5       0x0045c4f8        0x4 d:/mingw/bin/../lib/gcc/mingw32/4.5.2/../../../libmsvcrt.a(duyms00736.o)
                0x0045c4f8                _imp__system
 .idata$5       0x0045c4fc        0x4 d:/mingw/bin/../lib/gcc/mingw32/4.5.2/../../../libmsvcrt.a(duyms00739.o)
                0x0045c4fc                _imp__time
 .idata$5       0x0045c500        0x4 d:/mingw/bin/../lib/gcc/mingw32/4.5.2/../../../libmsvcrt.a(duyms00742.o)
                0x0045c500                _imp__tolower
 .idata$5       0x0045c504        0x4 d:/mingw/bin/../lib/gcc/mingw32/4.5.2/../../../libmsvcrt.a(duyms00746.o)
                0x0045c504                _imp__ungetc
 .idata$5       0x0045c508        0x4 d:/mingw/bin/../lib/gcc/mingw32/4.5.2/../../../libmsvcrt.a(duyms00748.o)
                0x0045c508                _imp__vfprintf
 .idata$5       0x0045c50c        0x4 d:/mingw/bin/../lib/gcc/mingw32/4.5.2/../../../libmsvcrt.a(duymt.o)
 .idata$5       0x0045c510        0x0 d:/mingw/bin/../lib/gcc/mingw32/4.5.2/../../../libuser32.a(daoih.o)
 .idata$5       0x0045c510        0x4 d:/mingw/bin/../lib/gcc/mingw32/4.5.2/../../../libuser32.a(daois00210.o)
                0x0045c510                _imp__FindWindowA@8
 .idata$5       0x0045c514        0x4 d:/mingw/bin/../lib/gcc/mingw32/4.5.2/../../../libuser32.a(daois00224.o)
                0x0045c514                _imp__GetCapture@0
 .idata$5       0x0045c518        0x4 d:/mingw/bin/../lib/gcc/mingw32/4.5.2/../../../libuser32.a(daois00241.o)
                0x0045c518                _imp__GetClipboardOwner@0
 .idata$5       0x0045c51c        0x4 d:/mingw/bin/../lib/gcc/mingw32/4.5.2/../../../libuser32.a(daois00247.o)
                0x0045c51c                _imp__GetCursorPos@4
 .idata$5       0x0045c520        0x4 d:/mingw/bin/../lib/gcc/mingw32/4.5.2/../../../libuser32.a(daois00259.o)
                0x0045c520                _imp__GetForegroundWindow@0
 .idata$5       0x0045c524        0x4 d:/mingw/bin/../lib/gcc/mingw32/4.5.2/../../../libuser32.a(daois00310.o)
                0x0045c524                _imp__GetQueueStatus@4
 .idata$5       0x0045c528        0x4 d:/mingw/bin/../lib/gcc/mingw32/4.5.2/../../../libuser32.a(daois00508.o)
                0x0045c528                _imp__SendMessageA@16
 .idata$5       0x0045c52c        0x4 d:/mingw/bin/../lib/gcc/mingw32/4.5.2/../../../libuser32.a(daoit.o)
                0x0045c530                __IAT_end__ = .
 SORT(*)(.idata$6)
 .idata$6       0x0045c530        0xa d:/mingw/bin/../lib/gcc/mingw32/4.5.2/../../../libadvapi32.a(dgxgs00083.o)
 .idata$6       0x0045c53a       0x10 d:/mingw/bin/../lib/gcc/mingw32/4.5.2/../../../libadvapi32.a(dgxgs00196.o)
 .idata$6       0x0045c54a       0x10 d:/mingw/bin/../lib/gcc/mingw32/4.5.2/../../../libadvapi32.a(dgxgs00245.o)
 .idata$6       0x0045c55a        0xe d:/mingw/bin/../lib/gcc/mingw32/4.5.2/../../../libadvapi32.a(dgxgs00386.o)
 .idata$6       0x0045c568       0x10 d:/mingw/bin/../lib/gcc/mingw32/4.5.2/../../../libadvapi32.a(dgxgs00389.o)
 .idata$6       0x0045c578       0x12 d:/mingw/bin/../lib/gcc/mingw32/4.5.2/../../../libadvapi32.a(dgxgs00390.o)
 .idata$6       0x0045c58a       0x10 d:/mingw/bin/../lib/gcc/mingw32/4.5.2/../../../libadvapi32.a(dgxgs00393.o)
 .idata$6       0x0045c59a       0x12 d:/mingw/bin/../lib/gcc/mingw32/4.5.2/../../../libadvapi32.a(dgxgs00397.o)
 .idata$6       0x0045c5ac        0xe d:/mingw/bin/../lib/gcc/mingw32/4.5.2/../../../libadvapi32.a(dgxgs00400.o)
 .idata$6       0x0045c5ba        0xe d:/mingw/bin/../lib/gcc/mingw32/4.5.2/../../../libadvapi32.a(dgxgs00412.o)
 .idata$6       0x0045c5c8       0x14 d:/mingw/bin/../lib/gcc/mingw32/4.5.2/../../../libadvapi32.a(dgxgs00423.o)
 .idata$6       0x0045c5dc       0x12 d:/mingw/bin/../lib/gcc/mingw32/4.5.2/../../../libadvapi32.a(dgxgs00434.o)
 .idata$6       0x0045c5ee       0x10 d:/mingw/bin/../lib/gcc/mingw32/4.5.2/../../../libkernel32.a(dchds00016.o)
 .idata$6       0x0045c5fe        0xe d:/mingw/bin/../lib/gcc/mingw32/4.5.2/../../../libkernel32.a(dchds00082.o)
 .idata$6       0x0045c60c       0x14 d:/mingw/bin/../lib/gcc/mingw32/4.5.2/../../../libkernel32.a(dchds00123.o)
 .idata$6       0x0045c620       0x10 d:/mingw/bin/../lib/gcc/mingw32/4.5.2/../../../libkernel32.a(dchds00129.o)
 .idata$6       0x0045c630        0xe d:/mingw/bin/../lib/gcc/mingw32/4.5.2/../../../libkernel32.a(dchds00135.o)
 .idata$6       0x0045c63e       0x16 d:/mingw/bin/../lib/gcc/mingw32/4.5.2/../../../libkernel32.a(dchds00136.o)
 .idata$6       0x0045c654        0xe d:/mingw/bin/../lib/gcc/mingw32/4.5.2/../../../libkernel32.a(dchds00160.o)
 .idata$6       0x0045c662       0x12 d:/mingw/bin/../lib/gcc/mingw32/4.5.2/../../../libkernel32.a(dchds00163.o)
 .idata$6       0x0045c674       0x10 d:/mingw/bin/../lib/gcc/mingw32/4.5.2/../../../libkernel32.a(dchds00179.o)
 .idata$6       0x0045c684       0x18 d:/mingw/bin/../lib/gcc/mingw32/4.5.2/../../../libkernel32.a(dchds00207.o)
 .idata$6       0x0045c69c       0x18 d:/mingw/bin/../lib/gcc/mingw32/4.5.2/../../../libkernel32.a(dchds00236.o)
 .idata$6       0x0045c6b4        0xe d:/mingw/bin/../lib/gcc/mingw32/4.5.2/../../../libkernel32.a(dchds00279.o)
 .idata$6       0x0045c6c2        0xc d:/mingw/bin/../lib/gcc/mingw32/4.5.2/../../../libkernel32.a(dchds00300.o)
 .idata$6       0x0045c6ce       0x12 d:/mingw/bin/../lib/gcc/mingw32/4.5.2/../../../libkernel32.a(dchds00304.o)
 .idata$6       0x0045c6e0       0x10 d:/mingw/bin/../lib/gcc/mingw32/4.5.2/../../../libkernel32.a(dchds00321.o)
 .idata$6       0x0045c6f0       0x12 d:/mingw/bin/../lib/gcc/mingw32/4.5.2/../../../libkernel32.a(dchds00347.o)
 .idata$6       0x0045c702        0xe d:/mingw/bin/../lib/gcc/mingw32/4.5.2/../../../libkernel32.a(dchds00352.o)
 .idata$6       0x0045c710       0x12 d:/mingw/bin/../lib/gcc/mingw32/4.5.2/../../../libkernel32.a(dchds00426.o)
 .idata$6       0x0045c722       0x18 d:/mingw/bin/../lib/gcc/mingw32/4.5.2/../../../libkernel32.a(dchds00444.o)
 .idata$6       0x0045c73a       0x14 d:/mingw/bin/../lib/gcc/mingw32/4.5.2/../../../libkernel32.a(dchds00446.o)
 .idata$6       0x0045c74e       0x16 d:/mingw/bin/../lib/gcc/mingw32/4.5.2/../../../libkernel32.a(dchds00447.o)
 .idata$6       0x0045c764       0x14 d:/mingw/bin/../lib/gcc/mingw32/4.5.2/../../../libkernel32.a(dchds00450.o)
 .idata$6       0x0045c778       0x16 d:/mingw/bin/../lib/gcc/mingw32/4.5.2/../../../libkernel32.a(dchds00451.o)
 .idata$6       0x0045c78e       0x1a d:/mingw/bin/../lib/gcc/mingw32/4.5.2/../../../libkernel32.a(dchds00473.o)
 .idata$6       0x0045c7a8       0x16 d:/mingw/bin/../lib/gcc/mingw32/4.5.2/../../../libkernel32.a(dchds00481.o)
 .idata$6       0x0045c7be        0xe d:/mingw/bin/../lib/gcc/mingw32/4.5.2/../../../libkernel32.a(dchds00492.o)
 .idata$6       0x0045c7cc        0xe d:/mingw/bin/../lib/gcc/mingw32/4.5.2/../../../libkernel32.a(dchds00494.o)
 .idata$6       0x0045c7da       0x10 d:/mingw/bin/../lib/gcc/mingw32/4.5.2/../../../libkernel32.a(dchds00510.o)
 .idata$6       0x0045c7ea       0x10 d:/mingw/bin/../lib/gcc/mingw32/4.5.2/../../../libkernel32.a(dchds00511.o)
 .idata$6       0x0045c7fa       0x14 d:/mingw/bin/../lib/gcc/mingw32/4.5.2/../../../libkernel32.a(dchds00529.o)
 .idata$6       0x0045c80e       0x16 d:/mingw/bin/../lib/gcc/mingw32/4.5.2/../../../libkernel32.a(dchds00564.o)
 .idata$6       0x0045c824       0x12 d:/mingw/bin/../lib/gcc/mingw32/4.5.2/../../../libkernel32.a(dchds00577.o)
 .idata$6       0x0045c836       0x12 d:/mingw/bin/../lib/gcc/mingw32/4.5.2/../../../libkernel32.a(dchds00590.o)
 .idata$6       0x0045c848       0x10 d:/mingw/bin/../lib/gcc/mingw32/4.5.2/../../../libkernel32.a(dchds00608.o)
 .idata$6       0x0045c858       0x16 d:/mingw/bin/../lib/gcc/mingw32/4.5.2/../../../libkernel32.a(dchds00619.o)
 .idata$6       0x0045c86e       0x10 d:/mingw/bin/../lib/gcc/mingw32/4.5.2/../../../libkernel32.a(dchds00627.o)
 .idata$6       0x0045c87e       0x1a d:/mingw/bin/../lib/gcc/mingw32/4.5.2/../../../libkernel32.a(dchds00628.o)
 .idata$6       0x0045c898       0x12 d:/mingw/bin/../lib/gcc/mingw32/4.5.2/../../../libkernel32.a(dchds00653.o)
 .idata$6       0x0045c8aa       0x10 d:/mingw/bin/../lib/gcc/mingw32/4.5.2/../../../libkernel32.a(dchds00656.o)
 .idata$6       0x0045c8ba       0x10 d:/mingw/bin/../lib/gcc/mingw32/4.5.2/../../../libkernel32.a(dchds00671.o)
 .idata$6       0x0045c8ca       0x18 d:/mingw/bin/../lib/gcc/mingw32/4.5.2/../../../libkernel32.a(dchds00682.o)
 .idata$6       0x0045c8e2       0x16 d:/mingw/bin/../lib/gcc/mingw32/4.5.2/../../../libkernel32.a(dchds00699.o)
 .idata$6       0x0045c8f8       0x1c d:/mingw/bin/../lib/gcc/mingw32/4.5.2/../../../libkernel32.a(dchds00734.o)
 .idata$6       0x0045c914       0x18 d:/mingw/bin/../lib/gcc/mingw32/4.5.2/../../../libkernel32.a(dchds00814.o)
 .idata$6       0x0045c92c       0x10 d:/mingw/bin/../lib/gcc/mingw32/4.5.2/../../../libkernel32.a(dchds00817.o)
 .idata$6       0x0045c93c        0xe d:/mingw/bin/../lib/gcc/mingw32/4.5.2/../../../libkernel32.a(dchds00825.o)
 .idata$6       0x0045c94a        0xc d:/mingw/bin/../lib/gcc/mingw32/4.5.2/../../../libkernel32.a(dchds00829.o)
 .idata$6       0x0045c956       0x10 d:/mingw/bin/../lib/gcc/mingw32/4.5.2/../../../libkernel32.a(dchds00844.o)
 .idata$6       0x0045c966        0xe d:/mingw/bin/../lib/gcc/mingw32/4.5.2/../../../libkernel32.a(dchds00885.o)
 .idata$6       0x0045c974       0x1a d:/mingw/bin/../lib/gcc/mingw32/4.5.2/../../../libkernel32.a(dchds00922.o)
 .idata$6       0x0045c98e        0xc d:/mingw/bin/../lib/gcc/mingw32/4.5.2/../../../libkernel32.a(dchds00947.o)
 .idata$6       0x0045c99a       0x12 d:/mingw/bin/../lib/gcc/mingw32/4.5.2/../../../libkernel32.a(dchds01037.o)
 .idata$6       0x0045c9ac       0x18 d:/mingw/bin/../lib/gcc/mingw32/4.5.2/../../../libkernel32.a(dchds01052.o)
 .idata$6       0x0045c9c4        0xc d:/mingw/bin/../lib/gcc/mingw32/4.5.2/../../../libkernel32.a(dchds01065.o)
 .idata$6       0x0045c9d0       0x12 d:/mingw/bin/../lib/gcc/mingw32/4.5.2/../../../libkernel32.a(dchds01078.o)
 .idata$6       0x0045c9e2        0xe d:/mingw/bin/../lib/gcc/mingw32/4.5.2/../../../libkernel32.a(dchds01082.o)
 .idata$6       0x0045c9f0       0x18 d:/mingw/bin/../lib/gcc/mingw32/4.5.2/../../../libkernel32.a(dchds01088.o)
 .idata$6       0x0045ca08       0x1e d:/mingw/bin/../lib/gcc/mingw32/4.5.2/../../../libkernel32.a(dchds01140.o)
 .idata$6       0x0045ca26        0xe d:/mingw/bin/../lib/gcc/mingw32/4.5.2/../../../libkernel32.a(dchds01173.o)
 .idata$6       0x0045ca34       0x12 d:/mingw/bin/../lib/gcc/mingw32/4.5.2/../../../libkernel32.a(dchds01188.o)
 .idata$6       0x0045ca46       0x12 d:/mingw/bin/../lib/gcc/mingw32/4.5.2/../../../libkernel32.a(dchds01213.o)
 .idata$6       0x0045ca58       0x10 d:/mingw/bin/../lib/gcc/mingw32/4.5.2/../../../libkernel32.a(dchds01215.o)
 .idata$6       0x0045ca68       0x1a d:/mingw/bin/../lib/gcc/mingw32/4.5.2/../../../libkernel32.a(dchds01221.o)
 .idata$6       0x0045ca82       0x16 d:/mingw/bin/../lib/gcc/mingw32/4.5.2/../../../libkernel32.a(dchds01223.o)
 .idata$6       0x0045ca98        0xc d:/mingw/bin/../lib/gcc/mingw32/4.5.2/../../../libkernel32.a(dchds01267.o)
 .idata$6       0x0045caa4        0xc d:/mingw/bin/../lib/gcc/mingw32/4.5.2/../../../libmoldname.a(dgzls00081.o)
 .idata$6       0x0045cab0        0xc d:/mingw/bin/../lib/gcc/mingw32/4.5.2/../../../libmoldname.a(dgzls00084.o)
 .idata$6       0x0045cabc       0x10 d:/mingw/bin/../lib/gcc/mingw32/4.5.2/../../../libmsvcrt.a(duyms00055.o)
 .idata$6       0x0045cacc       0x10 d:/mingw/bin/../lib/gcc/mingw32/4.5.2/../../../libmsvcrt.a(duyms00065.o)
 .idata$6       0x0045cadc       0x10 d:/mingw/bin/../lib/gcc/mingw32/4.5.2/../../../libmsvcrt.a(duyms00077.o)
 .idata$6       0x0045caec        0xe d:/mingw/bin/../lib/gcc/mingw32/4.5.2/../../../libmsvcrt.a(duyms00079.o)
 .idata$6       0x0045cafa       0x12 d:/mingw/bin/../lib/gcc/mingw32/4.5.2/../../../libmsvcrt.a(duyms00099.o)
 .idata$6       0x0045cb0c        0xa d:/mingw/bin/../lib/gcc/mingw32/4.5.2/../../../libmsvcrt.a(duyms00137.o)
 .idata$6       0x0045cb16        0xa d:/mingw/bin/../lib/gcc/mingw32/4.5.2/../../../libmsvcrt.a(duyms00147.o)
 .idata$6       0x0045cb20        0x8 d:/mingw/bin/../lib/gcc/mingw32/4.5.2/../../../libmsvcrt.a(duyms00266.o)
 .idata$6       0x0045cb28        0xc d:/mingw/bin/../lib/gcc/mingw32/4.5.2/../../../libmsvcrt.a(duyms00268.o)
 .idata$6       0x0045cb34        0xa d:/mingw/bin/../lib/gcc/mingw32/4.5.2/../../../libmsvcrt.a(duyms00383.o)
 .idata$6       0x0045cb3e        0xa d:/mingw/bin/../lib/gcc/mingw32/4.5.2/../../../libmsvcrt.a(duyms00392.o)
 .idata$6       0x0045cb48        0xc d:/mingw/bin/../lib/gcc/mingw32/4.5.2/../../../libmsvcrt.a(duyms00426.o)
 .idata$6       0x0045cb54        0xe d:/mingw/bin/../lib/gcc/mingw32/4.5.2/../../../libmsvcrt.a(duyms00490.o)
 .idata$6       0x0045cb62        0xc d:/mingw/bin/../lib/gcc/mingw32/4.5.2/../../../libmsvcrt.a(duyms00538.o)
 .idata$6       0x0045cb6e        0x8 d:/mingw/bin/../lib/gcc/mingw32/4.5.2/../../../libmsvcrt.a(duyms00583.o)
 .idata$6       0x0045cb76        0xa d:/mingw/bin/../lib/gcc/mingw32/4.5.2/../../../libmsvcrt.a(duyms00590.o)
 .idata$6       0x0045cb80        0x8 d:/mingw/bin/../lib/gcc/mingw32/4.5.2/../../../libmsvcrt.a(duyms00592.o)
 .idata$6       0x0045cb88        0xa d:/mingw/bin/../lib/gcc/mingw32/4.5.2/../../../libmsvcrt.a(duyms00595.o)
 .idata$6       0x0045cb92        0x8 d:/mingw/bin/../lib/gcc/mingw32/4.5.2/../../../libmsvcrt.a(duyms00604.o)
 .idata$6       0x0045cb9a        0xa d:/mingw/bin/../lib/gcc/mingw32/4.5.2/../../../libmsvcrt.a(duyms00607.o)
 .idata$6       0x0045cba4        0xa d:/mingw/bin/../lib/gcc/mingw32/4.5.2/../../../libmsvcrt.a(duyms00610.o)
 .idata$6       0x0045cbae        0x8 d:/mingw/bin/../lib/gcc/mingw32/4.5.2/../../../libmsvcrt.a(duyms00611.o)
 .idata$6       0x0045cbb6        0x8 d:/mingw/bin/../lib/gcc/mingw32/4.5.2/../../../libmsvcrt.a(duyms00613.o)
 .idata$6       0x0045cbbe        0x8 d:/mingw/bin/../lib/gcc/mingw32/4.5.2/../../../libmsvcrt.a(duyms00618.o)
 .idata$6       0x0045cbc6        0xa d:/mingw/bin/../lib/gcc/mingw32/4.5.2/../../../libmsvcrt.a(duyms00619.o)
 .idata$6       0x0045cbd0        0x8 d:/mingw/bin/../lib/gcc/mingw32/4.5.2/../../../libmsvcrt.a(duyms00620.o)
 .idata$6       0x0045cbd8        0x8 d:/mingw/bin/../lib/gcc/mingw32/4.5.2/../../../libmsvcrt.a(duyms00621.o)
 .idata$6       0x0045cbe0        0x8 d:/mingw/bin/../lib/gcc/mingw32/4.5.2/../../../libmsvcrt.a(duyms00624.o)
 .idata$6       0x0045cbe8        0x8 d:/mingw/bin/../lib/gcc/mingw32/4.5.2/../../../libmsvcrt.a(duyms00625.o)
 .idata$6       0x0045cbf0        0xa d:/mingw/bin/../lib/gcc/mingw32/4.5.2/../../../libmsvcrt.a(duyms00633.o)
 .idata$6       0x0045cbfa        0xa d:/mingw/bin/../lib/gcc/mingw32/4.5.2/../../../libmsvcrt.a(duyms00637.o)
 .idata$6       0x0045cc04        0xa d:/mingw/bin/../lib/gcc/mingw32/4.5.2/../../../libmsvcrt.a(duyms00676.o)
 .idata$6       0x0045cc0e        0xa d:/mingw/bin/../lib/gcc/mingw32/4.5.2/../../../libmsvcrt.a(duyms00680.o)
 .idata$6       0x0045cc18        0xa d:/mingw/bin/../lib/gcc/mingw32/4.5.2/../../../libmsvcrt.a(duyms00681.o)
 .idata$6       0x0045cc22        0xa d:/mingw/bin/../lib/gcc/mingw32/4.5.2/../../../libmsvcrt.a(duyms00682.o)
 .idata$6       0x0045cc2c        0xa d:/mingw/bin/../lib/gcc/mingw32/4.5.2/../../../libmsvcrt.a(duyms00683.o)
 .idata$6       0x0045cc36        0xa d:/mingw/bin/../lib/gcc/mingw32/4.5.2/../../../libmsvcrt.a(duyms00689.o)
 .idata$6       0x0045cc40        0x8 d:/mingw/bin/../lib/gcc/mingw32/4.5.2/../../../libmsvcrt.a(duyms00692.o)
 .idata$6       0x0045cc48        0x8 d:/mingw/bin/../lib/gcc/mingw32/4.5.2/../../../libmsvcrt.a(duyms00695.o)
 .idata$6       0x0045cc50        0xa d:/mingw/bin/../lib/gcc/mingw32/4.5.2/../../../libmsvcrt.a(duyms00698.o)
 .idata$6       0x0045cc5a        0xa d:/mingw/bin/../lib/gcc/mingw32/4.5.2/../../../libmsvcrt.a(duyms00699.o)
 .idata$6       0x0045cc64        0xa d:/mingw/bin/../lib/gcc/mingw32/4.5.2/../../../libmsvcrt.a(duyms00706.o)
 .idata$6       0x0045cc6e        0xa d:/mingw/bin/../lib/gcc/mingw32/4.5.2/../../../libmsvcrt.a(duyms00709.o)
 .idata$6       0x0045cc78        0xa d:/mingw/bin/../lib/gcc/mingw32/4.5.2/../../../libmsvcrt.a(duyms00712.o)
 .idata$6       0x0045cc82        0xa d:/mingw/bin/../lib/gcc/mingw32/4.5.2/../../../libmsvcrt.a(duyms00714.o)
 .idata$6       0x0045cc8c        0xa d:/mingw/bin/../lib/gcc/mingw32/4.5.2/../../../libmsvcrt.a(duyms00715.o)
 .idata$6       0x0045cc96        0xa d:/mingw/bin/../lib/gcc/mingw32/4.5.2/../../../libmsvcrt.a(duyms00717.o)
 .idata$6       0x0045cca0        0xa d:/mingw/bin/../lib/gcc/mingw32/4.5.2/../../../libmsvcrt.a(duyms00718.o)
 .idata$6       0x0045ccaa        0xc d:/mingw/bin/../lib/gcc/mingw32/4.5.2/../../../libmsvcrt.a(duyms00720.o)
 .idata$6       0x0045ccb6        0xa d:/mingw/bin/../lib/gcc/mingw32/4.5.2/../../../libmsvcrt.a(duyms00723.o)
 .idata$6       0x0045ccc0        0xa d:/mingw/bin/../lib/gcc/mingw32/4.5.2/../../../libmsvcrt.a(duyms00724.o)
 .idata$6       0x0045ccca        0xa d:/mingw/bin/../lib/gcc/mingw32/4.5.2/../../../libmsvcrt.a(duyms00726.o)
 .idata$6       0x0045ccd4        0xa d:/mingw/bin/../lib/gcc/mingw32/4.5.2/../../../libmsvcrt.a(duyms00727.o)
 .idata$6       0x0045ccde        0xa d:/mingw/bin/../lib/gcc/mingw32/4.5.2/../../../libmsvcrt.a(duyms00731.o)
 .idata$6       0x0045cce8        0xa d:/mingw/bin/../lib/gcc/mingw32/4.5.2/../../../libmsvcrt.a(duyms00732.o)
 .idata$6       0x0045ccf2        0xa d:/mingw/bin/../lib/gcc/mingw32/4.5.2/../../../libmsvcrt.a(duyms00736.o)
 .idata$6       0x0045ccfc        0x8 d:/mingw/bin/../lib/gcc/mingw32/4.5.2/../../../libmsvcrt.a(duyms00739.o)
 .idata$6       0x0045cd04        0xa d:/mingw/bin/../lib/gcc/mingw32/4.5.2/../../../libmsvcrt.a(duyms00742.o)
 .idata$6       0x0045cd0e        0xa d:/mingw/bin/../lib/gcc/mingw32/4.5.2/../../../libmsvcrt.a(duyms00746.o)
 .idata$6       0x0045cd18        0xc d:/mingw/bin/../lib/gcc/mingw32/4.5.2/../../../libmsvcrt.a(duyms00748.o)
 .idata$6       0x0045cd24        0xe d:/mingw/bin/../lib/gcc/mingw32/4.5.2/../../../libuser32.a(daois00210.o)
 .idata$6       0x0045cd32        0xe d:/mingw/bin/../lib/gcc/mingw32/4.5.2/../../../libuser32.a(daois00224.o)
 .idata$6       0x0045cd40       0x14 d:/mingw/bin/../lib/gcc/mingw32/4.5.2/../../../libuser32.a(daois00241.o)
 .idata$6       0x0045cd54       0x10 d:/mingw/bin/../lib/gcc/mingw32/4.5.2/../../../libuser32.a(daois00247.o)
 .idata$6       0x0045cd64       0x16 d:/mingw/bin/../lib/gcc/mingw32/4.5.2/../../../libuser32.a(daois00259.o)
 .idata$6       0x0045cd7a       0x12 d:/mingw/bin/../lib/gcc/mingw32/4.5.2/../../../libuser32.a(daois00310.o)
 .idata$6       0x0045cd8c       0x10 d:/mingw/bin/../lib/gcc/mingw32/4.5.2/../../../libuser32.a(daois00508.o)
 SORT(*)(.idata$7)
 .idata$7       0x0045cd9c        0x4 d:/mingw/bin/../lib/gcc/mingw32/4.5.2/../../../libadvapi32.a(dgxgs00083.o)
 .idata$7       0x0045cda0        0x4 d:/mingw/bin/../lib/gcc/mingw32/4.5.2/../../../libadvapi32.a(dgxgs00196.o)
 .idata$7       0x0045cda4        0x4 d:/mingw/bin/../lib/gcc/mingw32/4.5.2/../../../libadvapi32.a(dgxgs00245.o)
 .idata$7       0x0045cda8        0x4 d:/mingw/bin/../lib/gcc/mingw32/4.5.2/../../../libadvapi32.a(dgxgs00386.o)
 .idata$7       0x0045cdac        0x4 d:/mingw/bin/../lib/gcc/mingw32/4.5.2/../../../libadvapi32.a(dgxgs00389.o)
 .idata$7       0x0045cdb0        0x4 d:/mingw/bin/../lib/gcc/mingw32/4.5.2/../../../libadvapi32.a(dgxgs00390.o)
 .idata$7       0x0045cdb4        0x4 d:/mingw/bin/../lib/gcc/mingw32/4.5.2/../../../libadvapi32.a(dgxgs00393.o)
 .idata$7       0x0045cdb8        0x4 d:/mingw/bin/../lib/gcc/mingw32/4.5.2/../../../libadvapi32.a(dgxgs00397.o)
 .idata$7       0x0045cdbc        0x4 d:/mingw/bin/../lib/gcc/mingw32/4.5.2/../../../libadvapi32.a(dgxgs00400.o)
 .idata$7       0x0045cdc0        0x4 d:/mingw/bin/../lib/gcc/mingw32/4.5.2/../../../libadvapi32.a(dgxgs00412.o)
 .idata$7       0x0045cdc4        0x4 d:/mingw/bin/../lib/gcc/mingw32/4.5.2/../../../libadvapi32.a(dgxgs00423.o)
 .idata$7       0x0045cdc8        0x4 d:/mingw/bin/../lib/gcc/mingw32/4.5.2/../../../libadvapi32.a(dgxgs00434.o)
 .idata$7       0x0045cdcc       0x10 d:/mingw/bin/../lib/gcc/mingw32/4.5.2/../../../libadvapi32.a(dgxgt.o)
                0x0045cdcc                _libadvapi32_a_iname
 .idata$7       0x0045cddc        0x4 d:/mingw/bin/../lib/gcc/mingw32/4.5.2/../../../libkernel32.a(dchds00016.o)
 .idata$7       0x0045cde0        0x4 d:/mingw/bin/../lib/gcc/mingw32/4.5.2/../../../libkernel32.a(dchds00082.o)
 .idata$7       0x0045cde4        0x4 d:/mingw/bin/../lib/gcc/mingw32/4.5.2/../../../libkernel32.a(dchds00123.o)
 .idata$7       0x0045cde8        0x4 d:/mingw/bin/../lib/gcc/mingw32/4.5.2/../../../libkernel32.a(dchds00129.o)
 .idata$7       0x0045cdec        0x4 d:/mingw/bin/../lib/gcc/mingw32/4.5.2/../../../libkernel32.a(dchds00135.o)
 .idata$7       0x0045cdf0        0x4 d:/mingw/bin/../lib/gcc/mingw32/4.5.2/../../../libkernel32.a(dchds00136.o)
 .idata$7       0x0045cdf4        0x4 d:/mingw/bin/../lib/gcc/mingw32/4.5.2/../../../libkernel32.a(dchds00160.o)
 .idata$7       0x0045cdf8        0x4 d:/mingw/bin/../lib/gcc/mingw32/4.5.2/../../../libkernel32.a(dchds00163.o)
 .idata$7       0x0045cdfc        0x4 d:/mingw/bin/../lib/gcc/mingw32/4.5.2/../../../libkernel32.a(dchds00179.o)
 .idata$7       0x0045ce00        0x4 d:/mingw/bin/../lib/gcc/mingw32/4.5.2/../../../libkernel32.a(dchds00207.o)
 .idata$7       0x0045ce04        0x4 d:/mingw/bin/../lib/gcc/mingw32/4.5.2/../../../libkernel32.a(dchds00236.o)
 .idata$7       0x0045ce08        0x4 d:/mingw/bin/../lib/gcc/mingw32/4.5.2/../../../libkernel32.a(dchds00279.o)
 .idata$7       0x0045ce0c        0x4 d:/mingw/bin/../lib/gcc/mingw32/4.5.2/../../../libkernel32.a(dchds00300.o)
 .idata$7       0x0045ce10        0x4 d:/mingw/bin/../lib/gcc/mingw32/4.5.2/../../../libkernel32.a(dchds00304.o)
 .idata$7       0x0045ce14        0x4 d:/mingw/bin/../lib/gcc/mingw32/4.5.2/../../../libkernel32.a(dchds00321.o)
 .idata$7       0x0045ce18        0x4 d:/mingw/bin/../lib/gcc/mingw32/4.5.2/../../../libkernel32.a(dchds00347.o)
 .idata$7       0x0045ce1c        0x4 d:/mingw/bin/../lib/gcc/mingw32/4.5.2/../../../libkernel32.a(dchds00352.o)
 .idata$7       0x0045ce20        0x4 d:/mingw/bin/../lib/gcc/mingw32/4.5.2/../../../libkernel32.a(dchds00426.o)
 .idata$7       0x0045ce24        0x4 d:/mingw/bin/../lib/gcc/mingw32/4.5.2/../../../libkernel32.a(dchds00444.o)
 .idata$7       0x0045ce28        0x4 d:/mingw/bin/../lib/gcc/mingw32/4.5.2/../../../libkernel32.a(dchds00446.o)
 .idata$7       0x0045ce2c        0x4 d:/mingw/bin/../lib/gcc/mingw32/4.5.2/../../../libkernel32.a(dchds00447.o)
 .idata$7       0x0045ce30        0x4 d:/mingw/bin/../lib/gcc/mingw32/4.5.2/../../../libkernel32.a(dchds00450.o)
 .idata$7       0x0045ce34        0x4 d:/mingw/bin/../lib/gcc/mingw32/4.5.2/../../../libkernel32.a(dchds00451.o)
 .idata$7       0x0045ce38        0x4 d:/mingw/bin/../lib/gcc/mingw32/4.5.2/../../../libkernel32.a(dchds00473.o)
 .idata$7       0x0045ce3c        0x4 d:/mingw/bin/../lib/gcc/mingw32/4.5.2/../../../libkernel32.a(dchds00481.o)
 .idata$7       0x0045ce40        0x4 d:/mingw/bin/../lib/gcc/mingw32/4.5.2/../../../libkernel32.a(dchds00492.o)
 .idata$7       0x0045ce44        0x4 d:/mingw/bin/../lib/gcc/mingw32/4.5.2/../../../libkernel32.a(dchds00494.o)
 .idata$7       0x0045ce48        0x4 d:/mingw/bin/../lib/gcc/mingw32/4.5.2/../../../libkernel32.a(dchds00510.o)
 .idata$7       0x0045ce4c        0x4 d:/mingw/bin/../lib/gcc/mingw32/4.5.2/../../../libkernel32.a(dchds00511.o)
 .idata$7       0x0045ce50        0x4 d:/mingw/bin/../lib/gcc/mingw32/4.5.2/../../../libkernel32.a(dchds00529.o)
 .idata$7       0x0045ce54        0x4 d:/mingw/bin/../lib/gcc/mingw32/4.5.2/../../../libkernel32.a(dchds00564.o)
 .idata$7       0x0045ce58        0x4 d:/mingw/bin/../lib/gcc/mingw32/4.5.2/../../../libkernel32.a(dchds00577.o)
 .idata$7       0x0045ce5c        0x4 d:/mingw/bin/../lib/gcc/mingw32/4.5.2/../../../libkernel32.a(dchds00590.o)
 .idata$7       0x0045ce60        0x4 d:/mingw/bin/../lib/gcc/mingw32/4.5.2/../../../libkernel32.a(dchds00608.o)
 .idata$7       0x0045ce64        0x4 d:/mingw/bin/../lib/gcc/mingw32/4.5.2/../../../libkernel32.a(dchds00619.o)
 .idata$7       0x0045ce68        0x4 d:/mingw/bin/../lib/gcc/mingw32/4.5.2/../../../libkernel32.a(dchds00627.o)
 .idata$7       0x0045ce6c        0x4 d:/mingw/bin/../lib/gcc/mingw32/4.5.2/../../../libkernel32.a(dchds00628.o)
 .idata$7       0x0045ce70        0x4 d:/mingw/bin/../lib/gcc/mingw32/4.5.2/../../../libkernel32.a(dchds00653.o)
 .idata$7       0x0045ce74        0x4 d:/mingw/bin/../lib/gcc/mingw32/4.5.2/../../../libkernel32.a(dchds00656.o)
 .idata$7       0x0045ce78        0x4 d:/mingw/bin/../lib/gcc/mingw32/4.5.2/../../../libkernel32.a(dchds00671.o)
 .idata$7       0x0045ce7c        0x4 d:/mingw/bin/../lib/gcc/mingw32/4.5.2/../../../libkernel32.a(dchds00682.o)
 .idata$7       0x0045ce80        0x4 d:/mingw/bin/../lib/gcc/mingw32/4.5.2/../../../libkernel32.a(dchds00699.o)
 .idata$7       0x0045ce84        0x4 d:/mingw/bin/../lib/gcc/mingw32/4.5.2/../../../libkernel32.a(dchds00734.o)
 .idata$7       0x0045ce88        0x4 d:/mingw/bin/../lib/gcc/mingw32/4.5.2/../../../libkernel32.a(dchds00814.o)
 .idata$7       0x0045ce8c        0x4 d:/mingw/bin/../lib/gcc/mingw32/4.5.2/../../../libkernel32.a(dchds00817.o)
 .idata$7       0x0045ce90        0x4 d:/mingw/bin/../lib/gcc/mingw32/4.5.2/../../../libkernel32.a(dchds00825.o)
 .idata$7       0x0045ce94        0x4 d:/mingw/bin/../lib/gcc/mingw32/4.5.2/../../../libkernel32.a(dchds00829.o)
 .idata$7       0x0045ce98        0x4 d:/mingw/bin/../lib/gcc/mingw32/4.5.2/../../../libkernel32.a(dchds00844.o)
 .idata$7       0x0045ce9c        0x4 d:/mingw/bin/../lib/gcc/mingw32/4.5.2/../../../libkernel32.a(dchds00885.o)
 .idata$7       0x0045cea0        0x4 d:/mingw/bin/../lib/gcc/mingw32/4.5.2/../../../libkernel32.a(dchds00922.o)
 .idata$7       0x0045cea4        0x4 d:/mingw/bin/../lib/gcc/mingw32/4.5.2/../../../libkernel32.a(dchds00947.o)
 .idata$7       0x0045cea8        0x4 d:/mingw/bin/../lib/gcc/mingw32/4.5.2/../../../libkernel32.a(dchds01037.o)
 .idata$7       0x0045ceac        0x4 d:/mingw/bin/../lib/gcc/mingw32/4.5.2/../../../libkernel32.a(dchds01052.o)
 .idata$7       0x0045ceb0        0x4 d:/mingw/bin/../lib/gcc/mingw32/4.5.2/../../../libkernel32.a(dchds01065.o)
 .idata$7       0x0045ceb4        0x4 d:/mingw/bin/../lib/gcc/mingw32/4.5.2/../../../libkernel32.a(dchds01078.o)
 .idata$7       0x0045ceb8        0x4 d:/mingw/bin/../lib/gcc/mingw32/4.5.2/../../../libkernel32.a(dchds01082.o)
 .idata$7       0x0045cebc        0x4 d:/mingw/bin/../lib/gcc/mingw32/4.5.2/../../../libkernel32.a(dchds01088.o)
 .idata$7       0x0045cec0        0x4 d:/mingw/bin/../lib/gcc/mingw32/4.5.2/../../../libkernel32.a(dchds01140.o)
 .idata$7       0x0045cec4        0x4 d:/mingw/bin/../lib/gcc/mingw32/4.5.2/../../../libkernel32.a(dchds01173.o)
 .idata$7       0x0045cec8        0x4 d:/mingw/bin/../lib/gcc/mingw32/4.5.2/../../../libkernel32.a(dchds01188.o)
 .idata$7       0x0045cecc        0x4 d:/mingw/bin/../lib/gcc/mingw32/4.5.2/../../../libkernel32.a(dchds01213.o)
 .idata$7       0x0045ced0        0x4 d:/mingw/bin/../lib/gcc/mingw32/4.5.2/../../../libkernel32.a(dchds01215.o)
 .idata$7       0x0045ced4        0x4 d:/mingw/bin/../lib/gcc/mingw32/4.5.2/../../../libkernel32.a(dchds01221.o)
 .idata$7       0x0045ced8        0x4 d:/mingw/bin/../lib/gcc/mingw32/4.5.2/../../../libkernel32.a(dchds01223.o)
 .idata$7       0x0045cedc        0x4 d:/mingw/bin/../lib/gcc/mingw32/4.5.2/../../../libkernel32.a(dchds01267.o)
 .idata$7       0x0045cee0       0x10 d:/mingw/bin/../lib/gcc/mingw32/4.5.2/../../../libkernel32.a(dchdt.o)
                0x0045cee0                _libkernel32_a_iname
 .idata$7       0x0045cef0        0x4 d:/mingw/bin/../lib/gcc/mingw32/4.5.2/../../../libmoldname.a(dgzls00081.o)
 .idata$7       0x0045cef4        0x4 d:/mingw/bin/../lib/gcc/mingw32/4.5.2/../../../libmoldname.a(dgzls00084.o)
 .idata$7       0x0045cef8        0xc d:/mingw/bin/../lib/gcc/mingw32/4.5.2/../../../libmoldname.a(dgzlt.o)
                0x0045cef8                _libmoldname_a_iname
 .idata$7       0x0045cf04        0x4 d:/mingw/bin/../lib/gcc/mingw32/4.5.2/../../../libmsvcrt.a(duyms00055.o)
 .idata$7       0x0045cf08        0x4 d:/mingw/bin/../lib/gcc/mingw32/4.5.2/../../../libmsvcrt.a(duyms00065.o)
 .idata$7       0x0045cf0c        0x4 d:/mingw/bin/../lib/gcc/mingw32/4.5.2/../../../libmsvcrt.a(duyms00077.o)
 .idata$7       0x0045cf10        0x4 d:/mingw/bin/../lib/gcc/mingw32/4.5.2/../../../libmsvcrt.a(duyms00079.o)
 .idata$7       0x0045cf14        0x4 d:/mingw/bin/../lib/gcc/mingw32/4.5.2/../../../libmsvcrt.a(duyms00099.o)
 .idata$7       0x0045cf18        0x4 d:/mingw/bin/../lib/gcc/mingw32/4.5.2/../../../libmsvcrt.a(duyms00137.o)
 .idata$7       0x0045cf1c        0x4 d:/mingw/bin/../lib/gcc/mingw32/4.5.2/../../../libmsvcrt.a(duyms00147.o)
 .idata$7       0x0045cf20        0x4 d:/mingw/bin/../lib/gcc/mingw32/4.5.2/../../../libmsvcrt.a(duyms00266.o)
 .idata$7       0x0045cf24        0x4 d:/mingw/bin/../lib/gcc/mingw32/4.5.2/../../../libmsvcrt.a(duyms00268.o)
 .idata$7       0x0045cf28        0x4 d:/mingw/bin/../lib/gcc/mingw32/4.5.2/../../../libmsvcrt.a(duyms00383.o)
 .idata$7       0x0045cf2c        0x4 d:/mingw/bin/../lib/gcc/mingw32/4.5.2/../../../libmsvcrt.a(duyms00392.o)
 .idata$7       0x0045cf30        0x4 d:/mingw/bin/../lib/gcc/mingw32/4.5.2/../../../libmsvcrt.a(duyms00426.o)
 .idata$7       0x0045cf34        0x4 d:/mingw/bin/../lib/gcc/mingw32/4.5.2/../../../libmsvcrt.a(duyms00490.o)
 .idata$7       0x0045cf38        0x4 d:/mingw/bin/../lib/gcc/mingw32/4.5.2/../../../libmsvcrt.a(duyms00538.o)
 .idata$7       0x0045cf3c        0x4 d:/mingw/bin/../lib/gcc/mingw32/4.5.2/../../../libmsvcrt.a(duyms00583.o)
 .idata$7       0x0045cf40        0x4 d:/mingw/bin/../lib/gcc/mingw32/4.5.2/../../../libmsvcrt.a(duyms00590.o)
 .idata$7       0x0045cf44        0x4 d:/mingw/bin/../lib/gcc/mingw32/4.5.2/../../../libmsvcrt.a(duyms00592.o)
 .idata$7       0x0045cf48        0x4 d:/mingw/bin/../lib/gcc/mingw32/4.5.2/../../../libmsvcrt.a(duyms00595.o)
 .idata$7       0x0045cf4c        0x4 d:/mingw/bin/../lib/gcc/mingw32/4.5.2/../../../libmsvcrt.a(duyms00604.o)
 .idata$7       0x0045cf50        0x4 d:/mingw/bin/../lib/gcc/mingw32/4.5.2/../../../libmsvcrt.a(duyms00607.o)
 .idata$7       0x0045cf54        0x4 d:/mingw/bin/../lib/gcc/mingw32/4.5.2/../../../libmsvcrt.a(duyms00610.o)
 .idata$7       0x0045cf58        0x4 d:/mingw/bin/../lib/gcc/mingw32/4.5.2/../../../libmsvcrt.a(duyms00611.o)
 .idata$7       0x0045cf5c        0x4 d:/mingw/bin/../lib/gcc/mingw32/4.5.2/../../../libmsvcrt.a(duyms00613.o)
 .idata$7       0x0045cf60        0x4 d:/mingw/bin/../lib/gcc/mingw32/4.5.2/../../../libmsvcrt.a(duyms00618.o)
 .idata$7       0x0045cf64        0x4 d:/mingw/bin/../lib/gcc/mingw32/4.5.2/../../../libmsvcrt.a(duyms00619.o)
 .idata$7       0x0045cf68        0x4 d:/mingw/bin/../lib/gcc/mingw32/4.5.2/../../../libmsvcrt.a(duyms00620.o)
 .idata$7       0x0045cf6c        0x4 d:/mingw/bin/../lib/gcc/mingw32/4.5.2/../../../libmsvcrt.a(duyms00621.o)
 .idata$7       0x0045cf70        0x4 d:/mingw/bin/../lib/gcc/mingw32/4.5.2/../../../libmsvcrt.a(duyms00624.o)
 .idata$7       0x0045cf74        0x4 d:/mingw/bin/../lib/gcc/mingw32/4.5.2/../../../libmsvcrt.a(duyms00625.o)
 .idata$7       0x0045cf78        0x4 d:/mingw/bin/../lib/gcc/mingw32/4.5.2/../../../libmsvcrt.a(duyms00633.o)
 .idata$7       0x0045cf7c        0x4 d:/mingw/bin/../lib/gcc/mingw32/4.5.2/../../../libmsvcrt.a(duyms00637.o)
 .idata$7       0x0045cf80        0x4 d:/mingw/bin/../lib/gcc/mingw32/4.5.2/../../../libmsvcrt.a(duyms00676.o)
 .idata$7       0x0045cf84        0x4 d:/mingw/bin/../lib/gcc/mingw32/4.5.2/../../../libmsvcrt.a(duyms00680.o)
 .idata$7       0x0045cf88        0x4 d:/mingw/bin/../lib/gcc/mingw32/4.5.2/../../../libmsvcrt.a(duyms00681.o)
 .idata$7       0x0045cf8c        0x4 d:/mingw/bin/../lib/gcc/mingw32/4.5.2/../../../libmsvcrt.a(duyms00682.o)
 .idata$7       0x0045cf90        0x4 d:/mingw/bin/../lib/gcc/mingw32/4.5.2/../../../libmsvcrt.a(duyms00683.o)
 .idata$7       0x0045cf94        0x4 d:/mingw/bin/../lib/gcc/mingw32/4.5.2/../../../libmsvcrt.a(duyms00689.o)
 .idata$7       0x0045cf98        0x4 d:/mingw/bin/../lib/gcc/mingw32/4.5.2/../../../libmsvcrt.a(duyms00692.o)
 .idata$7       0x0045cf9c        0x4 d:/mingw/bin/../lib/gcc/mingw32/4.5.2/../../../libmsvcrt.a(duyms00695.o)
 .idata$7       0x0045cfa0        0x4 d:/mingw/bin/../lib/gcc/mingw32/4.5.2/../../../libmsvcrt.a(duyms00698.o)
 .idata$7       0x0045cfa4        0x4 d:/mingw/bin/../lib/gcc/mingw32/4.5.2/../../../libmsvcrt.a(duyms00699.o)
 .idata$7       0x0045cfa8        0x4 d:/mingw/bin/../lib/gcc/mingw32/4.5.2/../../../libmsvcrt.a(duyms00706.o)
 .idata$7       0x0045cfac        0x4 d:/mingw/bin/../lib/gcc/mingw32/4.5.2/../../../libmsvcrt.a(duyms00709.o)
 .idata$7       0x0045cfb0        0x4 d:/mingw/bin/../lib/gcc/mingw32/4.5.2/../../../libmsvcrt.a(duyms00712.o)
 .idata$7       0x0045cfb4        0x4 d:/mingw/bin/../lib/gcc/mingw32/4.5.2/../../../libmsvcrt.a(duyms00714.o)
 .idata$7       0x0045cfb8        0x4 d:/mingw/bin/../lib/gcc/mingw32/4.5.2/../../../libmsvcrt.a(duyms00715.o)
 .idata$7       0x0045cfbc        0x4 d:/mingw/bin/../lib/gcc/mingw32/4.5.2/../../../libmsvcrt.a(duyms00717.o)
 .idata$7       0x0045cfc0        0x4 d:/mingw/bin/../lib/gcc/mingw32/4.5.2/../../../libmsvcrt.a(duyms00718.o)
 .idata$7       0x0045cfc4        0x4 d:/mingw/bin/../lib/gcc/mingw32/4.5.2/../../../libmsvcrt.a(duyms00720.o)
 .idata$7       0x0045cfc8        0x4 d:/mingw/bin/../lib/gcc/mingw32/4.5.2/../../../libmsvcrt.a(duyms00723.o)
 .idata$7       0x0045cfcc        0x4 d:/mingw/bin/../lib/gcc/mingw32/4.5.2/../../../libmsvcrt.a(duyms00724.o)
 .idata$7       0x0045cfd0        0x4 d:/mingw/bin/../lib/gcc/mingw32/4.5.2/../../../libmsvcrt.a(duyms00726.o)
 .idata$7       0x0045cfd4        0x4 d:/mingw/bin/../lib/gcc/mingw32/4.5.2/../../../libmsvcrt.a(duyms00727.o)
 .idata$7       0x0045cfd8        0x4 d:/mingw/bin/../lib/gcc/mingw32/4.5.2/../../../libmsvcrt.a(duyms00731.o)
 .idata$7       0x0045cfdc        0x4 d:/mingw/bin/../lib/gcc/mingw32/4.5.2/../../../libmsvcrt.a(duyms00732.o)
 .idata$7       0x0045cfe0        0x4 d:/mingw/bin/../lib/gcc/mingw32/4.5.2/../../../libmsvcrt.a(duyms00736.o)
 .idata$7       0x0045cfe4        0x4 d:/mingw/bin/../lib/gcc/mingw32/4.5.2/../../../libmsvcrt.a(duyms00739.o)
 .idata$7       0x0045cfe8        0x4 d:/mingw/bin/../lib/gcc/mingw32/4.5.2/../../../libmsvcrt.a(duyms00742.o)
 .idata$7       0x0045cfec        0x4 d:/mingw/bin/../lib/gcc/mingw32/4.5.2/../../../libmsvcrt.a(duyms00746.o)
 .idata$7       0x0045cff0        0x4 d:/mingw/bin/../lib/gcc/mingw32/4.5.2/../../../libmsvcrt.a(duyms00748.o)
 .idata$7       0x0045cff4        0xc d:/mingw/bin/../lib/gcc/mingw32/4.5.2/../../../libmsvcrt.a(duymt.o)
                0x0045cff4                _libmsvcrt_a_iname
 .idata$7       0x0045d000        0x4 d:/mingw/bin/../lib/gcc/mingw32/4.5.2/../../../libuser32.a(daois00210.o)
 .idata$7       0x0045d004        0x4 d:/mingw/bin/../lib/gcc/mingw32/4.5.2/../../../libuser32.a(daois00224.o)
 .idata$7       0x0045d008        0x4 d:/mingw/bin/../lib/gcc/mingw32/4.5.2/../../../libuser32.a(daois00241.o)
 .idata$7       0x0045d00c        0x4 d:/mingw/bin/../lib/gcc/mingw32/4.5.2/../../../libuser32.a(daois00247.o)
 .idata$7       0x0045d010        0x4 d:/mingw/bin/../lib/gcc/mingw32/4.5.2/../../../libuser32.a(daois00259.o)
 .idata$7       0x0045d014        0x4 d:/mingw/bin/../lib/gcc/mingw32/4.5.2/../../../libuser32.a(daois00310.o)
 .idata$7       0x0045d018        0x4 d:/mingw/bin/../lib/gcc/mingw32/4.5.2/../../../libuser32.a(daois00508.o)
 .idata$7       0x0045d01c        0xc d:/mingw/bin/../lib/gcc/mingw32/4.5.2/../../../libuser32.a(daoit.o)
                0x0045d01c                _libuser32_a_iname

.CRT            0x0045e000      0x200
                0x0045e000                ___crt_xc_start__ = .
 *(SORT(.CRT$XC*))
                0x0045e000                ___crt_xc_end__ = .
                0x0045e000                ___crt_xi_start__ = .
 *(SORT(.CRT$XI*))
                0x0045e000                ___crt_xi_end__ = .
                0x0045e000                ___crt_xl_start__ = .
 *(SORT(.CRT$XL*))
 .CRT$XLA       0x0045e000        0x4 d:/mingw/bin/../lib/gcc/mingw32/4.5.2/../../../libmingw32.a(tlssup.o)
                0x0045e000                __xl_a
 .CRT$XLC       0x0045e004        0x4 d:/mingw/bin/../lib/gcc/mingw32/4.5.2/../../../libmingw32.a(tlssup.o)
                0x0045e004                __xl_c
 .CRT$XLD       0x0045e008        0x4 d:/mingw/bin/../lib/gcc/mingw32/4.5.2/../../../libmingw32.a(tlssup.o)
                0x0045e008                __xl_d
 .CRT$XLZ       0x0045e00c        0x4 d:/mingw/bin/../lib/gcc/mingw32/4.5.2/../../../libmingw32.a(tlssup.o)
                0x0045e00c                __xl_z
                0x0045e010                ___crt_xp_start__ = .
 *(SORT(.CRT$XP*))
                0x0045e010                ___crt_xp_end__ = .
                0x0045e010                ___crt_xt_start__ = .
 *(SORT(.CRT$XT*))
                0x0045e010                ___crt_xt_end__ = .
 .CRT$XDA       0x0045e010        0x4 d:/mingw/bin/../lib/gcc/mingw32/4.5.2/../../../libmingw32.a(tlssup.o)
 .CRT$XDZ       0x0045e014        0x4 d:/mingw/bin/../lib/gcc/mingw32/4.5.2/../../../libmingw32.a(tlssup.o)

.tls            0x0045f000      0x200
                0x0045f000                ___tls_start__ = .
 *(.tls)
 .tls           0x0045f000       0x18 d:/mingw/bin/../lib/gcc/mingw32/4.5.2/../../../libmingw32.a(tlssup.o)
                0x0045f000                _tls_used
 *(.tls$)
 *(SORT(.tls$*))
 .tls$AAA       0x0045f018        0x4 d:/mingw/bin/../lib/gcc/mingw32/4.5.2/../../../libmingw32.a(tlssup.o)
                0x0045f018                _tls_start
 .tls$ZZZ       0x0045f01c        0x4 d:/mingw/bin/../lib/gcc/mingw32/4.5.2/../../../libmingw32.a(tlssup.o)
                0x0045f01c                _tls_end
                0x0045f020                ___tls_end__ = .

.endjunk        0x00460000        0x0
                0x00460000                PROVIDE (end, .)
                0x00460000                PROVIDE (_end, .)
                0x00460000                __end__ = .

.rsrc           0x00460000     0x1600
 *(.rsrc)
 .rsrc          0x00460000     0x1528 psftp.res.o
 *(SORT(.rsrc$*))

.reloc
 *(.reloc)

.stab
 *(.stab)

.stabstr
 *(.stabstr)

.debug_aranges
 *(.debug_aranges)

.debug_pubnames
 *(.debug_pubnames)

.debug_pubtypes
 *(.debug_pubtypes)

.debug_info
 *(.debug_info)
 *(.gnu.linkonce.wi.*)

.debug_abbrev
 *(.debug_abbrev)

.debug_line
 *(.debug_line)

.debug_frame
 *(.debug_frame*)

.debug_str
 *(.debug_str)

.debug_loc
 *(.debug_loc)

.debug_macinfo
 *(.debug_macinfo)

.debug_weaknames
 *(.debug_weaknames)

.debug_funcnames
 *(.debug_funcnames)

.debug_typenames
 *(.debug_typenames)

.debug_varnames
 *(.debug_varnames)

.debug_ranges
 *(.debug_ranges)

.debug_types
 *(.debug_types)
 *(.gnu.linkonce.wt.*)
OUTPUT(psftp.exe pei-i386)
