Archive member included because of file (symbol)

d:/mingw/bin/../lib/gcc/mingw32/4.5.2/../../../libadvapi32.a(dgxgs00245.o)
                              winmisc.o (GetUserNameA@8)
d:/mingw/bin/../lib/gcc/mingw32/4.5.2/../../../libadvapi32.a(dgxgs00393.o)
                              winstore.o (RegDeleteKeyA@8)
d:/mingw/bin/../lib/gcc/mingw32/4.5.2/../../../libadvapi32.a(dgxgs00400.o)
                              winstore.o (RegEnumKeyA@16)
d:/mingw/bin/../lib/gcc/mingw32/4.5.2/../../../libadvapi32.a(dgxgs00412.o)
                              winstore.o (RegOpenKeyA@12)
d:/mingw/bin/../lib/gcc/mingw32/4.5.2/../../../libadvapi32.a(dgxgs00386.o)
                              winstore.o (RegCloseKey@4)
d:/mingw/bin/../lib/gcc/mingw32/4.5.2/../../../libadvapi32.a(dgxgs00423.o)
                              winstore.o (RegQueryValueExA@24)
d:/mingw/bin/../lib/gcc/mingw32/4.5.2/../../../libadvapi32.a(dgxgs00389.o)
                              winstore.o (RegCreateKeyA@12)
d:/mingw/bin/../lib/gcc/mingw32/4.5.2/../../../libadvapi32.a(dgxgs00434.o)
                              winstore.o (RegSetValueExA@24)
d:/mingw/bin/../lib/gcc/mingw32/4.5.2/../../../libadvapi32.a(dgxgs00390.o)
                              winstore.o (RegCreateKeyExA@36)
d:/mingw/bin/../lib/gcc/mingw32/4.5.2/../../../libadvapi32.a(dgxgs00397.o)
                              winstore.o (RegDeleteValueA@8)
d:/mingw/bin/../lib/gcc/mingw32/4.5.2/../../../libadvapi32.a(dgxgh.o)
                              d:/mingw/bin/../lib/gcc/mingw32/4.5.2/../../../libadvapi32.a(dgxgs00245.o) (_head_libadvapi32_a)
d:/mingw/bin/../lib/gcc/mingw32/4.5.2/../../../libadvapi32.a(dgxgt.o)
                              d:/mingw/bin/../lib/gcc/mingw32/4.5.2/../../../libadvapi32.a(dgxgh.o) (_libadvapi32_a_iname)
d:/mingw/bin/../lib/gcc/mingw32/4.5.2/../../../libcomctl32.a(dqqhs00098.o)
                              winctrls.o (MakeDragList@4)
d:/mingw/bin/../lib/gcc/mingw32/4.5.2/../../../libcomctl32.a(dqqhs00097.o)
                              winctrls.o (LBItemFromPt@16)
d:/mingw/bin/../lib/gcc/mingw32/4.5.2/../../../libcomctl32.a(dqqhs00042.o)
                              winctrls.o (DrawInsert@12)
d:/mingw/bin/../lib/gcc/mingw32/4.5.2/../../../libcomctl32.a(dqqhs00094.o)
                              window.o (InitCommonControls@0)
d:/mingw/bin/../lib/gcc/mingw32/4.5.2/../../../libcomctl32.a(dqqhh.o)
                              d:/mingw/bin/../lib/gcc/mingw32/4.5.2/../../../libcomctl32.a(dqqhs00098.o) (_head_libcomctl32_a)
d:/mingw/bin/../lib/gcc/mingw32/4.5.2/../../../libcomctl32.a(dqqht.o)
                              d:/mingw/bin/../lib/gcc/mingw32/4.5.2/../../../libcomctl32.a(dqqhh.o) (_libcomctl32_a_iname)
d:/mingw/bin/../lib/gcc/mingw32/4.5.2/../../../libcomdlg32.a(demds00002.o)
                              winctrls.o (ChooseFontA@4)
d:/mingw/bin/../lib/gcc/mingw32/4.5.2/../../../libcomdlg32.a(demds00000.o)
                              winctrls.o (ChooseColorA@4)
d:/mingw/bin/../lib/gcc/mingw32/4.5.2/../../../libcomdlg32.a(demds00011.o)
                              winutils.o (GetSaveFileNameA@4)
d:/mingw/bin/../lib/gcc/mingw32/4.5.2/../../../libcomdlg32.a(demds00009.o)
                              winutils.o (GetOpenFileNameA@4)
d:/mingw/bin/../lib/gcc/mingw32/4.5.2/../../../libcomdlg32.a(demdh.o)
                              d:/mingw/bin/../lib/gcc/mingw32/4.5.2/../../../libcomdlg32.a(demds00002.o) (_head_libcomdlg32_a)
d:/mingw/bin/../lib/gcc/mingw32/4.5.2/../../../libcomdlg32.a(demdt.o)
                              d:/mingw/bin/../lib/gcc/mingw32/4.5.2/../../../libcomdlg32.a(demdh.o) (_libcomdlg32_a_iname)
d:/mingw/bin/../lib/gcc/mingw32/4.5.2/../../../libgdi32.a(dkfhs00034.o)
                              sizetip.o (CreateCompatibleDC@4)
d:/mingw/bin/../lib/gcc/mingw32/4.5.2/../../../libgdi32.a(dkfhs00281.o)
                              sizetip.o (SelectObject@8)
d:/mingw/bin/../lib/gcc/mingw32/4.5.2/../../../libgdi32.a(dkfhs00213.o)
                              sizetip.o (GetTextExtentPoint32A@16)
d:/mingw/bin/../lib/gcc/mingw32/4.5.2/../../../libgdi32.a(dkfhs00070.o)
                              sizetip.o (DeleteDC@4)
d:/mingw/bin/../lib/gcc/mingw32/4.5.2/../../../libgdi32.a(dkfhs00073.o)
                              sizetip.o (DeleteObject@4)
d:/mingw/bin/../lib/gcc/mingw32/4.5.2/../../../libgdi32.a(dkfhs00201.o)
                              sizetip.o (GetStockObject@4)
d:/mingw/bin/../lib/gcc/mingw32/4.5.2/../../../libgdi32.a(dkfhs00067.o)
                              sizetip.o (CreateSolidBrush@4)
d:/mingw/bin/../lib/gcc/mingw32/4.5.2/../../../libgdi32.a(dkfhs00263.o)
                              sizetip.o (Rectangle@20)
d:/mingw/bin/../lib/gcc/mingw32/4.5.2/../../../libgdi32.a(dkfhs00323.o)
                              sizetip.o (SetTextColor@8)
d:/mingw/bin/../lib/gcc/mingw32/4.5.2/../../../libgdi32.a(dkfhs00287.o)
                              sizetip.o (SetBkColor@8)
d:/mingw/bin/../lib/gcc/mingw32/4.5.2/../../../libgdi32.a(dkfhs00339.o)
                              sizetip.o (TextOutA@20)
d:/mingw/bin/../lib/gcc/mingw32/4.5.2/../../../libgdi32.a(dkfhs00047.o)
                              sizetip.o (CreateFontIndirectA@4)
d:/mingw/bin/../lib/gcc/mingw32/4.5.2/../../../libgdi32.a(dkfhs00148.o)
                              winctrls.o (GetDeviceCaps@8)
d:/mingw/bin/../lib/gcc/mingw32/4.5.2/../../../libgdi32.a(dkfhs00306.o)
                              winctrls.o (SetMapMode@8)
d:/mingw/bin/../lib/gcc/mingw32/4.5.2/../../../libgdi32.a(dkfhs00210.o)
                              winctrls.o (GetTextExtentExPointA@28)
d:/mingw/bin/../lib/gcc/mingw32/4.5.2/../../../libgdi32.a(dkfhs00046.o)
                              winctrls.o (CreateFontA@56)
d:/mingw/bin/../lib/gcc/mingw32/4.5.2/../../../libgdi32.a(dkfhs00219.o)
                              winctrls.o (GetTextMetricsA@8)
d:/mingw/bin/../lib/gcc/mingw32/4.5.2/../../../libgdi32.a(dkfhs00126.o)
                              window.o (GetCharABCWidthsFloatA@16)
d:/mingw/bin/../lib/gcc/mingw32/4.5.2/../../../libgdi32.a(dkfhs00185.o)
                              window.o (GetObjectA@12)
d:/mingw/bin/../lib/gcc/mingw32/4.5.2/../../../libgdi32.a(dkfhs00341.o)
                              window.o (TranslateCharsetInfo@12)
d:/mingw/bin/../lib/gcc/mingw32/4.5.2/../../../libgdi32.a(dkfhs00033.o)
                              window.o (CreateCompatibleBitmap@12)
d:/mingw/bin/../lib/gcc/mingw32/4.5.2/../../../libgdi32.a(dkfhs00321.o)
                              window.o (SetTextAlign@8)
d:/mingw/bin/../lib/gcc/mingw32/4.5.2/../../../libgdi32.a(dkfhs00288.o)
                              window.o (SetBkMode@8)
d:/mingw/bin/../lib/gcc/mingw32/4.5.2/../../../libgdi32.a(dkfhs00102.o)
                              window.o (ExtTextOutA@32)
d:/mingw/bin/../lib/gcc/mingw32/4.5.2/../../../libgdi32.a(dkfhs00192.o)
                              window.o (GetPixel@12)
d:/mingw/bin/../lib/gcc/mingw32/4.5.2/../../../libgdi32.a(dkfhs00056.o)
                              window.o (CreatePalette@4)
d:/mingw/bin/../lib/gcc/mingw32/4.5.2/../../../libgdi32.a(dkfhs00282.o)
                              window.o (SelectPalette@12)
d:/mingw/bin/../lib/gcc/mingw32/4.5.2/../../../libgdi32.a(dkfhs00260.o)
                              window.o (RealizePalette@4)
d:/mingw/bin/../lib/gcc/mingw32/4.5.2/../../../libgdi32.a(dkfhs00058.o)
                              window.o (CreatePen@12)
d:/mingw/bin/../lib/gcc/mingw32/4.5.2/../../../libgdi32.a(dkfhs00234.o)
                              window.o (MoveToEx@16)
d:/mingw/bin/../lib/gcc/mingw32/4.5.2/../../../libgdi32.a(dkfhs00231.o)
                              window.o (LineTo@12)
d:/mingw/bin/../lib/gcc/mingw32/4.5.2/../../../libgdi32.a(dkfhs00136.o)
                              window.o (GetCharacterPlacementW@24)
d:/mingw/bin/../lib/gcc/mingw32/4.5.2/../../../libgdi32.a(dkfhs00122.o)
                              window.o (GetBkMode@4)
d:/mingw/bin/../lib/gcc/mingw32/4.5.2/../../../libgdi32.a(dkfhs00103.o)
                              window.o (ExtTextOutW@32)
d:/mingw/bin/../lib/gcc/mingw32/4.5.2/../../../libgdi32.a(dkfhs00312.o)
                              window.o (SetPixel@16)
d:/mingw/bin/../lib/gcc/mingw32/4.5.2/../../../libgdi32.a(dkfhs00256.o)
                              window.o (Polyline@12)
d:/mingw/bin/../lib/gcc/mingw32/4.5.2/../../../libgdi32.a(dkfhs00130.o)
                              window.o (GetCharWidth32W@16)
d:/mingw/bin/../lib/gcc/mingw32/4.5.2/../../../libgdi32.a(dkfhs00134.o)
                              window.o (GetCharWidthW@16)
d:/mingw/bin/../lib/gcc/mingw32/4.5.2/../../../libgdi32.a(dkfhs00129.o)
                              window.o (GetCharWidth32A@16)
d:/mingw/bin/../lib/gcc/mingw32/4.5.2/../../../libgdi32.a(dkfhs00131.o)
                              window.o (GetCharWidthA@16)
d:/mingw/bin/../lib/gcc/mingw32/4.5.2/../../../libgdi32.a(dkfhs00028.o)
                              window.o (CreateBitmap@20)
d:/mingw/bin/../lib/gcc/mingw32/4.5.2/../../../libgdi32.a(dkfhs00311.o)
                              window.o (SetPaletteEntries@16)
d:/mingw/bin/../lib/gcc/mingw32/4.5.2/../../../libgdi32.a(dkfhs00342.o)
                              window.o (UnrealizeObject@4)
d:/mingw/bin/../lib/gcc/mingw32/4.5.2/../../../libgdi32.a(dkfhs00227.o)
                              window.o (IntersectClipRect@20)
d:/mingw/bin/../lib/gcc/mingw32/4.5.2/../../../libgdi32.a(dkfhs00096.o)
                              window.o (ExcludeClipRect@20)
d:/mingw/bin/../lib/gcc/mingw32/4.5.2/../../../libgdi32.a(dkfhs00343.o)
                              window.o (UpdateColors@4)
d:/mingw/bin/../lib/gcc/mingw32/4.5.2/../../../libgdi32.a(dkfhh.o)
                              d:/mingw/bin/../lib/gcc/mingw32/4.5.2/../../../libgdi32.a(dkfhs00034.o) (_head_libgdi32_a)
d:/mingw/bin/../lib/gcc/mingw32/4.5.2/../../../libgdi32.a(dkfht.o)
                              d:/mingw/bin/../lib/gcc/mingw32/4.5.2/../../../libgdi32.a(dkfhh.o) (_libgdi32_a_iname)
d:/mingw/bin/../lib/gcc/mingw32/4.5.2/../../../libimm32.a(dkrgs00025.o)
                              window.o (ImmGetContext@4)
d:/mingw/bin/../lib/gcc/mingw32/4.5.2/../../../libimm32.a(dkrgs00065.o)
                              window.o (ImmSetCompositionWindow@8)
d:/mingw/bin/../lib/gcc/mingw32/4.5.2/../../../libimm32.a(dkrgs00059.o)
                              window.o (ImmReleaseContext@8)
d:/mingw/bin/../lib/gcc/mingw32/4.5.2/../../../libimm32.a(dkrgs00023.o)
                              window.o (ImmGetCompositionStringW@16)
d:/mingw/bin/../lib/gcc/mingw32/4.5.2/../../../libimm32.a(dkrgs00061.o)
                              window.o (ImmSetCompositionFontA@8)
d:/mingw/bin/../lib/gcc/mingw32/4.5.2/../../../libimm32.a(dkrgh.o)
                              d:/mingw/bin/../lib/gcc/mingw32/4.5.2/../../../libimm32.a(dkrgs00025.o) (_head_libimm32_a)
d:/mingw/bin/../lib/gcc/mingw32/4.5.2/../../../libimm32.a(dkrgt.o)
                              d:/mingw/bin/../lib/gcc/mingw32/4.5.2/../../../libimm32.a(dkrgh.o) (_libimm32_a_iname)
d:/mingw/bin/../lib/gcc/mingw32/4.5.2/../../../libole32.a(dyads00072.o)
                              window.o (CoUninitialize@0)
d:/mingw/bin/../lib/gcc/mingw32/4.5.2/../../../libole32.a(dyads00037.o)
                              window.o (CoInitialize@4)
d:/mingw/bin/../lib/gcc/mingw32/4.5.2/../../../libole32.a(dyads00012.o)
                              winjump.o (CoCreateInstance@20)
d:/mingw/bin/../lib/gcc/mingw32/4.5.2/../../../libole32.a(dyadh.o)
                              d:/mingw/bin/../lib/gcc/mingw32/4.5.2/../../../libole32.a(dyads00072.o) (_head_libole32_a)
d:/mingw/bin/../lib/gcc/mingw32/4.5.2/../../../libole32.a(dyadt.o)
                              d:/mingw/bin/../lib/gcc/mingw32/4.5.2/../../../libole32.a(dyadh.o) (_libole32_a_iname)
d:/mingw/bin/../lib/gcc/mingw32/4.5.2/../../../libshell32.a(dukis00144.o)
                              windlg.o (ShellExecuteA@24)
d:/mingw/bin/../lib/gcc/mingw32/4.5.2/../../../libshell32.a(dukih.o)
                              d:/mingw/bin/../lib/gcc/mingw32/4.5.2/../../../libshell32.a(dukis00144.o) (_head_libshell32_a)
d:/mingw/bin/../lib/gcc/mingw32/4.5.2/../../../libshell32.a(dukit.o)
                              d:/mingw/bin/../lib/gcc/mingw32/4.5.2/../../../libshell32.a(dukih.o) (_libshell32_a_iname)
d:/mingw/bin/../lib/gcc/mingw32/4.5.2/../../../libuser32.a(daois00134.o)
                              sizetip.o (DefWindowProcA@16)
d:/mingw/bin/../lib/gcc/mingw32/4.5.2/../../../libuser32.a(daois00572.o)
                              sizetip.o (SetWindowPos@28)
d:/mingw/bin/../lib/gcc/mingw32/4.5.2/../../../libuser32.a(daois00370.o)
                              sizetip.o (InvalidateRect@12)
d:/mingw/bin/../lib/gcc/mingw32/4.5.2/../../../libuser32.a(daois00011.o)
                              sizetip.o (BeginPaint@8)
d:/mingw/bin/../lib/gcc/mingw32/4.5.2/../../../libuser32.a(daois00236.o)
                              sizetip.o (GetClientRect@8)
d:/mingw/bin/../lib/gcc/mingw32/4.5.2/../../../libuser32.a(daois00351.o)
                              sizetip.o (GetWindowTextLengthA@4)
d:/mingw/bin/../lib/gcc/mingw32/4.5.2/../../../libuser32.a(daois00350.o)
                              sizetip.o (GetWindowTextA@12)
d:/mingw/bin/../lib/gcc/mingw32/4.5.2/../../../libuser32.a(daois00184.o)
                              sizetip.o (EndPaint@8)
d:/mingw/bin/../lib/gcc/mingw32/4.5.2/../../../libuser32.a(daois00574.o)
                              sizetip.o (SetWindowTextA@8)
d:/mingw/bin/../lib/gcc/mingw32/4.5.2/../../../libuser32.a(daois00323.o)
                              sizetip.o (GetSysColor@4)
d:/mingw/bin/../lib/gcc/mingw32/4.5.2/../../../libuser32.a(daois00591.o)
                              sizetip.o (SystemParametersInfoA@16)
d:/mingw/bin/../lib/gcc/mingw32/4.5.2/../../../libuser32.a(daois00348.o)
                              sizetip.o (GetWindowRect@8)
d:/mingw/bin/../lib/gcc/mingw32/4.5.2/../../../libuser32.a(daois00090.o)
                              sizetip.o (CreateWindowExA@48)
d:/mingw/bin/../lib/gcc/mingw32/4.5.2/../../../libuser32.a(daois00585.o)
                              sizetip.o (ShowWindow@8)
d:/mingw/bin/../lib/gcc/mingw32/4.5.2/../../../libuser32.a(daois00479.o)
                              sizetip.o (RegisterClassA@4)
d:/mingw/bin/../lib/gcc/mingw32/4.5.2/../../../libuser32.a(daois00144.o)
                              sizetip.o (DestroyWindow@4)
d:/mingw/bin/../lib/gcc/mingw32/4.5.2/../../../libuser32.a(daois00225.o)
                              terminal.o (GetCaretBlinkTime@0)
d:/mingw/bin/../lib/gcc/mingw32/4.5.2/../../../libuser32.a(daois00505.o)
                              winctrls.o (SendDlgItemMessageA@20)
d:/mingw/bin/../lib/gcc/mingw32/4.5.2/../../../libuser32.a(daois00508.o)
                              winctrls.o (SendMessageA@16)
d:/mingw/bin/../lib/gcc/mingw32/4.5.2/../../../libuser32.a(daois00426.o)
                              winctrls.o (MapDialogRect@8)
d:/mingw/bin/../lib/gcc/mingw32/4.5.2/../../../libuser32.a(daois00248.o)
                              winctrls.o (GetDC@4)
d:/mingw/bin/../lib/gcc/mingw32/4.5.2/../../../libuser32.a(daois00494.o)
                              winctrls.o (ReleaseDC@8)
d:/mingw/bin/../lib/gcc/mingw32/4.5.2/../../../libuser32.a(daois00569.o)
                              winctrls.o (SetWindowLongA@12)
d:/mingw/bin/../lib/gcc/mingw32/4.5.2/../../../libuser32.a(daois00433.o)
                              winctrls.o (MessageBeep@4)
d:/mingw/bin/../lib/gcc/mingw32/4.5.2/../../../libuser32.a(daois00056.o)
                              winctrls.o (CheckRadioButton@16)
d:/mingw/bin/../lib/gcc/mingw32/4.5.2/../../../libuser32.a(daois00386.o)
                              winctrls.o (IsDlgButtonChecked@8)
d:/mingw/bin/../lib/gcc/mingw32/4.5.2/../../../libuser32.a(daois00053.o)
                              winctrls.o (CheckDlgButton@12)
d:/mingw/bin/../lib/gcc/mingw32/4.5.2/../../../libuser32.a(daois00530.o)
                              winctrls.o (SetDlgItemTextA@12)
d:/mingw/bin/../lib/gcc/mingw32/4.5.2/../../../libuser32.a(daois00255.o)
                              winctrls.o (GetDlgItemTextA@16)
d:/mingw/bin/../lib/gcc/mingw32/4.5.2/../../../libuser32.a(daois00253.o)
                              winctrls.o (GetDlgItem@8)
d:/mingw/bin/../lib/gcc/mingw32/4.5.2/../../../libuser32.a(daois00533.o)
                              winctrls.o (SetFocus@4)
d:/mingw/bin/../lib/gcc/mingw32/4.5.2/../../../libuser32.a(daois00434.o)
                              winctrls.o (MessageBoxA@16)
d:/mingw/bin/../lib/gcc/mingw32/4.5.2/../../../libuser32.a(daois00491.o)
                              winctrls.o (RegisterWindowMessageA@4)
d:/mingw/bin/../lib/gcc/mingw32/4.5.2/../../../libuser32.a(daois00163.o)
                              winctrls.o (DrawEdge@16)
d:/mingw/bin/../lib/gcc/mingw32/4.5.2/../../../libuser32.a(daois00517.o)
                              winctrls.o (SetCapture@4)
d:/mingw/bin/../lib/gcc/mingw32/4.5.2/../../../libuser32.a(daois00182.o)
                              windlg.o (EndDialog@8)
d:/mingw/bin/../lib/gcc/mingw32/4.5.2/../../../libuser32.a(daois00180.o)
                              windlg.o (EnableWindow@8)
d:/mingw/bin/../lib/gcc/mingw32/4.5.2/../../../libuser32.a(daois00147.o)
                              windlg.o (DialogBoxParamA@20)
d:/mingw/bin/../lib/gcc/mingw32/4.5.2/../../../libuser32.a(daois00516.o)
                              windlg.o (SetActiveWindow@4)
d:/mingw/bin/../lib/gcc/mingw32/4.5.2/../../../libuser32.a(daois00304.o)
                              windlg.o (GetParent@4)
d:/mingw/bin/../lib/gcc/mingw32/4.5.2/../../../libuser32.a(daois00127.o)
                              windlg.o (DefDlgProcA@16)
d:/mingw/bin/../lib/gcc/mingw32/4.5.2/../../../libuser32.a(daois00405.o)
                              windlg.o (LoadCursorA@8)
d:/mingw/bin/../lib/gcc/mingw32/4.5.2/../../../libuser32.a(daois00080.o)
                              windlg.o (CreateDialogParamA@20)
d:/mingw/bin/../lib/gcc/mingw32/4.5.2/../../../libuser32.a(daois00293.o)
                              windlg.o (GetMessageA@16)
d:/mingw/bin/../lib/gcc/mingw32/4.5.2/../../../libuser32.a(daois00342.o)
                              windlg.o (GetWindowLongA@8)
d:/mingw/bin/../lib/gcc/mingw32/4.5.2/../../../libuser32.a(daois00384.o)
                              windlg.o (IsDialogMessageA@8)
d:/mingw/bin/../lib/gcc/mingw32/4.5.2/../../../libuser32.a(daois00149.o)
                              windlg.o (DispatchMessageA@4)
d:/mingw/bin/../lib/gcc/mingw32/4.5.2/../../../libuser32.a(daois00468.o)
                              windlg.o (PostQuitMessage@4)
d:/mingw/bin/../lib/gcc/mingw32/4.5.2/../../../libuser32.a(daois00347.o)
                              windlg.o (GetWindowPlacement@8)
d:/mingw/bin/../lib/gcc/mingw32/4.5.2/../../../libuser32.a(daois00571.o)
                              windlg.o (SetWindowPlacement@8)
d:/mingw/bin/../lib/gcc/mingw32/4.5.2/../../../libuser32.a(daois00493.o)
                              windlg.o (ReleaseCapture@0)
d:/mingw/bin/../lib/gcc/mingw32/4.5.2/../../../libuser32.a(daois00409.o)
                              windlg.o (LoadIconA@8)
d:/mingw/bin/../lib/gcc/mingw32/4.5.2/../../../libuser32.a(daois00250.o)
                              windlg.o (GetDesktopWindow@0)
d:/mingw/bin/../lib/gcc/mingw32/4.5.2/../../../libuser32.a(daois00224.o)
                              windlg.o (GetCapture@0)
d:/mingw/bin/../lib/gcc/mingw32/4.5.2/../../../libuser32.a(daois00445.o)
                              windlg.o (MoveWindow@24)
d:/mingw/bin/../lib/gcc/mingw32/4.5.2/../../../libuser32.a(daois00214.o)
                              window.o (FlashWindow@8)
d:/mingw/bin/../lib/gcc/mingw32/4.5.2/../../../libuser32.a(daois00455.o)
                              window.o (OpenClipboard@4)
d:/mingw/bin/../lib/gcc/mingw32/4.5.2/../../../libuser32.a(daois00238.o)
                              window.o (GetClipboardData@4)
d:/mingw/bin/../lib/gcc/mingw32/4.5.2/../../../libuser32.a(daois00061.o)
                              window.o (CloseClipboard@0)
d:/mingw/bin/../lib/gcc/mingw32/4.5.2/../../../libuser32.a(daois00398.o)
                              window.o (IsZoomed@4)
d:/mingw/bin/../lib/gcc/mingw32/4.5.2/../../../libuser32.a(daois00519.o)
                              window.o (SetCaretPos@8)
d:/mingw/bin/../lib/gcc/mingw32/4.5.2/../../../libuser32.a(daois00520.o)
                              window.o (SetClassLongA@12)
d:/mingw/bin/../lib/gcc/mingw32/4.5.2/../../../libuser32.a(daois00525.o)
                              window.o (SetCursor@4)
d:/mingw/bin/../lib/gcc/mingw32/4.5.2/../../../libuser32.a(daois00582.o)
                              window.o (ShowCursor@4)
d:/mingw/bin/../lib/gcc/mingw32/4.5.2/../../../libuser32.a(daois00137.o)
                              window.o (DeleteMenu@12)
d:/mingw/bin/../lib/gcc/mingw32/4.5.2/../../../libuser32.a(daois00006.o)
                              window.o (AppendMenuA@16)
d:/mingw/bin/../lib/gcc/mingw32/4.5.2/../../../libuser32.a(daois00273.o)
                              window.o (GetKeyboardState@4)
d:/mingw/bin/../lib/gcc/mingw32/4.5.2/../../../libuser32.a(daois00054.o)
                              window.o (CheckMenuItem@12)
d:/mingw/bin/../lib/gcc/mingw32/4.5.2/../../../libuser32.a(daois00089.o)
                              window.o (CreatePopupMenu@0)
d:/mingw/bin/../lib/gcc/mingw32/4.5.2/../../../libuser32.a(daois00364.o)
                              window.o (InsertMenuA@20)
d:/mingw/bin/../lib/gcc/mingw32/4.5.2/../../../libuser32.a(daois00400.o)
                              window.o (KillTimer@8)
d:/mingw/bin/../lib/gcc/mingw32/4.5.2/../../../libuser32.a(daois00563.o)
                              window.o (SetTimer@16)
d:/mingw/bin/../lib/gcc/mingw32/4.5.2/../../../libuser32.a(daois00389.o)
                              window.o (IsIconic@4)
d:/mingw/bin/../lib/gcc/mingw32/4.5.2/../../../libuser32.a(daois00074.o)
                              window.o (CreateCaret@16)
d:/mingw/bin/../lib/gcc/mingw32/4.5.2/../../../libuser32.a(daois00554.o)
                              window.o (SetScrollInfo@16)
d:/mingw/bin/../lib/gcc/mingw32/4.5.2/../../../libuser32.a(daois00257.o)
                              window.o (GetDoubleClickTime@0)
d:/mingw/bin/../lib/gcc/mingw32/4.5.2/../../../libuser32.a(daois00325.o)
                              window.o (GetSystemMenu@8)
d:/mingw/bin/../lib/gcc/mingw32/4.5.2/../../../libuser32.a(daois00088.o)
                              window.o (CreateMenu@0)
d:/mingw/bin/../lib/gcc/mingw32/4.5.2/../../../libuser32.a(daois00269.o)
                              window.o (GetKeyboardLayout@4)
d:/mingw/bin/../lib/gcc/mingw32/4.5.2/../../../libuser32.a(daois00534.o)
                              window.o (SetForegroundWindow@4)
d:/mingw/bin/../lib/gcc/mingw32/4.5.2/../../../libuser32.a(daois00259.o)
                              window.o (GetForegroundWindow@0)
d:/mingw/bin/../lib/gcc/mingw32/4.5.2/../../../libuser32.a(daois00622.o)
                              window.o (UpdateWindow@4)
d:/mingw/bin/../lib/gcc/mingw32/4.5.2/../../../libuser32.a(daois00446.o)
                              window.o (MsgWaitForMultipleObjects@20)
d:/mingw/bin/../lib/gcc/mingw32/4.5.2/../../../libuser32.a(daois00464.o)
                              window.o (PeekMessageA@20)
d:/mingw/bin/../lib/gcc/mingw32/4.5.2/../../../libuser32.a(daois00394.o)
                              window.o (IsWindow@4)
d:/mingw/bin/../lib/gcc/mingw32/4.5.2/../../../libuser32.a(daois00177.o)
                              window.o (EmptyClipboard@0)
d:/mingw/bin/../lib/gcc/mingw32/4.5.2/../../../libuser32.a(daois00523.o)
                              window.o (SetClipboardData@8)
d:/mingw/bin/../lib/gcc/mingw32/4.5.2/../../../libuser32.a(daois00483.o)
                              window.o (RegisterClipboardFormatA@4)
d:/mingw/bin/../lib/gcc/mingw32/4.5.2/../../../libuser32.a(daois00358.o)
                              window.o (HideCaret@4)
d:/mingw/bin/../lib/gcc/mingw32/4.5.2/../../../libuser32.a(daois00581.o)
                              window.o (ShowCaret@4)
d:/mingw/bin/../lib/gcc/mingw32/4.5.2/../../../libuser32.a(daois00247.o)
                              window.o (GetCursorPos@4)
d:/mingw/bin/../lib/gcc/mingw32/4.5.2/../../../libuser32.a(daois00296.o)
                              window.o (GetMessageTime@0)
d:/mingw/bin/../lib/gcc/mingw32/4.5.2/../../../libuser32.a(daois00608.o)
                              window.o (TranslateMessage@4)
d:/mingw/bin/../lib/gcc/mingw32/4.5.2/../../../libuser32.a(daois00140.o)
                              window.o (DestroyCaret@0)
d:/mingw/bin/../lib/gcc/mingw32/4.5.2/../../../libuser32.a(daois00535.o)
                              window.o (SetKeyboardState@4)
d:/mingw/bin/../lib/gcc/mingw32/4.5.2/../../../libuser32.a(daois00598.o)
                              window.o (ToAsciiEx@24)
d:/mingw/bin/../lib/gcc/mingw32/4.5.2/../../../libuser32.a(daois00500.o)
                              window.o (ScreenToClient@8)
d:/mingw/bin/../lib/gcc/mingw32/4.5.2/../../../libuser32.a(daois00602.o)
                              window.o (TrackPopupMenu@28)
d:/mingw/bin/../lib/gcc/mingw32/4.5.2/../../../libuser32.a(daois00178.o)
                              window.o (EnableMenuItem@12)
d:/mingw/bin/../lib/gcc/mingw32/4.5.2/../../../libuser32.a(daois00466.o)
                              window.o (PostMessageA@16)
d:/mingw/bin/../lib/gcc/mingw32/4.5.2/../../../libuser32.a(daois00632.o)
                              winhelp.o (WinHelpA@16)
d:/mingw/bin/../lib/gcc/mingw32/4.5.2/../../../libuser32.a(daois00437.o)
                              winutils.o (MessageBoxIndirectA@4)
d:/mingw/bin/../lib/gcc/mingw32/4.5.2/../../../libuser32.a(daoih.o)
                              d:/mingw/bin/../lib/gcc/mingw32/4.5.2/../../../libuser32.a(daois00134.o) (_head_libuser32_a)
d:/mingw/bin/../lib/gcc/mingw32/4.5.2/../../../libuser32.a(daoit.o)
                              d:/mingw/bin/../lib/gcc/mingw32/4.5.2/../../../libuser32.a(daoih.o) (_libuser32_a_iname)
d:/mingw/bin/../lib/gcc/mingw32/4.5.2/../../../libwinmm.a(dopcs00008.o)
                              window.o (PlaySoundA@12)
d:/mingw/bin/../lib/gcc/mingw32/4.5.2/../../../libwinmm.a(dopch.o)
                              d:/mingw/bin/../lib/gcc/mingw32/4.5.2/../../../libwinmm.a(dopcs00008.o) (_head_libwinmm_a)
d:/mingw/bin/../lib/gcc/mingw32/4.5.2/../../../libwinmm.a(dopct.o)
                              d:/mingw/bin/../lib/gcc/mingw32/4.5.2/../../../libwinmm.a(dopch.o) (_libwinmm_a_iname)
d:/mingw/bin/../lib/gcc/mingw32/4.5.2/../../../libwinspool.a(dykds00078.o)
                              winprint.o (EnumPrintersA@28)
d:/mingw/bin/../lib/gcc/mingw32/4.5.2/../../../libwinspool.a(dykds00102.o)
                              winprint.o (OpenPrinterA@12)
d:/mingw/bin/../lib/gcc/mingw32/4.5.2/../../../libwinspool.a(dykds00126.o)
                              winprint.o (StartDocPrinterA@12)
d:/mingw/bin/../lib/gcc/mingw32/4.5.2/../../../libwinspool.a(dykds00128.o)
                              winprint.o (StartPagePrinter@4)
d:/mingw/bin/../lib/gcc/mingw32/4.5.2/../../../libwinspool.a(dykds00059.o)
                              winprint.o (EndDocPrinter@4)
d:/mingw/bin/../lib/gcc/mingw32/4.5.2/../../../libwinspool.a(dykds00025.o)
                              winprint.o (ClosePrinter@4)
d:/mingw/bin/../lib/gcc/mingw32/4.5.2/../../../libwinspool.a(dykds00130.o)
                              winprint.o (WritePrinter@16)
d:/mingw/bin/../lib/gcc/mingw32/4.5.2/../../../libwinspool.a(dykds00060.o)
                              winprint.o (EndPagePrinter@4)
d:/mingw/bin/../lib/gcc/mingw32/4.5.2/../../../libwinspool.a(dykdh.o)
                              d:/mingw/bin/../lib/gcc/mingw32/4.5.2/../../../libwinspool.a(dykds00078.o) (_head_libwinspool_a)
d:/mingw/bin/../lib/gcc/mingw32/4.5.2/../../../libwinspool.a(dykdt.o)
                              d:/mingw/bin/../lib/gcc/mingw32/4.5.2/../../../libwinspool.a(dykdh.o) (_libwinspool_a_iname)
d:/mingw/bin/../lib/gcc/mingw32/4.5.2/../../../libmingw32.a(tlssup.o)
                              d:/mingw/bin/../lib/gcc/mingw32/4.5.2/../../../crt2.o (__dyn_tls_init_callback)
d:/mingw/bin/../lib/gcc/mingw32/4.5.2/../../../libmingw32.a(CRTglob.o)
                              d:/mingw/bin/../lib/gcc/mingw32/4.5.2/../../../crt2.o (_CRT_glob)
d:/mingw/bin/../lib/gcc/mingw32/4.5.2/../../../libmingw32.a(CRTfmode.o)
                              d:/mingw/bin/../lib/gcc/mingw32/4.5.2/../../../crt2.o (_CRT_fmode)
d:/mingw/bin/../lib/gcc/mingw32/4.5.2/../../../libmingw32.a(txtmode.o)
                              d:/mingw/bin/../lib/gcc/mingw32/4.5.2/../../../crt2.o (_fmode)
d:/mingw/bin/../lib/gcc/mingw32/4.5.2/../../../libmingw32.a(cpu_features.o)
                              d:/mingw/bin/../lib/gcc/mingw32/4.5.2/../../../crt2.o (__cpu_features_init)
d:/mingw/bin/../lib/gcc/mingw32/4.5.2/../../../libmingw32.a(pseudo-reloc.o)
                              d:/mingw/bin/../lib/gcc/mingw32/4.5.2/../../../crt2.o (_pei386_runtime_relocator)
d:/mingw/bin/../lib/gcc/mingw32/4.5.2/../../../libmingw32.a(gccmain.o)
                              d:/mingw/bin/../lib/gcc/mingw32/4.5.2/../../../crt2.o (__main)
d:/mingw/bin/../lib/gcc/mingw32/4.5.2/../../../libmingw32.a(main.o)
                              d:/mingw/bin/../lib/gcc/mingw32/4.5.2/../../../crt2.o (main)
d:/mingw/bin/../lib/gcc/mingw32/4.5.2/../../../libmingw32.a(CRT_fp10.o)
                              d:/mingw/bin/../lib/gcc/mingw32/4.5.2/../../../crt2.o (_fpreset)
d:/mingw/bin/../lib/gcc/mingw32/4.5.2/../../../libmingw32.a(crtst.o)
                              d:/mingw/bin/../lib/gcc/mingw32/4.5.2/../../../libmingw32.a(tlssup.o) (_CRT_MT)
d:/mingw/bin/../lib/gcc/mingw32/4.5.2/../../../libmingw32.a(tlsthrd.o)
                              d:/mingw/bin/../lib/gcc/mingw32/4.5.2/../../../libmingw32.a(tlssup.o) (__mingw_TLScallback)
d:/mingw/bin/../lib/gcc/mingw32/4.5.2/../../../libmingw32.a(pseudo-reloc-list.o)
                              d:/mingw/bin/../lib/gcc/mingw32/4.5.2/../../../libmingw32.a(pseudo-reloc.o) (__RUNTIME_PSEUDO_RELOC_LIST_END__)
d:/mingw/bin/../lib/gcc/mingw32/4.5.2/libgcc.a(_chkstk.o)
                              config.o (__chkstk)
d:/mingw/bin/../lib/gcc/mingw32/4.5.2/libgcc.a(_ctors.o)
                              d:/mingw/bin/../lib/gcc/mingw32/4.5.2/../../../libmingw32.a(gccmain.o) (__CTOR_LIST__)
d:/mingw/bin/../lib/gcc/mingw32/4.5.2/../../../libmoldname.a(dgzls00084.o)
                              proxy.o (strnicmp)
d:/mingw/bin/../lib/gcc/mingw32/4.5.2/../../../libmoldname.a(dgzlh.o)
                              d:/mingw/bin/../lib/gcc/mingw32/4.5.2/../../../libmoldname.a(dgzls00084.o) (_head_libmoldname_a)
d:/mingw/bin/../lib/gcc/mingw32/4.5.2/../../../libmoldname.a(dgzlt.o)
                              d:/mingw/bin/../lib/gcc/mingw32/4.5.2/../../../libmoldname.a(dgzlh.o) (_libmoldname_a_iname)
d:/mingw/bin/../lib/gcc/mingw32/4.5.2/../../../libmsvcrt.a(duyms00590.o)
                              d:/mingw/bin/../lib/gcc/mingw32/4.5.2/../../../crt2.o (_imp__atexit)
d:/mingw/bin/../lib/gcc/mingw32/4.5.2/../../../libmsvcrt.a(duyms00383.o)
                              d:/mingw/bin/../lib/gcc/mingw32/4.5.2/../../../crt2.o (_imp___onexit)
d:/mingw/bin/../lib/gcc/mingw32/4.5.2/../../../libmsvcrt.a(duyms00266.o)
                              d:/mingw/bin/../lib/gcc/mingw32/4.5.2/../../../crt2.o (_imp___iob)
d:/mingw/bin/../lib/gcc/mingw32/4.5.2/../../../libmsvcrt.a(duyms00099.o)
                              d:/mingw/bin/../lib/gcc/mingw32/4.5.2/../../../crt2.o (_imp____set_app_type)
d:/mingw/bin/../lib/gcc/mingw32/4.5.2/../../../libmsvcrt.a(duyms00055.o)
                              d:/mingw/bin/../lib/gcc/mingw32/4.5.2/../../../crt2.o (__getmainargs)
d:/mingw/bin/../lib/gcc/mingw32/4.5.2/../../../libmsvcrt.a(duyms00079.o)
                              d:/mingw/bin/../lib/gcc/mingw32/4.5.2/../../../crt2.o (__p__fmode)
d:/mingw/bin/../lib/gcc/mingw32/4.5.2/../../../libmsvcrt.a(duyms00077.o)
                              d:/mingw/bin/../lib/gcc/mingw32/4.5.2/../../../crt2.o (__p__environ)
d:/mingw/bin/../lib/gcc/mingw32/4.5.2/../../../libmsvcrt.a(duyms00147.o)
                              d:/mingw/bin/../lib/gcc/mingw32/4.5.2/../../../crt2.o (_cexit)
d:/mingw/bin/../lib/gcc/mingw32/4.5.2/../../../libmsvcrt.a(duyms00426.o)
                              d:/mingw/bin/../lib/gcc/mingw32/4.5.2/../../../crt2.o (_setmode)
d:/mingw/bin/../lib/gcc/mingw32/4.5.2/../../../libmsvcrt.a(duyms00706.o)
                              d:/mingw/bin/../lib/gcc/mingw32/4.5.2/../../../crt2.o (signal)
d:/mingw/bin/../lib/gcc/mingw32/4.5.2/../../../libmsvcrt.a(duyms00724.o)
                              cmdline.o (strncpy)
d:/mingw/bin/../lib/gcc/mingw32/4.5.2/../../../libmsvcrt.a(duyms00715.o)
                              cmdline.o (strcmp)
d:/mingw/bin/../lib/gcc/mingw32/4.5.2/../../../libmsvcrt.a(duyms00714.o)
                              cmdline.o (strchr)
d:/mingw/bin/../lib/gcc/mingw32/4.5.2/../../../libmsvcrt.a(duyms00723.o)
                              cmdline.o (strncmp)
d:/mingw/bin/../lib/gcc/mingw32/4.5.2/../../../libmsvcrt.a(duyms00592.o)
                              cmdline.o (atoi)
d:/mingw/bin/../lib/gcc/mingw32/4.5.2/../../../libmsvcrt.a(duyms00618.o)
                              cmdline.o (fopen)
d:/mingw/bin/../lib/gcc/mingw32/4.5.2/../../../libmsvcrt.a(duyms00611.o)
                              cmdline.o (fgetc)
d:/mingw/bin/../lib/gcc/mingw32/4.5.2/../../../libmsvcrt.a(duyms00607.o)
                              cmdline.o (fclose)
d:/mingw/bin/../lib/gcc/mingw32/4.5.2/../../../libmsvcrt.a(duyms00717.o)
                              config.o (strcpy)
d:/mingw/bin/../lib/gcc/mingw32/4.5.2/../../../libmsvcrt.a(duyms00683.o)
                              config.o (memmove)
d:/mingw/bin/../lib/gcc/mingw32/4.5.2/../../../libmsvcrt.a(duyms00137.o)
                              config.o (_assert)
d:/mingw/bin/../lib/gcc/mingw32/4.5.2/../../../libmsvcrt.a(duyms00709.o)
                              config.o (sprintf)
d:/mingw/bin/../lib/gcc/mingw32/4.5.2/../../../libmsvcrt.a(duyms00591.o)
                              dialog.o (atof)
d:/mingw/bin/../lib/gcc/mingw32/4.5.2/../../../libmsvcrt.a(duyms00392.o)
                              ldisc.o (_imp___pctype)
d:/mingw/bin/../lib/gcc/mingw32/4.5.2/../../../libmsvcrt.a(duyms00065.o)
                              ldisc.o (_imp____mb_cur_max)
d:/mingw/bin/../lib/gcc/mingw32/4.5.2/../../../libmsvcrt.a(duyms00268.o)
                              ldisc.o (_isctype)
d:/mingw/bin/../lib/gcc/mingw32/4.5.2/../../../libmsvcrt.a(duyms00610.o)
                              logging.o (fflush)
d:/mingw/bin/../lib/gcc/mingw32/4.5.2/../../../libmsvcrt.a(duyms00633.o)
                              logging.o (fwrite)
d:/mingw/bin/../lib/gcc/mingw32/4.5.2/../../../libmsvcrt.a(duyms00720.o)
                              logging.o (strftime)
d:/mingw/bin/../lib/gcc/mingw32/4.5.2/../../../libmsvcrt.a(duyms00742.o)
                              logging.o (tolower)
d:/mingw/bin/../lib/gcc/mingw32/4.5.2/../../../libmsvcrt.a(duyms00619.o)
                              logging.o (fprintf)
d:/mingw/bin/../lib/gcc/mingw32/4.5.2/../../../libmsvcrt.a(duyms00732.o)
                              misc.o (strtoul)
d:/mingw/bin/../lib/gcc/mingw32/4.5.2/../../../libmsvcrt.a(duyms00731.o)
                              misc.o (strtol)
d:/mingw/bin/../lib/gcc/mingw32/4.5.2/../../../libmsvcrt.a(duyms00676.o)
                              misc.o (malloc)
d:/mingw/bin/../lib/gcc/mingw32/4.5.2/../../../libmsvcrt.a(duyms00698.o)
                              misc.o (realloc)
d:/mingw/bin/../lib/gcc/mingw32/4.5.2/../../../libmsvcrt.a(duyms00490.o)
                              misc.o (_vsnprintf)
d:/mingw/bin/../lib/gcc/mingw32/4.5.2/../../../libmsvcrt.a(duyms00625.o)
                              misc.o (free)
d:/mingw/bin/../lib/gcc/mingw32/4.5.2/../../../libmsvcrt.a(duyms00613.o)
                              misc.o (fgets)
d:/mingw/bin/../lib/gcc/mingw32/4.5.2/../../../libmsvcrt.a(duyms00712.o)
                              proxy.o (sscanf)
d:/mingw/bin/../lib/gcc/mingw32/4.5.2/../../../libmsvcrt.a(duyms00726.o)
                              raw.o (strrchr)
d:/mingw/bin/../lib/gcc/mingw32/4.5.2/../../../libmsvcrt.a(duyms00695.o)
                              settings.o (qsort)
d:/mingw/bin/../lib/gcc/mingw32/4.5.2/../../../libmsvcrt.a(duyms00713.o)
                              terminal.o (strcat)
d:/mingw/bin/../lib/gcc/mingw32/4.5.2/../../../libmsvcrt.a(duyms00743.o)
                              terminal.o (toupper)
d:/mingw/bin/../lib/gcc/mingw32/4.5.2/../../../libmsvcrt.a(duyms00604.o)
                              window.o (exit)
d:/mingw/bin/../lib/gcc/mingw32/4.5.2/../../../libmsvcrt.a(duyms00727.o)
                              window.o (strspn)
d:/mingw/bin/../lib/gcc/mingw32/4.5.2/../../../libmsvcrt.a(duyms00718.o)
                              winhelp.o (strcspn)
d:/mingw/bin/../lib/gcc/mingw32/4.5.2/../../../libmsvcrt.a(duyms00637.o)
                              winmisc.o (getenv)
d:/mingw/bin/../lib/gcc/mingw32/4.5.2/../../../libmsvcrt.a(duyms00621.o)
                              winmisc.o (fputs)
d:/mingw/bin/../lib/gcc/mingw32/4.5.2/../../../libmsvcrt.a(duyms00699.o)
                              winstore.o (remove)
d:/mingw/bin/../lib/gcc/mingw32/4.5.2/../../../libmsvcrt.a(duyms00538.o)
                              d:/mingw/bin/../lib/gcc/mingw32/4.5.2/../../../libmingw32.a(tlssup.o) (_imp___winmajor)
d:/mingw/bin/../lib/gcc/mingw32/4.5.2/../../../libmsvcrt.a(duyms00748.o)
                              d:/mingw/bin/../lib/gcc/mingw32/4.5.2/../../../libmingw32.a(pseudo-reloc.o) (vfprintf)
d:/mingw/bin/../lib/gcc/mingw32/4.5.2/../../../libmsvcrt.a(duyms00583.o)
                              d:/mingw/bin/../lib/gcc/mingw32/4.5.2/../../../libmingw32.a(pseudo-reloc.o) (abort)
d:/mingw/bin/../lib/gcc/mingw32/4.5.2/../../../libmsvcrt.a(duyms00682.o)
                              d:/mingw/bin/../lib/gcc/mingw32/4.5.2/../../../libmingw32.a(pseudo-reloc.o) (memcpy)
d:/mingw/bin/../lib/gcc/mingw32/4.5.2/../../../libmsvcrt.a(duyms00595.o)
                              d:/mingw/bin/../lib/gcc/mingw32/4.5.2/../../../libmingw32.a(tlsthrd.o) (calloc)
d:/mingw/bin/../lib/gcc/mingw32/4.5.2/../../../libmsvcrt.a(duymh.o)
                              d:/mingw/bin/../lib/gcc/mingw32/4.5.2/../../../libmsvcrt.a(duyms00590.o) (_head_libmsvcrt_a)
d:/mingw/bin/../lib/gcc/mingw32/4.5.2/../../../libmsvcrt.a(duymt.o)
                              d:/mingw/bin/../lib/gcc/mingw32/4.5.2/../../../libmsvcrt.a(duymh.o) (_libmsvcrt_a_iname)
d:/mingw/bin/../lib/gcc/mingw32/4.5.2/../../../libkernel32.a(dchds01140.o)
                              d:/mingw/bin/../lib/gcc/mingw32/4.5.2/../../../crt2.o (SetUnhandledExceptionFilter@4)
d:/mingw/bin/../lib/gcc/mingw32/4.5.2/../../../libkernel32.a(dchds00279.o)
                              d:/mingw/bin/../lib/gcc/mingw32/4.5.2/../../../crt2.o (ExitProcess@4)
d:/mingw/bin/../lib/gcc/mingw32/4.5.2/../../../libkernel32.a(dchds00529.o)
                              d:/mingw/bin/../lib/gcc/mingw32/4.5.2/crtbegin.o (GetModuleHandleA@4)
d:/mingw/bin/../lib/gcc/mingw32/4.5.2/../../../libkernel32.a(dchds00577.o)
                              d:/mingw/bin/../lib/gcc/mingw32/4.5.2/crtbegin.o (GetProcAddress@8)
d:/mingw/bin/../lib/gcc/mingw32/4.5.2/../../../libkernel32.a(dchds00656.o)
                              terminal.o (GetTickCount@0)
d:/mingw/bin/../lib/gcc/mingw32/4.5.2/../../../libkernel32.a(dchds00859.o)
                              winctrls.o (MulDiv@12)
d:/mingw/bin/../lib/gcc/mingw32/4.5.2/../../../libkernel32.a(dchds00368.o)
                              window.o (GetCPInfo@8)
d:/mingw/bin/../lib/gcc/mingw32/4.5.2/../../../libkernel32.a(dchds00563.o)
                              window.o (GetOEMCP@0)
d:/mingw/bin/../lib/gcc/mingw32/4.5.2/../../../libkernel32.a(dchds00512.o)
                              window.o (GetLocaleInfoA@16)
d:/mingw/bin/../lib/gcc/mingw32/4.5.2/../../../libkernel32.a(dchds00860.o)
                              window.o (MultiByteToWideChar@24)
d:/mingw/bin/../lib/gcc/mingw32/4.5.2/../../../libkernel32.a(dchds00763.o)
                              window.o (IsDBCSLeadByteEx@8)
d:/mingw/bin/../lib/gcc/mingw32/4.5.2/../../../libkernel32.a(dchds00844.o)
                              window.o (MapViewOfFile@20)
d:/mingw/bin/../lib/gcc/mingw32/4.5.2/../../../libkernel32.a(dchds01188.o)
                              window.o (UnmapViewOfFile@4)
d:/mingw/bin/../lib/gcc/mingw32/4.5.2/../../../libkernel32.a(dchds00082.o)
                              window.o (CloseHandle@4)
d:/mingw/bin/../lib/gcc/mingw32/4.5.2/../../../libkernel32.a(dchds00687.o)
                              window.o (GlobalAlloc@8)
d:/mingw/bin/../lib/gcc/mingw32/4.5.2/../../../libkernel32.a(dchds00698.o)
                              window.o (GlobalLock@4)
d:/mingw/bin/../lib/gcc/mingw32/4.5.2/../../../libkernel32.a(dchds00705.o)
                              window.o (GlobalUnlock@4)
d:/mingw/bin/../lib/gcc/mingw32/4.5.2/../../../libkernel32.a(dchds00694.o)
                              window.o (GlobalFree@4)
d:/mingw/bin/../lib/gcc/mingw32/4.5.2/../../../libkernel32.a(dchds01247.o)
                              window.o (WideCharToMultiByte@32)
d:/mingw/bin/../lib/gcc/mingw32/4.5.2/../../../libkernel32.a(dchds00179.o)
                              window.o (CreateThread@24)
d:/mingw/bin/../lib/gcc/mingw32/4.5.2/../../../libkernel32.a(dchds00527.o)
                              window.o (GetModuleFileNameA@12)
d:/mingw/bin/../lib/gcc/mingw32/4.5.2/../../../libkernel32.a(dchds00163.o)
                              window.o (CreateProcessA@40)
d:/mingw/bin/../lib/gcc/mingw32/4.5.2/../../../libkernel32.a(dchds00136.o)
                              window.o (CreateFileMappingA@24)
d:/mingw/bin/../lib/gcc/mingw32/4.5.2/../../../libkernel32.a(dchds00054.o)
                              window.o (Beep@8)
d:/mingw/bin/../lib/gcc/mingw32/4.5.2/../../../libkernel32.a(dchds01065.o)
                              winhandl.o (SetEvent@4)
d:/mingw/bin/../lib/gcc/mingw32/4.5.2/../../../libkernel32.a(dchds01223.o)
                              winhandl.o (WaitForSingleObject@8)
d:/mingw/bin/../lib/gcc/mingw32/4.5.2/../../../libkernel32.a(dchds01267.o)
                              winhandl.o (WriteFile@20)
d:/mingw/bin/../lib/gcc/mingw32/4.5.2/../../../libkernel32.a(dchds00510.o)
                              winhandl.o (GetLastError@0)
d:/mingw/bin/../lib/gcc/mingw32/4.5.2/../../../libkernel32.a(dchds00564.o)
                              winhandl.o (GetOverlappedResult@16)
d:/mingw/bin/../lib/gcc/mingw32/4.5.2/../../../libkernel32.a(dchds00129.o)
                              winhandl.o (CreateEventA@16)
d:/mingw/bin/../lib/gcc/mingw32/4.5.2/../../../libkernel32.a(dchds00947.o)
                              winhandl.o (ReadFile@20)
d:/mingw/bin/../lib/gcc/mingw32/4.5.2/../../../libkernel32.a(dchds00671.o)
                              winmisc.o (GetVersionExA@4)
d:/mingw/bin/../lib/gcc/mingw32/4.5.2/../../../libkernel32.a(dchds00817.o)
                              winmisc.o (LoadLibraryA@4)
d:/mingw/bin/../lib/gcc/mingw32/4.5.2/../../../libkernel32.a(dchds00619.o)
                              winmisc.o (GetSystemDirectoryA@8)
d:/mingw/bin/../lib/gcc/mingw32/4.5.2/../../../libkernel32.a(dchds00016.o)
                              winmisc.o (AllocConsole@0)
d:/mingw/bin/../lib/gcc/mingw32/4.5.2/../../../libkernel32.a(dchds00608.o)
                              winmisc.o (GetStdHandle@4)
d:/mingw/bin/../lib/gcc/mingw32/4.5.2/../../../libkernel32.a(dchds00352.o)
                              winnet.o (FreeLibrary@4)
d:/mingw/bin/../lib/gcc/mingw32/4.5.2/../../../libkernel32.a(dchds00160.o)
                              winproxy.o (CreatePipe@16)
d:/mingw/bin/../lib/gcc/mingw32/4.5.2/../../../libkernel32.a(dchds01088.o)
                              winproxy.o (SetHandleInformation@12)
d:/mingw/bin/../lib/gcc/mingw32/4.5.2/../../../libkernel32.a(dchds01010.o)
                              winser.o (SetCommBreak@4)
d:/mingw/bin/../lib/gcc/mingw32/4.5.2/../../../libkernel32.a(dchds00079.o)
                              winser.o (ClearCommBreak@4)
d:/mingw/bin/../lib/gcc/mingw32/4.5.2/../../../libkernel32.a(dchds00386.o)
                              winser.o (GetCommState@8)
d:/mingw/bin/../lib/gcc/mingw32/4.5.2/../../../libkernel32.a(dchds01013.o)
                              winser.o (SetCommState@8)
d:/mingw/bin/../lib/gcc/mingw32/4.5.2/../../../libkernel32.a(dchds01014.o)
                              winser.o (SetCommTimeouts@8)
d:/mingw/bin/../lib/gcc/mingw32/4.5.2/../../../libkernel32.a(dchds00135.o)
                              winser.o (CreateFileA@28)
d:/mingw/bin/../lib/gcc/mingw32/4.5.2/../../../libkernel32.a(dchds00473.o)
                              winstore.o (GetEnvironmentVariableA@12)
d:/mingw/bin/../lib/gcc/mingw32/4.5.2/../../../libkernel32.a(dchds00682.o)
                              winstore.o (GetWindowsDirectoryA@8)
d:/mingw/bin/../lib/gcc/mingw32/4.5.2/../../../libkernel32.a(dchds00511.o)
                              wintime.o (GetLocalTime@4)
d:/mingw/bin/../lib/gcc/mingw32/4.5.2/../../../libkernel32.a(dchds00358.o)
                              winucs.o (GetACP@0)
d:/mingw/bin/../lib/gcc/mingw32/4.5.2/../../../libkernel32.a(dchds00444.o)
                              winutils.o (GetCurrentDirectoryA@8)
d:/mingw/bin/../lib/gcc/mingw32/4.5.2/../../../libkernel32.a(dchds01052.o)
                              winutils.o (SetCurrentDirectoryA@4)
d:/mingw/bin/../lib/gcc/mingw32/4.5.2/../../../libkernel32.a(dchds01215.o)
                              d:/mingw/bin/../lib/gcc/mingw32/4.5.2/../../../libmingw32.a(pseudo-reloc.o) (VirtualQuery@12)
d:/mingw/bin/../lib/gcc/mingw32/4.5.2/../../../libkernel32.a(dchds01213.o)
                              d:/mingw/bin/../lib/gcc/mingw32/4.5.2/../../../libmingw32.a(pseudo-reloc.o) (VirtualProtect@16)
d:/mingw/bin/../lib/gcc/mingw32/4.5.2/../../../libkernel32.a(dchds00388.o)
                              d:/mingw/bin/../lib/gcc/mingw32/4.5.2/../../../libmingw32.a(main.o) (GetCommandLineA@0)
d:/mingw/bin/../lib/gcc/mingw32/4.5.2/../../../libkernel32.a(dchds00606.o)
                              d:/mingw/bin/../lib/gcc/mingw32/4.5.2/../../../libmingw32.a(main.o) (GetStartupInfoA@4)
d:/mingw/bin/../lib/gcc/mingw32/4.5.2/../../../libkernel32.a(dchds01173.o)
                              d:/mingw/bin/../lib/gcc/mingw32/4.5.2/../../../libmingw32.a(tlsthrd.o) (TlsGetValue@4)
d:/mingw/bin/../lib/gcc/mingw32/4.5.2/../../../libkernel32.a(dchds00207.o)
                              d:/mingw/bin/../lib/gcc/mingw32/4.5.2/../../../libmingw32.a(tlsthrd.o) (DeleteCriticalSection@4)
d:/mingw/bin/../lib/gcc/mingw32/4.5.2/../../../libkernel32.a(dchds00734.o)
                              d:/mingw/bin/../lib/gcc/mingw32/4.5.2/../../../libmingw32.a(tlsthrd.o) (InitializeCriticalSection@4)
d:/mingw/bin/../lib/gcc/mingw32/4.5.2/../../../libkernel32.a(dchds00236.o)
                              d:/mingw/bin/../lib/gcc/mingw32/4.5.2/../../../libmingw32.a(tlsthrd.o) (EnterCriticalSection@4)
d:/mingw/bin/../lib/gcc/mingw32/4.5.2/../../../libkernel32.a(dchds00814.o)
                              d:/mingw/bin/../lib/gcc/mingw32/4.5.2/../../../libmingw32.a(tlsthrd.o) (LeaveCriticalSection@4)
d:/mingw/bin/../lib/gcc/mingw32/4.5.2/../../../libkernel32.a(dchdh.o)
                              d:/mingw/bin/../lib/gcc/mingw32/4.5.2/../../../libkernel32.a(dchds01140.o) (_head_libkernel32_a)
d:/mingw/bin/../lib/gcc/mingw32/4.5.2/../../../libkernel32.a(dchdt.o)
                              d:/mingw/bin/../lib/gcc/mingw32/4.5.2/../../../libkernel32.a(dchdh.o) (_libkernel32_a_iname)

Allocating common symbols
Common symbol       size              file

p_WSAEnumNetworkEvents
                    0x4               window.o
p_WSAAsyncSelect    0x4               window.o
__DTOR_LIST__       0x8               d:/mingw/bin/../lib/gcc/mingw32/4.5.2/libgcc.a(_ctors.o)
loaded_session      0x4               window.o
cfg                 0x2bdc            window.o
term                0x4               window.o
p_select            0x4               window.o
default_port        0x4               window.o
hinst               0x4               window.o
__mingw_gMTKeyDtor  0x10              d:/mingw/bin/../lib/gcc/mingw32/4.5.2/../../../libmingw32.a(tlssup.o)
logbox              0x4               window.o
p_WSAGetLastError   0x4               window.o
flags               0x4               window.o
osVersion           0x94              winmisc.o
__CTOR_LIST__       0x8               d:/mingw/bin/../lib/gcc/mingw32/4.5.2/libgcc.a(_ctors.o)
cmdline_session_name
                    0x4               window.o
__mingw_gMTRemoveKeyDtor
                    0x10              d:/mingw/bin/../lib/gcc/mingw32/4.5.2/../../../libmingw32.a(tlssup.o)
__mingw_usemthread_dll
                    0x10              d:/mingw/bin/../lib/gcc/mingw32/4.5.2/../../../libmingw32.a(tlssup.o)
hwnd                0x4               window.o
logctx              0x4               window.o
default_protocol    0x4               window.o
p_WSAEventSelect    0x4               window.o

Discarded input sections

 .drectve       0x00000000      0x1c0 window.o
 .drectve       0x00000000       0x1c winmisc.o
 .drectve       0x00000000       0x3c d:/mingw/bin/../lib/gcc/mingw32/4.5.2/libgcc.a(_ctors.o)
 .text          0x00000000        0x8 d:/mingw/bin/../lib/gcc/mingw32/4.5.2/../../../libmsvcrt.a(duyms00099.o)

Memory Configuration

Name             Origin             Length             Attributes
*default*        0x00000000         0xffffffff

Linker script and memory map

                0x00400000                __image_base__ = 0x400000
                0x00000000                __dll__ = 0x0
                0x00400000                ___ImageBase = 0x400000
                0x00001000                __section_alignment__ = 0x1000
                0x00000200                __file_alignment__ = 0x200
                0x00000004                __major_os_version__ = 0x4
                0x00000000                __minor_os_version__ = 0x0
                0x00000001                __major_image_version__ = 0x1
                0x00000000                __minor_image_version__ = 0x0
                0x00000004                __major_subsystem_version__ = 0x4
                0x00000000                __minor_subsystem_version__ = 0x0
                0x00000002                __subsystem__ = 0x2
                0x00200000                __size_of_stack_reserve__ = 0x200000
                0x00001000                __size_of_stack_commit__ = 0x1000
                0x00100000                __size_of_heap_reserve__ = 0x100000
                0x00001000                __size_of_heap_commit__ = 0x1000
                0x00000000                __loader_flags__ = 0x0
                0x00000000                __dll_characteristics__ = 0x0
LOAD d:/mingw/bin/../lib/gcc/mingw32/4.5.2/../../../crt2.o
LOAD d:/mingw/bin/../lib/gcc/mingw32/4.5.2/crtbegin.o
LOAD be_nos_s.o
LOAD cmdline.o
LOAD config.o
LOAD dialog.o
LOAD ldisc.o
LOAD ldiscucs.o
LOAD logging.o
LOAD minibidi.o
LOAD misc.o
LOAD nocproxy.o
LOAD nogss.o
LOAD pinger.o
LOAD proxy.o
LOAD puttytel.res.o
LOAD raw.o
LOAD rlogin.o
LOAD sercfg.o
LOAD settings.o
LOAD sizetip.o
LOAD telnet.o
LOAD terminal.o
LOAD timing.o
LOAD tree234.o
LOAD version.o
LOAD wcwidth.o
LOAD wincfg.o
LOAD winctrls.o
LOAD windefs.o
LOAD windlg.o
LOAD window.o
LOAD winhandl.o
LOAD winhelp.o
LOAD winjump.o
LOAD winmisc.o
LOAD winnet.o
LOAD winprint.o
LOAD winproxy.o
LOAD winser.o
LOAD winstore.o
LOAD wintime.o
LOAD winucs.o
LOAD winutils.o
LOAD d:/mingw/bin/../lib/gcc/mingw32/4.5.2/../../../libadvapi32.a
LOAD d:/mingw/bin/../lib/gcc/mingw32/4.5.2/../../../libcomctl32.a
LOAD d:/mingw/bin/../lib/gcc/mingw32/4.5.2/../../../libcomdlg32.a
LOAD d:/mingw/bin/../lib/gcc/mingw32/4.5.2/../../../libgdi32.a
LOAD d:/mingw/bin/../lib/gcc/mingw32/4.5.2/../../../libimm32.a
LOAD d:/mingw/bin/../lib/gcc/mingw32/4.5.2/../../../libole32.a
LOAD d:/mingw/bin/../lib/gcc/mingw32/4.5.2/../../../libshell32.a
LOAD d:/mingw/bin/../lib/gcc/mingw32/4.5.2/../../../libuser32.a
LOAD d:/mingw/bin/../lib/gcc/mingw32/4.5.2/../../../libwinmm.a
LOAD d:/mingw/bin/../lib/gcc/mingw32/4.5.2/../../../libwinspool.a
LOAD d:/mingw/bin/../lib/gcc/mingw32/4.5.2/../../../libmingw32.a
LOAD d:/mingw/bin/../lib/gcc/mingw32/4.5.2/libgcc_eh.a
LOAD d:/mingw/bin/../lib/gcc/mingw32/4.5.2/libgcc.a
LOAD d:/mingw/bin/../lib/gcc/mingw32/4.5.2/../../../libmoldname.a
LOAD d:/mingw/bin/../lib/gcc/mingw32/4.5.2/../../../libmingwex.a
LOAD d:/mingw/bin/../lib/gcc/mingw32/4.5.2/../../../libmsvcrt.a
LOAD d:/mingw/bin/../lib/gcc/mingw32/4.5.2/../../../libgdi32.a
LOAD d:/mingw/bin/../lib/gcc/mingw32/4.5.2/../../../libcomdlg32.a
LOAD d:/mingw/bin/../lib/gcc/mingw32/4.5.2/../../../libuser32.a
LOAD d:/mingw/bin/../lib/gcc/mingw32/4.5.2/../../../libkernel32.a
LOAD d:/mingw/bin/../lib/gcc/mingw32/4.5.2/../../../libadvapi32.a
LOAD d:/mingw/bin/../lib/gcc/mingw32/4.5.2/../../../libshell32.a
LOAD d:/mingw/bin/../lib/gcc/mingw32/4.5.2/../../../libmingw32.a
LOAD d:/mingw/bin/../lib/gcc/mingw32/4.5.2/libgcc_eh.a
LOAD d:/mingw/bin/../lib/gcc/mingw32/4.5.2/libgcc.a
LOAD d:/mingw/bin/../lib/gcc/mingw32/4.5.2/../../../libmoldname.a
LOAD d:/mingw/bin/../lib/gcc/mingw32/4.5.2/../../../libmingwex.a
LOAD d:/mingw/bin/../lib/gcc/mingw32/4.5.2/../../../libmsvcrt.a
LOAD d:/mingw/bin/../lib/gcc/mingw32/4.5.2/crtend.o
                0x000002e0                . = SIZEOF_HEADERS
                0x00001000                . = ALIGN (__section_alignment__)

.text           0x00401000    0x3f000
 *(.init)
 *(.text)
 .text          0x00401000      0x2f0 d:/mingw/bin/../lib/gcc/mingw32/4.5.2/../../../crt2.o
                0x00401000                atexit
                0x00401010                _onexit
                0x00401140                WinMainCRTStartup
                0x00401160                mainCRTStartup
 .text          0x004012f0       0xd0 d:/mingw/bin/../lib/gcc/mingw32/4.5.2/crtbegin.o
                0x004012f0                __gcc_register_frame
                0x0040137c                __gcc_deregister_frame
 .text          0x004013c0       0x18 be_nos_s.o
                0x004013c0                random_save_seed
                0x004013c8                random_destroy_seed
                0x004013d0                noise_ultralight
 .text          0x004013d8     0x1698 cmdline.o
                0x00401484                cmdline_cleanup
                0x00401518                cmdline_get_passwd_input
                0x004015c0                cmdline_process_param
                0x00402a10                cmdline_run_saved
 .text          0x00402a70     0x77d8 config.o
                0x00403ed0                config_protocolbuttons_handler
                0x00404f44                setup_config_box
 .text          0x0040a248     0x1040 dialog.o
                0x0040a2e4                I
                0x0040a2ec                P
                0x0040a2f4                ctrl_path_elements
                0x0040a328                ctrl_path_compare
                0x0040a3e0                ctrl_new_box
                0x0040a428                ctrl_find_path
                0x0040a488                ctrl_settitle
                0x0040a584                ctrl_getset
                0x0040a6f0                ctrl_alloc
                0x0040a760                ctrl_columns
                0x0040a818                ctrl_editbox
                0x0040a880                ctrl_combobox
                0x0040a8e8                ctrl_radiobuttons
                0x0040aa38                ctrl_pushbutton
                0x0040aa94                ctrl_listbox
                0x0040ab0c                ctrl_droplist
                0x0040ab84                ctrl_draglist
                0x0040abfc                ctrl_filesel
                0x0040ac64                ctrl_fontsel
                0x0040acc4                ctrl_tabdelay
                0x0040acf0                ctrl_text
                0x0040ad2c                ctrl_checkbox
                0x0040ad8c                ctrl_free
                0x0040ae6c                ctrl_free_set
                0x0040aed0                ctrl_free_box
                0x0040af38                dlg_stdradiobutton_handler
                0x0040affc                dlg_stdcheckbox_handler
                0x0040b084                dlg_stdeditbox_handler
                0x0040b1b4                dlg_stdfilesel_handler
                0x0040b224                dlg_stdfontsel_handler
 .text          0x0040b288      0xcc4 ldisc.o
                0x0040b408                ldisc_create
                0x0040b484                ldisc_free
                0x0040b4d4                ldisc_send
 .text          0x0040bf4c      0x2e8 ldiscucs.o
                0x0040bf4c                luni_send
                0x0040c190                lpage_send
 .text          0x0040c234      0xbdc logging.o
                0x0040c234                logflush
                0x0040c25c                logfclose
                0x0040c5c4                logfopen
                0x0040c884                logtraffic
                0x0040c8b4                log_eventlog
                0x0040c938                log_packet
                0x0040ccf0                log_init
                0x0040cd4c                log_free
                0x0040cd78                log_reconfig
 .text          0x0040ce10     0x17e0 minibidi.o
                0x0040ce10                flipThisRun
                0x0040cf04                findIndexOfRun
                0x0040cf38                getType
                0x0040cf98                is_rtl
                0x0040cfb8                setOverrideBits
                0x0040cfdc                getPreviousLevel
                0x0040d00c                do_shape
                0x0040d2f0                doMirror
                0x0040dda8                do_bidi
 .text          0x0040e5f0      0xb28 misc.o
                0x0040e5f0                parse_blocksize
                0x0040e6ac                ctrlparse
                0x0040e754                base64_encode_atom
                0x0040e818                bufchain_init
                0x0040e834                bufchain_size
                0x0040e840                bufchain_prefix
                0x0040e860                bufchain_fetch
                0x0040e8f4                safemalloc
                0x0040e95c                bufchain_add
                0x0040ea24                dupcat
                0x0040eadc                dupstr
                0x0040eb30                new_prompts
                0x0040eb8c                saferealloc
                0x0040ec08                dupvprintf
                0x0040ec80                dupprintf
                0x0040ec9c                add_prompt
                0x0040ed14                safefree
                0x0040ed2c                bufchain_consume
                0x0040edcc                bufchain_clear
                0x0040ee04                fgetline
                0x0040eea0                free_prompts
                0x0040ef2c                debug_printf
                0x0040ef60                debug_memdump
                0x0040f0d0                cfg_launchable
                0x0040f0fc                cfg_dest
 .text          0x0040f118       0x70 nocproxy.o
                0x0040f118                proxy_socks5_offerencryptedauth
                0x0040f120                proxy_socks5_handlechap
                0x0040f154                proxy_socks5_selectchap
 .text          0x0040f188        0x0 nogss.o
 .text          0x0040f188      0x148 pinger.o
                0x0040f238                pinger_new
                0x0040f284                pinger_reconfig
                0x0040f2b0                pinger_free
 .text          0x0040f2d0     0x2b58 proxy.o
                0x0040fa5c                proxy_activate
                0x0040fba8                proxy_socks5_negotiate
                0x00410550                proxy_socks4_negotiate
                0x004108f4                proxy_http_negotiate
                0x00410e38                name_lookup
                0x00410ea8                new_connection
                0x00411128                new_listener
                0x0041113c                format_telnet_command
                0x00411d0c                proxy_telnet_negotiate
 .text          0x00411e28      0x3ec raw.o
 .text          0x00412214      0x774 rlogin.o
 .text          0x00412988      0x634 sercfg.o
                0x00412c18                ser_setup_config_box
 .text          0x00412fbc     0x372c settings.o
                0x0041371c                backend_from_name
                0x00413764                backend_from_proto
                0x00413790                get_remote_username
                0x00413828                save_open_settings
                0x00414f5c                save_settings
                0x00414fa4                load_open_settings
                0x00416430                load_settings
                0x00416484                do_defaults
                0x00416490                get_sesslist
 .text          0x004166e8      0x570 sizetip.o
                0x004169d8                UpdateSizeTip
                0x00416c20                EnableSizeTip
 .text          0x00416c58     0x1610 telnet.o
 .text          0x00418268     0xb670 terminal.o
                0x0041c06c                term_update
                0x0041c1d8                term_seen_key_event
                0x0041c244                term_clrsb
                0x0041c294                term_free
                0x0041c44c                term_provide_resize_fn
                0x0041c494                term_invalidate
                0x0041caa8                term_size
                0x0041d188                term_reconfig
                0x0041d770                term_init
                0x0041da18                term_pwron
                0x00421b18                term_paint
                0x00421c7c                term_scroll
                0x00421cdc                term_scroll_to_selection
                0x00421d50                term_copyall
                0x00421da4                term_do_paste
                0x00421fd4                term_mouse
                0x0042275c                format_arrow_key
                0x00422800                term_nopaste
                0x0042283c                term_key
                0x00423210                term_paste_pending
                0x00423228                term_paste
                0x00423318                term_deselect
                0x0042335c                term_ldisc
                0x00423384                term_data
                0x00423414                term_data_untrusted
                0x00423494                term_provide_logctx
                0x004234a8                term_set_focus
                0x004234c0                term_get_ttymode
                0x00423514                term_get_userpass_input
 .text          0x004238d8      0x284 timing.o
                0x0042398c                schedule_timer
                0x00423a48                run_timers
                0x00423b38                expire_timer_context
 .text          0x00423b5c     0x11cc tree234.o
                0x004249a0                newtree234
                0x004249c8                freetree234
                0x004249e4                count234
                0x004249fc                add234
                0x00424a20                addpos234
                0x00424a44                index234
                0x00424ac0                findrelpos234
                0x00424c18                find234
                0x00424c4c                findrel234
                0x00424c7c                findpos234
                0x00424cac                delpos234
                0x00424cdc                del234
 .text          0x00424d28        0x0 version.o
 .text          0x00424d28      0x1f0 wcwidth.o
                0x00424d74                mk_wcwidth
                0x00424e3c                mk_wcswidth
                0x00424e90                mk_wcwidth_cjk
                0x00424ec4                mk_wcswidth_cjk
 .text          0x00424f18     0x102c wincfg.o
                0x00424fc8                win_setup_config_box
 .text          0x00425f44     0x537c winctrls.o
                0x00426214                ctlposinit
                0x004262bc                doctl
                0x00426660                staticpassedit
                0x0042668c                staticedit
                0x004266b8                bartitle
                0x00426728                beginbox
                0x00426764                endbox
                0x004267f0                editboxfw
                0x004268e0                combobox
                0x004269c4                radioline
                0x00426a5c                bareradioline
                0x00426abc                radiobig
                0x00426b20                checkbox
                0x00426b90                staticwrap
                0x00426e4c                statictext
                0x00426ec0                paneltitle
                0x00426f30                staticbtn
                0x00427024                button
                0x004270c8                static2btn
                0x0042721c                staticddl
                0x00427310                staticcombo
                0x00427404                staticddlbig
                0x004274f0                bigeditctrl
                0x004275e8                listbox
                0x004276ec                ersatztab
                0x0042782c                editbutton
                0x0042797c                prefslist
                0x00427bd0                pl_itemfrompt
                0x00427d30                handle_prefslist
                0x0042812c                progressbar
                0x0042819c                winctrl_add_shortcuts
                0x004281fc                winctrl_rem_shortcuts
                0x0042825c                winctrl_init
                0x0042828c                winctrl_add
                0x00428304                winctrl_remove
                0x00428358                winctrl_cleanup
                0x004283cc                winctrl_findbyctrl
                0x00428430                winctrl_findbyid
                0x00428458                winctrl_findbyindex
                0x00428470                winctrl_layout
                0x0042928c                dlg_last_focused
                0x004292a4                winctrl_context_help
                0x00429310                dlg_radiobutton_set
                0x0042937c                dlg_radiobutton_get
                0x00429414                dlg_checkbox_set
                0x00429478                dlg_checkbox_get
                0x004294d4                dlg_editbox_set
                0x00429530                dlg_editbox_get
                0x004295a0                dlg_listbox_clear
                0x00429630                dlg_listbox_del
                0x004296c0                dlg_listbox_add
                0x00429750                dlg_listbox_addwithid
                0x00429828                dlg_listbox_getid
                0x004298a0                dlg_listbox_index
                0x00429998                dlg_listbox_issel
                0x00429a14                dlg_listbox_select
                0x00429a94                dlg_text_set
                0x00429af0                dlg_label_change
                0x00429bc0                dlg_filesel_set
                0x00429c1c                dlg_filesel_get
                0x00429c8c                dlg_fontsel_get
                0x00429cdc                dlg_update_start
                0x00429d34                dlg_update_done
                0x00429db4                dlg_set_focus
                0x00429e40                dlg_beep
                0x00429e58                dlg_error_msg
                0x00429e88                dlg_end
                0x00429ea4                dlg_refresh
                0x00429f40                dlg_coloursel_start
                0x00429f70                dlg_coloursel_results
                0x00429fb0                dlg_auto_set_fixed_pitch_flag
                0x0042a10c                dlg_fontsel_set
                0x0042a220                winctrl_handle_command
                0x0042afdc                dlg_get_fixed_pitch_flag
                0x0042afec                dlg_set_fixed_pitch_flag
                0x0042b000                dp_init
                0x0042b078                dp_add_tree
                0x0042b0b4                dp_cleanup
                0x0042b14c                dlg_get_privdata
                0x0042b188                dlg_set_privdata
                0x0042b20c                dlg_alloc_privdata
 .text          0x0042b2c0       0xf8 windefs.o
                0x0042b2c0                platform_default_fontspec
                0x0042b324                platform_default_filename
                0x0042b384                platform_default_s
                0x0042b3b0                platform_default_i
 .text          0x0042b3b8     0x1ad0 windlg.o
                0x0042bb70                force_normal
                0x0042c4f8                modal_about_box
                0x0042c564                show_help
                0x0042c580                defuse_showwindow
                0x0042c5e4                do_config
                0x0042c724                do_reconfig
                0x0042c8a4                logevent
                0x0042ca64                showeventlog
                0x0042cad8                showabout
                0x0042cb10                verify_ssh_host_key
                0x0042ccfc                askalg
                0x0042cd80                askappend
                0x0042ce18                old_keyfile_warning
 .text          0x0042ce88     0xa4a0 window.o
                0x0042e9d4                ldisc_update
                0x0042e9dc                get_ttymode
                0x0042e9f0                cleanup_exit
                0x0042ea48                do_select
                0x0042eab8                update_specials_menu
                0x0042ed30                set_busy_status
                0x0042ed44                set_raw_mouse_mode
                0x0042ed68                connection_fatal
                0x0042edf8                cmdline_error
                0x0042ee64                request_resize
                0x0042f04c                notify_remote_exit
                0x0042f0fc                timer_change_notify
                0x0042f164                sys_cursor
                0x0042f1c0                do_text_internal
                0x0042ffac                do_text
                0x00430054                do_cursor
                0x00430324                char_width
                0x004304ec                set_title
                0x0043056c                set_icon
                0x004309e8                WinMain@16
                0x00431c40                set_sbar
                0x00431cc0                get_ctx
                0x00431d18                free_ctx
                0x00431d60                palette_set
                0x00431e98                palette_reset
                0x00431fa8                write_aclip
                0x004320a0                write_clip
                0x00432cbc                request_paste
                0x00436d94                get_clip
                0x00436db4                fatalbox
                0x00436e28                modalfatalbox
                0x00436e9c                do_beep
                0x00436ff0                set_iconic
                0x0043705c                move_window
                0x004370c4                set_zorder
                0x0043711c                refresh_window
                0x00437144                set_zoomed
                0x004371b0                is_iconic
                0x004371c8                get_window_pos
                0x004371f8                get_window_pixels
                0x00437230                get_window_title
                0x0043724c                frontend_keypress
                0x00437254                from_backend
                0x00437268                from_backend_untrusted
                0x0043727c                get_userpass_input
                0x004372d0                agent_schedule_callback
 .text          0x00437328      0xa40 winhandl.o
                0x004377b0                handle_input_new
                0x004378c4                handle_output_new
                0x004379e0                handle_write
                0x00437a3c                handle_get_events
                0x00437ad4                handle_free
                0x00437b4c                handle_got_event
                0x00437cc4                handle_unthrottle
                0x00437d24                handle_backlog
                0x00437d5c                handle_get_privdata
 .text          0x00437d68      0x238 winhelp.o
                0x00437d68                init_help
                0x00437e90                shutdown_help
                0x00437e98                has_help
                0x00437ea4                launch_help
                0x00437f58                quit_help
 .text          0x00437fa0      0x8f8 winjump.o
                0x004387b8                clear_jumplist
                0x00438818                add_session_to_jumplist
                0x00438858                remove_session_from_jumplist
 .text          0x00438898      0x394 winmisc.o
                0x00438898                platform_get_x_display
                0x004388b4                filename_from_str
                0x004388fc                filename_to_str
                0x00438904                filename_equal
                0x0043892c                filename_is_null
                0x0043893c                init_winver
                0x0043896c                load_system32_dll
                0x00438a10                get_username
                0x00438b5c                dputs
 .text          0x00438c2c     0x263c winnet.o
                0x00439310                sk_startup
                0x00439358                sk_init
                0x00439ae4                sk_cleanup
                0x00439b68                winsock_error_string
                0x00439b8c                sk_namelookup
                0x00439ea0                sk_nonamelookup
                0x00439f10                sk_nextaddr
                0x00439f48                sk_getaddr
                0x0043a058                sk_hostname_is_local
                0x0043a0a4                sk_address_is_local
                0x0043a164                sk_addrtype
                0x0043a1a0                sk_addrcopy
                0x0043a268                sk_addr_free
                0x0043a31c                sk_addr_dup
                0x0043a328                sk_register
                0x0043a410                sk_new
                0x0043a50c                sk_newlistener
                0x0043a868                try_send
                0x0043aa98                select_result
                0x0043b014                net_pending_errors
                0x0043b080                sk_addr_error
                0x0043b08c                socket_reselect_all
                0x0043b0d8                first_socket
                0x0043b110                next_socket
                0x0043b144                socket_writable
                0x0043b184                net_service_lookup
                0x0043b1bc                get_hostname
                0x0043b228                platform_get_x11_unix_address
 .text          0x0043b268      0x350 winprint.o
                0x0043b268                printer_start_enum
                0x0043b3fc                printer_get_name
                0x0043b440                printer_finish_enum
                0x0043b488                printer_start_job
                0x0043b540                printer_job_data
                0x0043b574                printer_finish_job
 .text          0x0043b5b8      0x408 winproxy.o
                0x0043b670                localproxy_sentdata
                0x0043b69c                localproxy_gotdata
                0x0043b730                platform_new_connection
 .text          0x0043b9c0      0x784 winser.o
 .text          0x0043c144     0x16cc winstore.o
                0x0043c6ac                open_settings_w
                0x0043c7c4                write_setting_s
                0x0043c814                write_setting_i
                0x0043c854                close_settings_w
                0x0043c868                open_settings_r
                0x0043c928                read_setting_s
                0x0043c980                read_setting_i
                0x0043c9e4                read_setting_fontspec
                0x0043cb08                write_setting_fontspec
                0x0043cbd4                read_setting_filename
                0x0043cc08                write_setting_filename
                0x0043cc2c                close_settings_r
                0x0043cfa0                del_settings
                0x0043d030                enum_settings_start
                0x0043d084                enum_settings_next
                0x0043d1a0                enum_settings_finish
                0x0043d1c4                verify_host_key
                0x0043d508                store_host_key
                0x0043d5d0                read_random_seed
                0x0043d644                write_random_seed
                0x0043d694                add_to_jumplist_registry
                0x0043d6a8                remove_from_jumplist_registry
                0x0043d6bc                get_jumplist_registry_entries
                0x0043d6f8                cleanup_all
 .text          0x0043d810       0x88 wintime.o
                0x0043d810                ltime
 .text          0x0043d898      0xde8 winucs.o
                0x0043d8f0                xlat_uskbd2cyrllic
                0x0043d904                check_compose_internal
                0x0043d9d8                check_compose
                0x0043d9fc                decode_codepage
                0x0043dd5c                cp_name
                0x0043de40                cp_enumerate
                0x0043de5c                get_unitab
                0x0043dfbc                init_ucs
                0x0043e4f0                wc_to_mb
                0x0043e624                mb_to_wc
                0x0043e660                is_dbcs_leadbyte
 .text          0x0043e680      0x54c winutils.o
                0x0043e6e0                request_file
                0x0043e7a4                filereq_new
                0x0043e7c4                filereq_free
                0x0043e7d0                message_box
                0x0043e848                pgp_fingerprints
                0x0043e874                split_into_argv
 .text          0x0043ebcc        0x8 d:/mingw/bin/../lib/gcc/mingw32/4.5.2/../../../libadvapi32.a(dgxgs00245.o)
                0x0043ebcc                GetUserNameA@8
 .text          0x0043ebd4        0x8 d:/mingw/bin/../lib/gcc/mingw32/4.5.2/../../../libadvapi32.a(dgxgs00393.o)
                0x0043ebd4                RegDeleteKeyA@8
 .text          0x0043ebdc        0x8 d:/mingw/bin/../lib/gcc/mingw32/4.5.2/../../../libadvapi32.a(dgxgs00400.o)
                0x0043ebdc                RegEnumKeyA@16
 .text          0x0043ebe4        0x8 d:/mingw/bin/../lib/gcc/mingw32/4.5.2/../../../libadvapi32.a(dgxgs00412.o)
                0x0043ebe4                RegOpenKeyA@12
 .text          0x0043ebec        0x8 d:/mingw/bin/../lib/gcc/mingw32/4.5.2/../../../libadvapi32.a(dgxgs00386.o)
                0x0043ebec                RegCloseKey@4
 .text          0x0043ebf4        0x8 d:/mingw/bin/../lib/gcc/mingw32/4.5.2/../../../libadvapi32.a(dgxgs00423.o)
                0x0043ebf4                RegQueryValueExA@24
 .text          0x0043ebfc        0x8 d:/mingw/bin/../lib/gcc/mingw32/4.5.2/../../../libadvapi32.a(dgxgs00389.o)
                0x0043ebfc                RegCreateKeyA@12
 .text          0x0043ec04        0x8 d:/mingw/bin/../lib/gcc/mingw32/4.5.2/../../../libadvapi32.a(dgxgs00434.o)
                0x0043ec04                RegSetValueExA@24
 .text          0x0043ec0c        0x8 d:/mingw/bin/../lib/gcc/mingw32/4.5.2/../../../libadvapi32.a(dgxgs00390.o)
                0x0043ec0c                RegCreateKeyExA@36
 .text          0x0043ec14        0x8 d:/mingw/bin/../lib/gcc/mingw32/4.5.2/../../../libadvapi32.a(dgxgs00397.o)
                0x0043ec14                RegDeleteValueA@8
 .text          0x0043ec1c        0x0 d:/mingw/bin/../lib/gcc/mingw32/4.5.2/../../../libadvapi32.a(dgxgh.o)
 .text          0x0043ec1c        0x0 d:/mingw/bin/../lib/gcc/mingw32/4.5.2/../../../libadvapi32.a(dgxgt.o)
 .text          0x0043ec1c        0x8 d:/mingw/bin/../lib/gcc/mingw32/4.5.2/../../../libcomctl32.a(dqqhs00098.o)
                0x0043ec1c                MakeDragList@4
 .text          0x0043ec24        0x8 d:/mingw/bin/../lib/gcc/mingw32/4.5.2/../../../libcomctl32.a(dqqhs00097.o)
                0x0043ec24                LBItemFromPt@16
 .text          0x0043ec2c        0x8 d:/mingw/bin/../lib/gcc/mingw32/4.5.2/../../../libcomctl32.a(dqqhs00042.o)
                0x0043ec2c                DrawInsert@12
 .text          0x0043ec34        0x8 d:/mingw/bin/../lib/gcc/mingw32/4.5.2/../../../libcomctl32.a(dqqhs00094.o)
                0x0043ec34                InitCommonControls@0
 .text          0x0043ec3c        0x0 d:/mingw/bin/../lib/gcc/mingw32/4.5.2/../../../libcomctl32.a(dqqhh.o)
 .text          0x0043ec3c        0x0 d:/mingw/bin/../lib/gcc/mingw32/4.5.2/../../../libcomctl32.a(dqqht.o)
 .text          0x0043ec3c        0x8 d:/mingw/bin/../lib/gcc/mingw32/4.5.2/../../../libcomdlg32.a(demds00002.o)
                0x0043ec3c                ChooseFontA@4
 .text          0x0043ec44        0x8 d:/mingw/bin/../lib/gcc/mingw32/4.5.2/../../../libcomdlg32.a(demds00000.o)
                0x0043ec44                ChooseColorA@4
 .text          0x0043ec4c        0x8 d:/mingw/bin/../lib/gcc/mingw32/4.5.2/../../../libcomdlg32.a(demds00011.o)
                0x0043ec4c                GetSaveFileNameA@4
 .text          0x0043ec54        0x8 d:/mingw/bin/../lib/gcc/mingw32/4.5.2/../../../libcomdlg32.a(demds00009.o)
                0x0043ec54                GetOpenFileNameA@4
 .text          0x0043ec5c        0x0 d:/mingw/bin/../lib/gcc/mingw32/4.5.2/../../../libcomdlg32.a(demdh.o)
 .text          0x0043ec5c        0x0 d:/mingw/bin/../lib/gcc/mingw32/4.5.2/../../../libcomdlg32.a(demdt.o)
 .text          0x0043ec5c        0x8 d:/mingw/bin/../lib/gcc/mingw32/4.5.2/../../../libgdi32.a(dkfhs00034.o)
                0x0043ec5c                CreateCompatibleDC@4
 .text          0x0043ec64        0x8 d:/mingw/bin/../lib/gcc/mingw32/4.5.2/../../../libgdi32.a(dkfhs00281.o)
                0x0043ec64                SelectObject@8
 .text          0x0043ec6c        0x8 d:/mingw/bin/../lib/gcc/mingw32/4.5.2/../../../libgdi32.a(dkfhs00213.o)
                0x0043ec6c                GetTextExtentPoint32A@16
 .text          0x0043ec74        0x8 d:/mingw/bin/../lib/gcc/mingw32/4.5.2/../../../libgdi32.a(dkfhs00070.o)
                0x0043ec74                DeleteDC@4
 .text          0x0043ec7c        0x8 d:/mingw/bin/../lib/gcc/mingw32/4.5.2/../../../libgdi32.a(dkfhs00073.o)
                0x0043ec7c                DeleteObject@4
 .text          0x0043ec84        0x8 d:/mingw/bin/../lib/gcc/mingw32/4.5.2/../../../libgdi32.a(dkfhs00201.o)
                0x0043ec84                GetStockObject@4
 .text          0x0043ec8c        0x8 d:/mingw/bin/../lib/gcc/mingw32/4.5.2/../../../libgdi32.a(dkfhs00067.o)
                0x0043ec8c                CreateSolidBrush@4
 .text          0x0043ec94        0x8 d:/mingw/bin/../lib/gcc/mingw32/4.5.2/../../../libgdi32.a(dkfhs00263.o)
                0x0043ec94                Rectangle@20
 .text          0x0043ec9c        0x8 d:/mingw/bin/../lib/gcc/mingw32/4.5.2/../../../libgdi32.a(dkfhs00323.o)
                0x0043ec9c                SetTextColor@8
 .text          0x0043eca4        0x8 d:/mingw/bin/../lib/gcc/mingw32/4.5.2/../../../libgdi32.a(dkfhs00287.o)
                0x0043eca4                SetBkColor@8
 .text          0x0043ecac        0x8 d:/mingw/bin/../lib/gcc/mingw32/4.5.2/../../../libgdi32.a(dkfhs00339.o)
                0x0043ecac                TextOutA@20
 .text          0x0043ecb4        0x8 d:/mingw/bin/../lib/gcc/mingw32/4.5.2/../../../libgdi32.a(dkfhs00047.o)
                0x0043ecb4                CreateFontIndirectA@4
 .text          0x0043ecbc        0x8 d:/mingw/bin/../lib/gcc/mingw32/4.5.2/../../../libgdi32.a(dkfhs00148.o)
                0x0043ecbc                GetDeviceCaps@8
 .text          0x0043ecc4        0x8 d:/mingw/bin/../lib/gcc/mingw32/4.5.2/../../../libgdi32.a(dkfhs00306.o)
                0x0043ecc4                SetMapMode@8
 .text          0x0043eccc        0x8 d:/mingw/bin/../lib/gcc/mingw32/4.5.2/../../../libgdi32.a(dkfhs00210.o)
                0x0043eccc                GetTextExtentExPointA@28
 .text          0x0043ecd4        0x8 d:/mingw/bin/../lib/gcc/mingw32/4.5.2/../../../libgdi32.a(dkfhs00046.o)
                0x0043ecd4                CreateFontA@56
 .text          0x0043ecdc        0x8 d:/mingw/bin/../lib/gcc/mingw32/4.5.2/../../../libgdi32.a(dkfhs00219.o)
                0x0043ecdc                GetTextMetricsA@8
 .text          0x0043ece4        0x8 d:/mingw/bin/../lib/gcc/mingw32/4.5.2/../../../libgdi32.a(dkfhs00126.o)
                0x0043ece4                GetCharABCWidthsFloatA@16
 .text          0x0043ecec        0x8 d:/mingw/bin/../lib/gcc/mingw32/4.5.2/../../../libgdi32.a(dkfhs00185.o)
                0x0043ecec                GetObjectA@12
 .text          0x0043ecf4        0x8 d:/mingw/bin/../lib/gcc/mingw32/4.5.2/../../../libgdi32.a(dkfhs00341.o)
                0x0043ecf4                TranslateCharsetInfo@12
 .text          0x0043ecfc        0x8 d:/mingw/bin/../lib/gcc/mingw32/4.5.2/../../../libgdi32.a(dkfhs00033.o)
                0x0043ecfc                CreateCompatibleBitmap@12
 .text          0x0043ed04        0x8 d:/mingw/bin/../lib/gcc/mingw32/4.5.2/../../../libgdi32.a(dkfhs00321.o)
                0x0043ed04                SetTextAlign@8
 .text          0x0043ed0c        0x8 d:/mingw/bin/../lib/gcc/mingw32/4.5.2/../../../libgdi32.a(dkfhs00288.o)
                0x0043ed0c                SetBkMode@8
 .text          0x0043ed14        0x8 d:/mingw/bin/../lib/gcc/mingw32/4.5.2/../../../libgdi32.a(dkfhs00102.o)
                0x0043ed14                ExtTextOutA@32
 .text          0x0043ed1c        0x8 d:/mingw/bin/../lib/gcc/mingw32/4.5.2/../../../libgdi32.a(dkfhs00192.o)
                0x0043ed1c                GetPixel@12
 .text          0x0043ed24        0x8 d:/mingw/bin/../lib/gcc/mingw32/4.5.2/../../../libgdi32.a(dkfhs00056.o)
                0x0043ed24                CreatePalette@4
 .text          0x0043ed2c        0x8 d:/mingw/bin/../lib/gcc/mingw32/4.5.2/../../../libgdi32.a(dkfhs00282.o)
                0x0043ed2c                SelectPalette@12
 .text          0x0043ed34        0x8 d:/mingw/bin/../lib/gcc/mingw32/4.5.2/../../../libgdi32.a(dkfhs00260.o)
                0x0043ed34                RealizePalette@4
 .text          0x0043ed3c        0x8 d:/mingw/bin/../lib/gcc/mingw32/4.5.2/../../../libgdi32.a(dkfhs00058.o)
                0x0043ed3c                CreatePen@12
 .text          0x0043ed44        0x8 d:/mingw/bin/../lib/gcc/mingw32/4.5.2/../../../libgdi32.a(dkfhs00234.o)
                0x0043ed44                MoveToEx@16
 .text          0x0043ed4c        0x8 d:/mingw/bin/../lib/gcc/mingw32/4.5.2/../../../libgdi32.a(dkfhs00231.o)
                0x0043ed4c                LineTo@12
 .text          0x0043ed54        0x8 d:/mingw/bin/../lib/gcc/mingw32/4.5.2/../../../libgdi32.a(dkfhs00136.o)
                0x0043ed54                GetCharacterPlacementW@24
 .text          0x0043ed5c        0x8 d:/mingw/bin/../lib/gcc/mingw32/4.5.2/../../../libgdi32.a(dkfhs00122.o)
                0x0043ed5c                GetBkMode@4
 .text          0x0043ed64        0x8 d:/mingw/bin/../lib/gcc/mingw32/4.5.2/../../../libgdi32.a(dkfhs00103.o)
                0x0043ed64                ExtTextOutW@32
 .text          0x0043ed6c        0x8 d:/mingw/bin/../lib/gcc/mingw32/4.5.2/../../../libgdi32.a(dkfhs00312.o)
                0x0043ed6c                SetPixel@16
 .text          0x0043ed74        0x8 d:/mingw/bin/../lib/gcc/mingw32/4.5.2/../../../libgdi32.a(dkfhs00256.o)
                0x0043ed74                Polyline@12
 .text          0x0043ed7c        0x8 d:/mingw/bin/../lib/gcc/mingw32/4.5.2/../../../libgdi32.a(dkfhs00130.o)
                0x0043ed7c                GetCharWidth32W@16
 .text          0x0043ed84        0x8 d:/mingw/bin/../lib/gcc/mingw32/4.5.2/../../../libgdi32.a(dkfhs00134.o)
                0x0043ed84                GetCharWidthW@16
 .text          0x0043ed8c        0x8 d:/mingw/bin/../lib/gcc/mingw32/4.5.2/../../../libgdi32.a(dkfhs00129.o)
                0x0043ed8c                GetCharWidth32A@16
 .text          0x0043ed94        0x8 d:/mingw/bin/../lib/gcc/mingw32/4.5.2/../../../libgdi32.a(dkfhs00131.o)
                0x0043ed94                GetCharWidthA@16
 .text          0x0043ed9c        0x8 d:/mingw/bin/../lib/gcc/mingw32/4.5.2/../../../libgdi32.a(dkfhs00028.o)
                0x0043ed9c                CreateBitmap@20
 .text          0x0043eda4        0x8 d:/mingw/bin/../lib/gcc/mingw32/4.5.2/../../../libgdi32.a(dkfhs00311.o)
                0x0043eda4                SetPaletteEntries@16
 .text          0x0043edac        0x8 d:/mingw/bin/../lib/gcc/mingw32/4.5.2/../../../libgdi32.a(dkfhs00342.o)
                0x0043edac                UnrealizeObject@4
 .text          0x0043edb4        0x8 d:/mingw/bin/../lib/gcc/mingw32/4.5.2/../../../libgdi32.a(dkfhs00227.o)
                0x0043edb4                IntersectClipRect@20
 .text          0x0043edbc        0x8 d:/mingw/bin/../lib/gcc/mingw32/4.5.2/../../../libgdi32.a(dkfhs00096.o)
                0x0043edbc                ExcludeClipRect@20
 .text          0x0043edc4        0x8 d:/mingw/bin/../lib/gcc/mingw32/4.5.2/../../../libgdi32.a(dkfhs00343.o)
                0x0043edc4                UpdateColors@4
 .text          0x0043edcc        0x0 d:/mingw/bin/../lib/gcc/mingw32/4.5.2/../../../libgdi32.a(dkfhh.o)
 .text          0x0043edcc        0x0 d:/mingw/bin/../lib/gcc/mingw32/4.5.2/../../../libgdi32.a(dkfht.o)
 .text          0x0043edcc        0x8 d:/mingw/bin/../lib/gcc/mingw32/4.5.2/../../../libimm32.a(dkrgs00025.o)
                0x0043edcc                ImmGetContext@4
 .text          0x0043edd4        0x8 d:/mingw/bin/../lib/gcc/mingw32/4.5.2/../../../libimm32.a(dkrgs00065.o)
                0x0043edd4                ImmSetCompositionWindow@8
 .text          0x0043eddc        0x8 d:/mingw/bin/../lib/gcc/mingw32/4.5.2/../../../libimm32.a(dkrgs00059.o)
                0x0043eddc                ImmReleaseContext@8
 .text          0x0043ede4        0x8 d:/mingw/bin/../lib/gcc/mingw32/4.5.2/../../../libimm32.a(dkrgs00023.o)
                0x0043ede4                ImmGetCompositionStringW@16
 .text          0x0043edec        0x8 d:/mingw/bin/../lib/gcc/mingw32/4.5.2/../../../libimm32.a(dkrgs00061.o)
                0x0043edec                ImmSetCompositionFontA@8
 .text          0x0043edf4        0x0 d:/mingw/bin/../lib/gcc/mingw32/4.5.2/../../../libimm32.a(dkrgh.o)
 .text          0x0043edf4        0x0 d:/mingw/bin/../lib/gcc/mingw32/4.5.2/../../../libimm32.a(dkrgt.o)
 .text          0x0043edf4        0x8 d:/mingw/bin/../lib/gcc/mingw32/4.5.2/../../../libole32.a(dyads00072.o)
                0x0043edf4                CoUninitialize@0
 .text          0x0043edfc        0x8 d:/mingw/bin/../lib/gcc/mingw32/4.5.2/../../../libole32.a(dyads00037.o)
                0x0043edfc                CoInitialize@4
 .text          0x0043ee04        0x8 d:/mingw/bin/../lib/gcc/mingw32/4.5.2/../../../libole32.a(dyads00012.o)
                0x0043ee04                CoCreateInstance@20
 .text          0x0043ee0c        0x0 d:/mingw/bin/../lib/gcc/mingw32/4.5.2/../../../libole32.a(dyadh.o)
 .text          0x0043ee0c        0x0 d:/mingw/bin/../lib/gcc/mingw32/4.5.2/../../../libole32.a(dyadt.o)
 .text          0x0043ee0c        0x8 d:/mingw/bin/../lib/gcc/mingw32/4.5.2/../../../libshell32.a(dukis00144.o)
                0x0043ee0c                ShellExecuteA@24
 .text          0x0043ee14        0x0 d:/mingw/bin/../lib/gcc/mingw32/4.5.2/../../../libshell32.a(dukih.o)
 .text          0x0043ee14        0x0 d:/mingw/bin/../lib/gcc/mingw32/4.5.2/../../../libshell32.a(dukit.o)
 .text          0x0043ee14        0x8 d:/mingw/bin/../lib/gcc/mingw32/4.5.2/../../../libuser32.a(daois00134.o)
                0x0043ee14                DefWindowProcA@16
 .text          0x0043ee1c        0x8 d:/mingw/bin/../lib/gcc/mingw32/4.5.2/../../../libuser32.a(daois00572.o)
                0x0043ee1c                SetWindowPos@28
 .text          0x0043ee24        0x8 d:/mingw/bin/../lib/gcc/mingw32/4.5.2/../../../libuser32.a(daois00370.o)
                0x0043ee24                InvalidateRect@12
 .text          0x0043ee2c        0x8 d:/mingw/bin/../lib/gcc/mingw32/4.5.2/../../../libuser32.a(daois00011.o)
                0x0043ee2c                BeginPaint@8
 .text          0x0043ee34        0x8 d:/mingw/bin/../lib/gcc/mingw32/4.5.2/../../../libuser32.a(daois00236.o)
                0x0043ee34                GetClientRect@8
 .text          0x0043ee3c        0x8 d:/mingw/bin/../lib/gcc/mingw32/4.5.2/../../../libuser32.a(daois00351.o)
                0x0043ee3c                GetWindowTextLengthA@4
 .text          0x0043ee44        0x8 d:/mingw/bin/../lib/gcc/mingw32/4.5.2/../../../libuser32.a(daois00350.o)
                0x0043ee44                GetWindowTextA@12
 .text          0x0043ee4c        0x8 d:/mingw/bin/../lib/gcc/mingw32/4.5.2/../../../libuser32.a(daois00184.o)
                0x0043ee4c                EndPaint@8
 .text          0x0043ee54        0x8 d:/mingw/bin/../lib/gcc/mingw32/4.5.2/../../../libuser32.a(daois00574.o)
                0x0043ee54                SetWindowTextA@8
 .text          0x0043ee5c        0x8 d:/mingw/bin/../lib/gcc/mingw32/4.5.2/../../../libuser32.a(daois00323.o)
                0x0043ee5c                GetSysColor@4
 .text          0x0043ee64        0x8 d:/mingw/bin/../lib/gcc/mingw32/4.5.2/../../../libuser32.a(daois00591.o)
                0x0043ee64                SystemParametersInfoA@16
 .text          0x0043ee6c        0x8 d:/mingw/bin/../lib/gcc/mingw32/4.5.2/../../../libuser32.a(daois00348.o)
                0x0043ee6c                GetWindowRect@8
 .text          0x0043ee74        0x8 d:/mingw/bin/../lib/gcc/mingw32/4.5.2/../../../libuser32.a(daois00090.o)
                0x0043ee74                CreateWindowExA@48
 .text          0x0043ee7c        0x8 d:/mingw/bin/../lib/gcc/mingw32/4.5.2/../../../libuser32.a(daois00585.o)
                0x0043ee7c                ShowWindow@8
 .text          0x0043ee84        0x8 d:/mingw/bin/../lib/gcc/mingw32/4.5.2/../../../libuser32.a(daois00479.o)
                0x0043ee84                RegisterClassA@4
 .text          0x0043ee8c        0x8 d:/mingw/bin/../lib/gcc/mingw32/4.5.2/../../../libuser32.a(daois00144.o)
                0x0043ee8c                DestroyWindow@4
 .text          0x0043ee94        0x8 d:/mingw/bin/../lib/gcc/mingw32/4.5.2/../../../libuser32.a(daois00225.o)
                0x0043ee94                GetCaretBlinkTime@0
 .text          0x0043ee9c        0x8 d:/mingw/bin/../lib/gcc/mingw32/4.5.2/../../../libuser32.a(daois00505.o)
                0x0043ee9c                SendDlgItemMessageA@20
 .text          0x0043eea4        0x8 d:/mingw/bin/../lib/gcc/mingw32/4.5.2/../../../libuser32.a(daois00508.o)
                0x0043eea4                SendMessageA@16
 .text          0x0043eeac        0x8 d:/mingw/bin/../lib/gcc/mingw32/4.5.2/../../../libuser32.a(daois00426.o)
                0x0043eeac                MapDialogRect@8
 .text          0x0043eeb4        0x8 d:/mingw/bin/../lib/gcc/mingw32/4.5.2/../../../libuser32.a(daois00248.o)
                0x0043eeb4                GetDC@4
 .text          0x0043eebc        0x8 d:/mingw/bin/../lib/gcc/mingw32/4.5.2/../../../libuser32.a(daois00494.o)
                0x0043eebc                ReleaseDC@8
 .text          0x0043eec4        0x8 d:/mingw/bin/../lib/gcc/mingw32/4.5.2/../../../libuser32.a(daois00569.o)
                0x0043eec4                SetWindowLongA@12
 .text          0x0043eecc        0x8 d:/mingw/bin/../lib/gcc/mingw32/4.5.2/../../../libuser32.a(daois00433.o)
                0x0043eecc                MessageBeep@4
 .text          0x0043eed4        0x8 d:/mingw/bin/../lib/gcc/mingw32/4.5.2/../../../libuser32.a(daois00056.o)
                0x0043eed4                CheckRadioButton@16
 .text          0x0043eedc        0x8 d:/mingw/bin/../lib/gcc/mingw32/4.5.2/../../../libuser32.a(daois00386.o)
                0x0043eedc                IsDlgButtonChecked@8
 .text          0x0043eee4        0x8 d:/mingw/bin/../lib/gcc/mingw32/4.5.2/../../../libuser32.a(daois00053.o)
                0x0043eee4                CheckDlgButton@12
 .text          0x0043eeec        0x8 d:/mingw/bin/../lib/gcc/mingw32/4.5.2/../../../libuser32.a(daois00530.o)
                0x0043eeec                SetDlgItemTextA@12
 .text          0x0043eef4        0x8 d:/mingw/bin/../lib/gcc/mingw32/4.5.2/../../../libuser32.a(daois00255.o)
                0x0043eef4                GetDlgItemTextA@16
 .text          0x0043eefc        0x8 d:/mingw/bin/../lib/gcc/mingw32/4.5.2/../../../libuser32.a(daois00253.o)
                0x0043eefc                GetDlgItem@8
 .text          0x0043ef04        0x8 d:/mingw/bin/../lib/gcc/mingw32/4.5.2/../../../libuser32.a(daois00533.o)
                0x0043ef04                SetFocus@4
 .text          0x0043ef0c        0x8 d:/mingw/bin/../lib/gcc/mingw32/4.5.2/../../../libuser32.a(daois00434.o)
                0x0043ef0c                MessageBoxA@16
 .text          0x0043ef14        0x8 d:/mingw/bin/../lib/gcc/mingw32/4.5.2/../../../libuser32.a(daois00491.o)
                0x0043ef14                RegisterWindowMessageA@4
 .text          0x0043ef1c        0x8 d:/mingw/bin/../lib/gcc/mingw32/4.5.2/../../../libuser32.a(daois00163.o)
                0x0043ef1c                DrawEdge@16
 .text          0x0043ef24        0x8 d:/mingw/bin/../lib/gcc/mingw32/4.5.2/../../../libuser32.a(daois00517.o)
                0x0043ef24                SetCapture@4
 .text          0x0043ef2c        0x8 d:/mingw/bin/../lib/gcc/mingw32/4.5.2/../../../libuser32.a(daois00182.o)
                0x0043ef2c                EndDialog@8
 .text          0x0043ef34        0x8 d:/mingw/bin/../lib/gcc/mingw32/4.5.2/../../../libuser32.a(daois00180.o)
                0x0043ef34                EnableWindow@8
 .text          0x0043ef3c        0x8 d:/mingw/bin/../lib/gcc/mingw32/4.5.2/../../../libuser32.a(daois00147.o)
                0x0043ef3c                DialogBoxParamA@20
 .text          0x0043ef44        0x8 d:/mingw/bin/../lib/gcc/mingw32/4.5.2/../../../libuser32.a(daois00516.o)
                0x0043ef44                SetActiveWindow@4
 .text          0x0043ef4c        0x8 d:/mingw/bin/../lib/gcc/mingw32/4.5.2/../../../libuser32.a(daois00304.o)
                0x0043ef4c                GetParent@4
 .text          0x0043ef54        0x8 d:/mingw/bin/../lib/gcc/mingw32/4.5.2/../../../libuser32.a(daois00127.o)
                0x0043ef54                DefDlgProcA@16
 .text          0x0043ef5c        0x8 d:/mingw/bin/../lib/gcc/mingw32/4.5.2/../../../libuser32.a(daois00405.o)
                0x0043ef5c                LoadCursorA@8
 .text          0x0043ef64        0x8 d:/mingw/bin/../lib/gcc/mingw32/4.5.2/../../../libuser32.a(daois00080.o)
                0x0043ef64                CreateDialogParamA@20
 .text          0x0043ef6c        0x8 d:/mingw/bin/../lib/gcc/mingw32/4.5.2/../../../libuser32.a(daois00293.o)
                0x0043ef6c                GetMessageA@16
 .text          0x0043ef74        0x8 d:/mingw/bin/../lib/gcc/mingw32/4.5.2/../../../libuser32.a(daois00342.o)
                0x0043ef74                GetWindowLongA@8
 .text          0x0043ef7c        0x8 d:/mingw/bin/../lib/gcc/mingw32/4.5.2/../../../libuser32.a(daois00384.o)
                0x0043ef7c                IsDialogMessageA@8
 .text          0x0043ef84        0x8 d:/mingw/bin/../lib/gcc/mingw32/4.5.2/../../../libuser32.a(daois00149.o)
                0x0043ef84                DispatchMessageA@4
 .text          0x0043ef8c        0x8 d:/mingw/bin/../lib/gcc/mingw32/4.5.2/../../../libuser32.a(daois00468.o)
                0x0043ef8c                PostQuitMessage@4
 .text          0x0043ef94        0x8 d:/mingw/bin/../lib/gcc/mingw32/4.5.2/../../../libuser32.a(daois00347.o)
                0x0043ef94                GetWindowPlacement@8
 .text          0x0043ef9c        0x8 d:/mingw/bin/../lib/gcc/mingw32/4.5.2/../../../libuser32.a(daois00571.o)
                0x0043ef9c                SetWindowPlacement@8
 .text          0x0043efa4        0x8 d:/mingw/bin/../lib/gcc/mingw32/4.5.2/../../../libuser32.a(daois00493.o)
                0x0043efa4                ReleaseCapture@0
 .text          0x0043efac        0x8 d:/mingw/bin/../lib/gcc/mingw32/4.5.2/../../../libuser32.a(daois00409.o)
                0x0043efac                LoadIconA@8
 .text          0x0043efb4        0x8 d:/mingw/bin/../lib/gcc/mingw32/4.5.2/../../../libuser32.a(daois00250.o)
                0x0043efb4                GetDesktopWindow@0
 .text          0x0043efbc        0x8 d:/mingw/bin/../lib/gcc/mingw32/4.5.2/../../../libuser32.a(daois00224.o)
                0x0043efbc                GetCapture@0
 .text          0x0043efc4        0x8 d:/mingw/bin/../lib/gcc/mingw32/4.5.2/../../../libuser32.a(daois00445.o)
                0x0043efc4                MoveWindow@24
 .text          0x0043efcc        0x8 d:/mingw/bin/../lib/gcc/mingw32/4.5.2/../../../libuser32.a(daois00214.o)
                0x0043efcc                FlashWindow@8
 .text          0x0043efd4        0x8 d:/mingw/bin/../lib/gcc/mingw32/4.5.2/../../../libuser32.a(daois00455.o)
                0x0043efd4                OpenClipboard@4
 .text          0x0043efdc        0x8 d:/mingw/bin/../lib/gcc/mingw32/4.5.2/../../../libuser32.a(daois00238.o)
                0x0043efdc                GetClipboardData@4
 .text          0x0043efe4        0x8 d:/mingw/bin/../lib/gcc/mingw32/4.5.2/../../../libuser32.a(daois00061.o)
                0x0043efe4                CloseClipboard@0
 .text          0x0043efec        0x8 d:/mingw/bin/../lib/gcc/mingw32/4.5.2/../../../libuser32.a(daois00398.o)
                0x0043efec                IsZoomed@4
 .text          0x0043eff4        0x8 d:/mingw/bin/../lib/gcc/mingw32/4.5.2/../../../libuser32.a(daois00519.o)
                0x0043eff4                SetCaretPos@8
 .text          0x0043effc        0x8 d:/mingw/bin/../lib/gcc/mingw32/4.5.2/../../../libuser32.a(daois00520.o)
                0x0043effc                SetClassLongA@12
 .text          0x0043f004        0x8 d:/mingw/bin/../lib/gcc/mingw32/4.5.2/../../../libuser32.a(daois00525.o)
                0x0043f004                SetCursor@4
 .text          0x0043f00c        0x8 d:/mingw/bin/../lib/gcc/mingw32/4.5.2/../../../libuser32.a(daois00582.o)
                0x0043f00c                ShowCursor@4
 .text          0x0043f014        0x8 d:/mingw/bin/../lib/gcc/mingw32/4.5.2/../../../libuser32.a(daois00137.o)
                0x0043f014                DeleteMenu@12
 .text          0x0043f01c        0x8 d:/mingw/bin/../lib/gcc/mingw32/4.5.2/../../../libuser32.a(daois00006.o)
                0x0043f01c                AppendMenuA@16
 .text          0x0043f024        0x8 d:/mingw/bin/../lib/gcc/mingw32/4.5.2/../../../libuser32.a(daois00273.o)
                0x0043f024                GetKeyboardState@4
 .text          0x0043f02c        0x8 d:/mingw/bin/../lib/gcc/mingw32/4.5.2/../../../libuser32.a(daois00054.o)
                0x0043f02c                CheckMenuItem@12
 .text          0x0043f034        0x8 d:/mingw/bin/../lib/gcc/mingw32/4.5.2/../../../libuser32.a(daois00089.o)
                0x0043f034                CreatePopupMenu@0
 .text          0x0043f03c        0x8 d:/mingw/bin/../lib/gcc/mingw32/4.5.2/../../../libuser32.a(daois00364.o)
                0x0043f03c                InsertMenuA@20
 .text          0x0043f044        0x8 d:/mingw/bin/../lib/gcc/mingw32/4.5.2/../../../libuser32.a(daois00400.o)
                0x0043f044                KillTimer@8
 .text          0x0043f04c        0x8 d:/mingw/bin/../lib/gcc/mingw32/4.5.2/../../../libuser32.a(daois00563.o)
                0x0043f04c                SetTimer@16
 .text          0x0043f054        0x8 d:/mingw/bin/../lib/gcc/mingw32/4.5.2/../../../libuser32.a(daois00389.o)
                0x0043f054                IsIconic@4
 .text          0x0043f05c        0x8 d:/mingw/bin/../lib/gcc/mingw32/4.5.2/../../../libuser32.a(daois00074.o)
                0x0043f05c                CreateCaret@16
 .text          0x0043f064        0x8 d:/mingw/bin/../lib/gcc/mingw32/4.5.2/../../../libuser32.a(daois00554.o)
                0x0043f064                SetScrollInfo@16
 .text          0x0043f06c        0x8 d:/mingw/bin/../lib/gcc/mingw32/4.5.2/../../../libuser32.a(daois00257.o)
                0x0043f06c                GetDoubleClickTime@0
 .text          0x0043f074        0x8 d:/mingw/bin/../lib/gcc/mingw32/4.5.2/../../../libuser32.a(daois00325.o)
                0x0043f074                GetSystemMenu@8
 .text          0x0043f07c        0x8 d:/mingw/bin/../lib/gcc/mingw32/4.5.2/../../../libuser32.a(daois00088.o)
                0x0043f07c                CreateMenu@0
 .text          0x0043f084        0x8 d:/mingw/bin/../lib/gcc/mingw32/4.5.2/../../../libuser32.a(daois00269.o)
                0x0043f084                GetKeyboardLayout@4
 .text          0x0043f08c        0x8 d:/mingw/bin/../lib/gcc/mingw32/4.5.2/../../../libuser32.a(daois00534.o)
                0x0043f08c                SetForegroundWindow@4
 .text          0x0043f094        0x8 d:/mingw/bin/../lib/gcc/mingw32/4.5.2/../../../libuser32.a(daois00259.o)
                0x0043f094                GetForegroundWindow@0
 .text          0x0043f09c        0x8 d:/mingw/bin/../lib/gcc/mingw32/4.5.2/../../../libuser32.a(daois00622.o)
                0x0043f09c                UpdateWindow@4
 .text          0x0043f0a4        0x8 d:/mingw/bin/../lib/gcc/mingw32/4.5.2/../../../libuser32.a(daois00446.o)
                0x0043f0a4                MsgWaitForMultipleObjects@20
 .text          0x0043f0ac        0x8 d:/mingw/bin/../lib/gcc/mingw32/4.5.2/../../../libuser32.a(daois00464.o)
                0x0043f0ac                PeekMessageA@20
 .text          0x0043f0b4        0x8 d:/mingw/bin/../lib/gcc/mingw32/4.5.2/../../../libuser32.a(daois00394.o)
                0x0043f0b4                IsWindow@4
 .text          0x0043f0bc        0x8 d:/mingw/bin/../lib/gcc/mingw32/4.5.2/../../../libuser32.a(daois00177.o)
                0x0043f0bc                EmptyClipboard@0
 .text          0x0043f0c4        0x8 d:/mingw/bin/../lib/gcc/mingw32/4.5.2/../../../libuser32.a(daois00523.o)
                0x0043f0c4                SetClipboardData@8
 .text          0x0043f0cc        0x8 d:/mingw/bin/../lib/gcc/mingw32/4.5.2/../../../libuser32.a(daois00483.o)
                0x0043f0cc                RegisterClipboardFormatA@4
 .text          0x0043f0d4        0x8 d:/mingw/bin/../lib/gcc/mingw32/4.5.2/../../../libuser32.a(daois00358.o)
                0x0043f0d4                HideCaret@4
 .text          0x0043f0dc        0x8 d:/mingw/bin/../lib/gcc/mingw32/4.5.2/../../../libuser32.a(daois00581.o)
                0x0043f0dc                ShowCaret@4
 .text          0x0043f0e4        0x8 d:/mingw/bin/../lib/gcc/mingw32/4.5.2/../../../libuser32.a(daois00247.o)
                0x0043f0e4                GetCursorPos@4
 .text          0x0043f0ec        0x8 d:/mingw/bin/../lib/gcc/mingw32/4.5.2/../../../libuser32.a(daois00296.o)
                0x0043f0ec                GetMessageTime@0
 .text          0x0043f0f4        0x8 d:/mingw/bin/../lib/gcc/mingw32/4.5.2/../../../libuser32.a(daois00608.o)
                0x0043f0f4                TranslateMessage@4
 .text          0x0043f0fc        0x8 d:/mingw/bin/../lib/gcc/mingw32/4.5.2/../../../libuser32.a(daois00140.o)
                0x0043f0fc                DestroyCaret@0
 .text          0x0043f104        0x8 d:/mingw/bin/../lib/gcc/mingw32/4.5.2/../../../libuser32.a(daois00535.o)
                0x0043f104                SetKeyboardState@4
 .text          0x0043f10c        0x8 d:/mingw/bin/../lib/gcc/mingw32/4.5.2/../../../libuser32.a(daois00598.o)
                0x0043f10c                ToAsciiEx@24
 .text          0x0043f114        0x8 d:/mingw/bin/../lib/gcc/mingw32/4.5.2/../../../libuser32.a(daois00500.o)
                0x0043f114                ScreenToClient@8
 .text          0x0043f11c        0x8 d:/mingw/bin/../lib/gcc/mingw32/4.5.2/../../../libuser32.a(daois00602.o)
                0x0043f11c                TrackPopupMenu@28
 .text          0x0043f124        0x8 d:/mingw/bin/../lib/gcc/mingw32/4.5.2/../../../libuser32.a(daois00178.o)
                0x0043f124                EnableMenuItem@12
 .text          0x0043f12c        0x8 d:/mingw/bin/../lib/gcc/mingw32/4.5.2/../../../libuser32.a(daois00466.o)
                0x0043f12c                PostMessageA@16
 .text          0x0043f134        0x8 d:/mingw/bin/../lib/gcc/mingw32/4.5.2/../../../libuser32.a(daois00632.o)
                0x0043f134                WinHelpA@16
 .text          0x0043f13c        0x8 d:/mingw/bin/../lib/gcc/mingw32/4.5.2/../../../libuser32.a(daois00437.o)
                0x0043f13c                MessageBoxIndirectA@4
 .text          0x0043f144        0x0 d:/mingw/bin/../lib/gcc/mingw32/4.5.2/../../../libuser32.a(daoih.o)
 .text          0x0043f144        0x0 d:/mingw/bin/../lib/gcc/mingw32/4.5.2/../../../libuser32.a(daoit.o)
 .text          0x0043f144        0x8 d:/mingw/bin/../lib/gcc/mingw32/4.5.2/../../../libwinmm.a(dopcs00008.o)
                0x0043f144                PlaySoundA@12
 .text          0x0043f14c        0x0 d:/mingw/bin/../lib/gcc/mingw32/4.5.2/../../../libwinmm.a(dopch.o)
 .text          0x0043f14c        0x0 d:/mingw/bin/../lib/gcc/mingw32/4.5.2/../../../libwinmm.a(dopct.o)
 .text          0x0043f14c        0x8 d:/mingw/bin/../lib/gcc/mingw32/4.5.2/../../../libwinspool.a(dykds00078.o)
                0x0043f14c                EnumPrintersA@28
 .text          0x0043f154        0x8 d:/mingw/bin/../lib/gcc/mingw32/4.5.2/../../../libwinspool.a(dykds00102.o)
                0x0043f154                OpenPrinterA@12
 .text          0x0043f15c        0x8 d:/mingw/bin/../lib/gcc/mingw32/4.5.2/../../../libwinspool.a(dykds00126.o)
                0x0043f15c                StartDocPrinterA@12
 .text          0x0043f164        0x8 d:/mingw/bin/../lib/gcc/mingw32/4.5.2/../../../libwinspool.a(dykds00128.o)
                0x0043f164                StartPagePrinter@4
 .text          0x0043f16c        0x8 d:/mingw/bin/../lib/gcc/mingw32/4.5.2/../../../libwinspool.a(dykds00059.o)
                0x0043f16c                EndDocPrinter@4
 .text          0x0043f174        0x8 d:/mingw/bin/../lib/gcc/mingw32/4.5.2/../../../libwinspool.a(dykds00025.o)
                0x0043f174                ClosePrinter@4
 .text          0x0043f17c        0x8 d:/mingw/bin/../lib/gcc/mingw32/4.5.2/../../../libwinspool.a(dykds00130.o)
                0x0043f17c                WritePrinter@16
 .text          0x0043f184        0x8 d:/mingw/bin/../lib/gcc/mingw32/4.5.2/../../../libwinspool.a(dykds00060.o)
                0x0043f184                EndPagePrinter@4
 .text          0x0043f18c        0x0 d:/mingw/bin/../lib/gcc/mingw32/4.5.2/../../../libwinspool.a(dykdh.o)
 .text          0x0043f18c        0x0 d:/mingw/bin/../lib/gcc/mingw32/4.5.2/../../../libwinspool.a(dykdt.o)
 *fill*         0x0043f18c        0x4 00
 .text          0x0043f190      0x1d0 d:/mingw/bin/../lib/gcc/mingw32/4.5.2/../../../libmingw32.a(tlssup.o)
                0x0043f190                __tlregdtor
                0x0043f1e0                __dyn_tls_init@12
 .text          0x0043f360        0x0 d:/mingw/bin/../lib/gcc/mingw32/4.5.2/../../../libmingw32.a(CRTglob.o)
 .text          0x0043f360        0x0 d:/mingw/bin/../lib/gcc/mingw32/4.5.2/../../../libmingw32.a(CRTfmode.o)
 .text          0x0043f360        0x0 d:/mingw/bin/../lib/gcc/mingw32/4.5.2/../../../libmingw32.a(txtmode.o)
 .text          0x0043f360       0xe0 d:/mingw/bin/../lib/gcc/mingw32/4.5.2/../../../libmingw32.a(cpu_features.o)
                0x0043f360                __cpu_features_init
 .text          0x0043f440      0x2e0 d:/mingw/bin/../lib/gcc/mingw32/4.5.2/../../../libmingw32.a(pseudo-reloc.o)
                0x0043f570                _pei386_runtime_relocator
 .text          0x0043f720       0xb0 d:/mingw/bin/../lib/gcc/mingw32/4.5.2/../../../libmingw32.a(gccmain.o)
                0x0043f720                __do_global_dtors
                0x0043f750                __do_global_ctors
                0x0043f7b0                __main
 .text          0x0043f7d0      0x110 d:/mingw/bin/../lib/gcc/mingw32/4.5.2/../../../libmingw32.a(main.o)
                0x0043f7d0                main
 .text          0x0043f8e0       0x10 d:/mingw/bin/../lib/gcc/mingw32/4.5.2/../../../libmingw32.a(CRT_fp10.o)
                0x0043f8e0                fpreset
                0x0043f8e0                _fpreset
 .text          0x0043f8f0        0x0 d:/mingw/bin/../lib/gcc/mingw32/4.5.2/../../../libmingw32.a(crtst.o)
 .text          0x0043f8f0      0x210 d:/mingw/bin/../lib/gcc/mingw32/4.5.2/../../../libmingw32.a(tlsthrd.o)
                0x0043f970                __mingw_TLScallback
                0x0043fa00                ___w64_mingwthr_remove_key_dtor
                0x0043fa90                ___w64_mingwthr_add_key_dtor
 .text          0x0043fb00        0x0 d:/mingw/bin/../lib/gcc/mingw32/4.5.2/../../../libmingw32.a(pseudo-reloc-list.o)
 .text          0x0043fb00       0x34 d:/mingw/bin/../lib/gcc/mingw32/4.5.2/libgcc.a(_chkstk.o)
                0x0043fb00                _alloca
                0x0043fb00                __chkstk
 .text          0x0043fb34        0x0 d:/mingw/bin/../lib/gcc/mingw32/4.5.2/libgcc.a(_ctors.o)
 .text          0x0043fb34        0x8 d:/mingw/bin/../lib/gcc/mingw32/4.5.2/../../../libmoldname.a(dgzls00084.o)
                0x0043fb34                strnicmp
 .text          0x0043fb3c        0x0 d:/mingw/bin/../lib/gcc/mingw32/4.5.2/../../../libmoldname.a(dgzlh.o)
 .text          0x0043fb3c        0x0 d:/mingw/bin/../lib/gcc/mingw32/4.5.2/../../../libmoldname.a(dgzlt.o)
 .text          0x0043fb3c        0x0 d:/mingw/bin/../lib/gcc/mingw32/4.5.2/../../../libmsvcrt.a(duyms00590.o)
 .text          0x0043fb3c        0x0 d:/mingw/bin/../lib/gcc/mingw32/4.5.2/../../../libmsvcrt.a(duyms00383.o)
 .text          0x0043fb3c        0x0 d:/mingw/bin/../lib/gcc/mingw32/4.5.2/../../../libmsvcrt.a(duyms00266.o)
 .text          0x0043fb3c        0x8 d:/mingw/bin/../lib/gcc/mingw32/4.5.2/../../../libmsvcrt.a(duyms00055.o)
                0x0043fb3c                __getmainargs
 .text          0x0043fb44        0x8 d:/mingw/bin/../lib/gcc/mingw32/4.5.2/../../../libmsvcrt.a(duyms00079.o)
                0x0043fb44                __p__fmode
 .text          0x0043fb4c        0x8 d:/mingw/bin/../lib/gcc/mingw32/4.5.2/../../../libmsvcrt.a(duyms00077.o)
                0x0043fb4c                __p__environ
 .text          0x0043fb54        0x8 d:/mingw/bin/../lib/gcc/mingw32/4.5.2/../../../libmsvcrt.a(duyms00147.o)
                0x0043fb54                _cexit
 .text          0x0043fb5c        0x8 d:/mingw/bin/../lib/gcc/mingw32/4.5.2/../../../libmsvcrt.a(duyms00426.o)
                0x0043fb5c                _setmode
 .text          0x0043fb64        0x8 d:/mingw/bin/../lib/gcc/mingw32/4.5.2/../../../libmsvcrt.a(duyms00706.o)
                0x0043fb64                signal
 .text          0x0043fb6c        0x8 d:/mingw/bin/../lib/gcc/mingw32/4.5.2/../../../libmsvcrt.a(duyms00724.o)
                0x0043fb6c                strncpy
 .text          0x0043fb74        0x8 d:/mingw/bin/../lib/gcc/mingw32/4.5.2/../../../libmsvcrt.a(duyms00715.o)
                0x0043fb74                strcmp
 .text          0x0043fb7c        0x8 d:/mingw/bin/../lib/gcc/mingw32/4.5.2/../../../libmsvcrt.a(duyms00714.o)
                0x0043fb7c                strchr
 .text          0x0043fb84        0x8 d:/mingw/bin/../lib/gcc/mingw32/4.5.2/../../../libmsvcrt.a(duyms00723.o)
                0x0043fb84                strncmp
 .text          0x0043fb8c        0x8 d:/mingw/bin/../lib/gcc/mingw32/4.5.2/../../../libmsvcrt.a(duyms00592.o)
                0x0043fb8c                atoi
 .text          0x0043fb94        0x8 d:/mingw/bin/../lib/gcc/mingw32/4.5.2/../../../libmsvcrt.a(duyms00618.o)
                0x0043fb94                fopen
 .text          0x0043fb9c        0x8 d:/mingw/bin/../lib/gcc/mingw32/4.5.2/../../../libmsvcrt.a(duyms00611.o)
                0x0043fb9c                fgetc
 .text          0x0043fba4        0x8 d:/mingw/bin/../lib/gcc/mingw32/4.5.2/../../../libmsvcrt.a(duyms00607.o)
                0x0043fba4                fclose
 .text          0x0043fbac        0x8 d:/mingw/bin/../lib/gcc/mingw32/4.5.2/../../../libmsvcrt.a(duyms00717.o)
                0x0043fbac                strcpy
 .text          0x0043fbb4        0x8 d:/mingw/bin/../lib/gcc/mingw32/4.5.2/../../../libmsvcrt.a(duyms00683.o)
                0x0043fbb4                memmove
 .text          0x0043fbbc        0x8 d:/mingw/bin/../lib/gcc/mingw32/4.5.2/../../../libmsvcrt.a(duyms00137.o)
                0x0043fbbc                _assert
 .text          0x0043fbc4        0x8 d:/mingw/bin/../lib/gcc/mingw32/4.5.2/../../../libmsvcrt.a(duyms00709.o)
                0x0043fbc4                sprintf
 .text          0x0043fbcc        0x8 d:/mingw/bin/../lib/gcc/mingw32/4.5.2/../../../libmsvcrt.a(duyms00591.o)
                0x0043fbcc                atof
 .text          0x0043fbd4        0x0 d:/mingw/bin/../lib/gcc/mingw32/4.5.2/../../../libmsvcrt.a(duyms00392.o)
 .text          0x0043fbd4        0x0 d:/mingw/bin/../lib/gcc/mingw32/4.5.2/../../../libmsvcrt.a(duyms00065.o)
 .text          0x0043fbd4        0x8 d:/mingw/bin/../lib/gcc/mingw32/4.5.2/../../../libmsvcrt.a(duyms00268.o)
                0x0043fbd4                _isctype
 .text          0x0043fbdc        0x8 d:/mingw/bin/../lib/gcc/mingw32/4.5.2/../../../libmsvcrt.a(duyms00610.o)
                0x0043fbdc                fflush
 .text          0x0043fbe4        0x8 d:/mingw/bin/../lib/gcc/mingw32/4.5.2/../../../libmsvcrt.a(duyms00633.o)
                0x0043fbe4                fwrite
 .text          0x0043fbec        0x8 d:/mingw/bin/../lib/gcc/mingw32/4.5.2/../../../libmsvcrt.a(duyms00720.o)
                0x0043fbec                strftime
 .text          0x0043fbf4        0x8 d:/mingw/bin/../lib/gcc/mingw32/4.5.2/../../../libmsvcrt.a(duyms00742.o)
                0x0043fbf4                tolower
 .text          0x0043fbfc        0x8 d:/mingw/bin/../lib/gcc/mingw32/4.5.2/../../../libmsvcrt.a(duyms00619.o)
                0x0043fbfc                fprintf
 .text          0x0043fc04        0x8 d:/mingw/bin/../lib/gcc/mingw32/4.5.2/../../../libmsvcrt.a(duyms00732.o)
                0x0043fc04                strtoul
 .text          0x0043fc0c        0x8 d:/mingw/bin/../lib/gcc/mingw32/4.5.2/../../../libmsvcrt.a(duyms00731.o)
                0x0043fc0c                strtol
 .text          0x0043fc14        0x8 d:/mingw/bin/../lib/gcc/mingw32/4.5.2/../../../libmsvcrt.a(duyms00676.o)
                0x0043fc14                malloc
 .text          0x0043fc1c        0x8 d:/mingw/bin/../lib/gcc/mingw32/4.5.2/../../../libmsvcrt.a(duyms00698.o)
                0x0043fc1c                realloc
 .text          0x0043fc24        0x8 d:/mingw/bin/../lib/gcc/mingw32/4.5.2/../../../libmsvcrt.a(duyms00490.o)
                0x0043fc24                _vsnprintf
 .text          0x0043fc2c        0x8 d:/mingw/bin/../lib/gcc/mingw32/4.5.2/../../../libmsvcrt.a(duyms00625.o)
                0x0043fc2c                free
 .text          0x0043fc34        0x8 d:/mingw/bin/../lib/gcc/mingw32/4.5.2/../../../libmsvcrt.a(duyms00613.o)
                0x0043fc34                fgets
 .text          0x0043fc3c        0x8 d:/mingw/bin/../lib/gcc/mingw32/4.5.2/../../../libmsvcrt.a(duyms00712.o)
                0x0043fc3c                sscanf
 .text          0x0043fc44        0x8 d:/mingw/bin/../lib/gcc/mingw32/4.5.2/../../../libmsvcrt.a(duyms00726.o)
                0x0043fc44                strrchr
 .text          0x0043fc4c        0x8 d:/mingw/bin/../lib/gcc/mingw32/4.5.2/../../../libmsvcrt.a(duyms00695.o)
                0x0043fc4c                qsort
 .text          0x0043fc54        0x8 d:/mingw/bin/../lib/gcc/mingw32/4.5.2/../../../libmsvcrt.a(duyms00713.o)
                0x0043fc54                strcat
 .text          0x0043fc5c        0x8 d:/mingw/bin/../lib/gcc/mingw32/4.5.2/../../../libmsvcrt.a(duyms00743.o)
                0x0043fc5c                toupper
 .text          0x0043fc64        0x8 d:/mingw/bin/../lib/gcc/mingw32/4.5.2/../../../libmsvcrt.a(duyms00604.o)
                0x0043fc64                exit
 .text          0x0043fc6c        0x8 d:/mingw/bin/../lib/gcc/mingw32/4.5.2/../../../libmsvcrt.a(duyms00727.o)
                0x0043fc6c                strspn
 .text          0x0043fc74        0x8 d:/mingw/bin/../lib/gcc/mingw32/4.5.2/../../../libmsvcrt.a(duyms00718.o)
                0x0043fc74                strcspn
 .text          0x0043fc7c        0x8 d:/mingw/bin/../lib/gcc/mingw32/4.5.2/../../../libmsvcrt.a(duyms00637.o)
                0x0043fc7c                getenv
 .text          0x0043fc84        0x8 d:/mingw/bin/../lib/gcc/mingw32/4.5.2/../../../libmsvcrt.a(duyms00621.o)
                0x0043fc84                fputs
 .text          0x0043fc8c        0x8 d:/mingw/bin/../lib/gcc/mingw32/4.5.2/../../../libmsvcrt.a(duyms00699.o)
                0x0043fc8c                remove
 .text          0x0043fc94        0x0 d:/mingw/bin/../lib/gcc/mingw32/4.5.2/../../../libmsvcrt.a(duyms00538.o)
 .text          0x0043fc94        0x8 d:/mingw/bin/../lib/gcc/mingw32/4.5.2/../../../libmsvcrt.a(duyms00748.o)
                0x0043fc94                vfprintf
 .text          0x0043fc9c        0x8 d:/mingw/bin/../lib/gcc/mingw32/4.5.2/../../../libmsvcrt.a(duyms00583.o)
                0x0043fc9c                abort
 .text          0x0043fca4        0x8 d:/mingw/bin/../lib/gcc/mingw32/4.5.2/../../../libmsvcrt.a(duyms00682.o)
                0x0043fca4                memcpy
 .text          0x0043fcac        0x8 d:/mingw/bin/../lib/gcc/mingw32/4.5.2/../../../libmsvcrt.a(duyms00595.o)
                0x0043fcac                calloc
 .text          0x0043fcb4        0x0 d:/mingw/bin/../lib/gcc/mingw32/4.5.2/../../../libmsvcrt.a(duymh.o)
 .text          0x0043fcb4        0x0 d:/mingw/bin/../lib/gcc/mingw32/4.5.2/../../../libmsvcrt.a(duymt.o)
 .text          0x0043fcb4        0x8 d:/mingw/bin/../lib/gcc/mingw32/4.5.2/../../../libkernel32.a(dchds01140.o)
                0x0043fcb4                SetUnhandledExceptionFilter@4
 .text          0x0043fcbc        0x8 d:/mingw/bin/../lib/gcc/mingw32/4.5.2/../../../libkernel32.a(dchds00279.o)
                0x0043fcbc                ExitProcess@4
 .text          0x0043fcc4        0x8 d:/mingw/bin/../lib/gcc/mingw32/4.5.2/../../../libkernel32.a(dchds00529.o)
                0x0043fcc4                GetModuleHandleA@4
 .text          0x0043fccc        0x8 d:/mingw/bin/../lib/gcc/mingw32/4.5.2/../../../libkernel32.a(dchds00577.o)
                0x0043fccc                GetProcAddress@8
 .text          0x0043fcd4        0x8 d:/mingw/bin/../lib/gcc/mingw32/4.5.2/../../../libkernel32.a(dchds00656.o)
                0x0043fcd4                GetTickCount@0
 .text          0x0043fcdc        0x8 d:/mingw/bin/../lib/gcc/mingw32/4.5.2/../../../libkernel32.a(dchds00859.o)
                0x0043fcdc                MulDiv@12
 .text          0x0043fce4        0x8 d:/mingw/bin/../lib/gcc/mingw32/4.5.2/../../../libkernel32.a(dchds00368.o)
                0x0043fce4                GetCPInfo@8
 .text          0x0043fcec        0x8 d:/mingw/bin/../lib/gcc/mingw32/4.5.2/../../../libkernel32.a(dchds00563.o)
                0x0043fcec                GetOEMCP@0
 .text          0x0043fcf4        0x8 d:/mingw/bin/../lib/gcc/mingw32/4.5.2/../../../libkernel32.a(dchds00512.o)
                0x0043fcf4                GetLocaleInfoA@16
 .text          0x0043fcfc        0x8 d:/mingw/bin/../lib/gcc/mingw32/4.5.2/../../../libkernel32.a(dchds00860.o)
                0x0043fcfc                MultiByteToWideChar@24
 .text          0x0043fd04        0x8 d:/mingw/bin/../lib/gcc/mingw32/4.5.2/../../../libkernel32.a(dchds00763.o)
                0x0043fd04                IsDBCSLeadByteEx@8
 .text          0x0043fd0c        0x8 d:/mingw/bin/../lib/gcc/mingw32/4.5.2/../../../libkernel32.a(dchds00844.o)
                0x0043fd0c                MapViewOfFile@20
 .text          0x0043fd14        0x8 d:/mingw/bin/../lib/gcc/mingw32/4.5.2/../../../libkernel32.a(dchds01188.o)
                0x0043fd14                UnmapViewOfFile@4
 .text          0x0043fd1c        0x8 d:/mingw/bin/../lib/gcc/mingw32/4.5.2/../../../libkernel32.a(dchds00082.o)
                0x0043fd1c                CloseHandle@4
 .text          0x0043fd24        0x8 d:/mingw/bin/../lib/gcc/mingw32/4.5.2/../../../libkernel32.a(dchds00687.o)
                0x0043fd24                GlobalAlloc@8
 .text          0x0043fd2c        0x8 d:/mingw/bin/../lib/gcc/mingw32/4.5.2/../../../libkernel32.a(dchds00698.o)
                0x0043fd2c                GlobalLock@4
 .text          0x0043fd34        0x8 d:/mingw/bin/../lib/gcc/mingw32/4.5.2/../../../libkernel32.a(dchds00705.o)
                0x0043fd34                GlobalUnlock@4
 .text          0x0043fd3c        0x8 d:/mingw/bin/../lib/gcc/mingw32/4.5.2/../../../libkernel32.a(dchds00694.o)
                0x0043fd3c                GlobalFree@4
 .text          0x0043fd44        0x8 d:/mingw/bin/../lib/gcc/mingw32/4.5.2/../../../libkernel32.a(dchds01247.o)
                0x0043fd44                WideCharToMultiByte@32
 .text          0x0043fd4c        0x8 d:/mingw/bin/../lib/gcc/mingw32/4.5.2/../../../libkernel32.a(dchds00179.o)
                0x0043fd4c                CreateThread@24
 .text          0x0043fd54        0x8 d:/mingw/bin/../lib/gcc/mingw32/4.5.2/../../../libkernel32.a(dchds00527.o)
                0x0043fd54                GetModuleFileNameA@12
 .text          0x0043fd5c        0x8 d:/mingw/bin/../lib/gcc/mingw32/4.5.2/../../../libkernel32.a(dchds00163.o)
                0x0043fd5c                CreateProcessA@40
 .text          0x0043fd64        0x8 d:/mingw/bin/../lib/gcc/mingw32/4.5.2/../../../libkernel32.a(dchds00136.o)
                0x0043fd64                CreateFileMappingA@24
 .text          0x0043fd6c        0x8 d:/mingw/bin/../lib/gcc/mingw32/4.5.2/../../../libkernel32.a(dchds00054.o)
                0x0043fd6c                Beep@8
 .text          0x0043fd74        0x8 d:/mingw/bin/../lib/gcc/mingw32/4.5.2/../../../libkernel32.a(dchds01065.o)
                0x0043fd74                SetEvent@4
 .text          0x0043fd7c        0x8 d:/mingw/bin/../lib/gcc/mingw32/4.5.2/../../../libkernel32.a(dchds01223.o)
                0x0043fd7c                WaitForSingleObject@8
 .text          0x0043fd84        0x8 d:/mingw/bin/../lib/gcc/mingw32/4.5.2/../../../libkernel32.a(dchds01267.o)
                0x0043fd84                WriteFile@20
 .text          0x0043fd8c        0x8 d:/mingw/bin/../lib/gcc/mingw32/4.5.2/../../../libkernel32.a(dchds00510.o)
                0x0043fd8c                GetLastError@0
 .text          0x0043fd94        0x8 d:/mingw/bin/../lib/gcc/mingw32/4.5.2/../../../libkernel32.a(dchds00564.o)
                0x0043fd94                GetOverlappedResult@16
 .text          0x0043fd9c        0x8 d:/mingw/bin/../lib/gcc/mingw32/4.5.2/../../../libkernel32.a(dchds00129.o)
                0x0043fd9c                CreateEventA@16
 .text          0x0043fda4        0x8 d:/mingw/bin/../lib/gcc/mingw32/4.5.2/../../../libkernel32.a(dchds00947.o)
                0x0043fda4                ReadFile@20
 .text          0x0043fdac        0x8 d:/mingw/bin/../lib/gcc/mingw32/4.5.2/../../../libkernel32.a(dchds00671.o)
                0x0043fdac                GetVersionExA@4
 .text          0x0043fdb4        0x8 d:/mingw/bin/../lib/gcc/mingw32/4.5.2/../../../libkernel32.a(dchds00817.o)
                0x0043fdb4                LoadLibraryA@4
 .text          0x0043fdbc        0x8 d:/mingw/bin/../lib/gcc/mingw32/4.5.2/../../../libkernel32.a(dchds00619.o)
                0x0043fdbc                GetSystemDirectoryA@8
 .text          0x0043fdc4        0x8 d:/mingw/bin/../lib/gcc/mingw32/4.5.2/../../../libkernel32.a(dchds00016.o)
                0x0043fdc4                AllocConsole@0
 .text          0x0043fdcc        0x8 d:/mingw/bin/../lib/gcc/mingw32/4.5.2/../../../libkernel32.a(dchds00608.o)
                0x0043fdcc                GetStdHandle@4
 .text          0x0043fdd4        0x8 d:/mingw/bin/../lib/gcc/mingw32/4.5.2/../../../libkernel32.a(dchds00352.o)
                0x0043fdd4                FreeLibrary@4
 .text          0x0043fddc        0x8 d:/mingw/bin/../lib/gcc/mingw32/4.5.2/../../../libkernel32.a(dchds00160.o)
                0x0043fddc                CreatePipe@16
 .text          0x0043fde4        0x8 d:/mingw/bin/../lib/gcc/mingw32/4.5.2/../../../libkernel32.a(dchds01088.o)
                0x0043fde4                SetHandleInformation@12
 .text          0x0043fdec        0x8 d:/mingw/bin/../lib/gcc/mingw32/4.5.2/../../../libkernel32.a(dchds01010.o)
                0x0043fdec                SetCommBreak@4
 .text          0x0043fdf4        0x8 d:/mingw/bin/../lib/gcc/mingw32/4.5.2/../../../libkernel32.a(dchds00079.o)
                0x0043fdf4                ClearCommBreak@4
 .text          0x0043fdfc        0x8 d:/mingw/bin/../lib/gcc/mingw32/4.5.2/../../../libkernel32.a(dchds00386.o)
                0x0043fdfc                GetCommState@8
 .text          0x0043fe04        0x8 d:/mingw/bin/../lib/gcc/mingw32/4.5.2/../../../libkernel32.a(dchds01013.o)
                0x0043fe04                SetCommState@8
 .text          0x0043fe0c        0x8 d:/mingw/bin/../lib/gcc/mingw32/4.5.2/../../../libkernel32.a(dchds01014.o)
                0x0043fe0c                SetCommTimeouts@8
 .text          0x0043fe14        0x8 d:/mingw/bin/../lib/gcc/mingw32/4.5.2/../../../libkernel32.a(dchds00135.o)
                0x0043fe14                CreateFileA@28
 .text          0x0043fe1c        0x8 d:/mingw/bin/../lib/gcc/mingw32/4.5.2/../../../libkernel32.a(dchds00473.o)
                0x0043fe1c                GetEnvironmentVariableA@12
 .text          0x0043fe24        0x8 d:/mingw/bin/../lib/gcc/mingw32/4.5.2/../../../libkernel32.a(dchds00682.o)
                0x0043fe24                GetWindowsDirectoryA@8
 .text          0x0043fe2c        0x8 d:/mingw/bin/../lib/gcc/mingw32/4.5.2/../../../libkernel32.a(dchds00511.o)
                0x0043fe2c                GetLocalTime@4
 .text          0x0043fe34        0x8 d:/mingw/bin/../lib/gcc/mingw32/4.5.2/../../../libkernel32.a(dchds00358.o)
                0x0043fe34                GetACP@0
 .text          0x0043fe3c        0x8 d:/mingw/bin/../lib/gcc/mingw32/4.5.2/../../../libkernel32.a(dchds00444.o)
                0x0043fe3c                GetCurrentDirectoryA@8
 .text          0x0043fe44        0x8 d:/mingw/bin/../lib/gcc/mingw32/4.5.2/../../../libkernel32.a(dchds01052.o)
                0x0043fe44                SetCurrentDirectoryA@4
 .text          0x0043fe4c        0x8 d:/mingw/bin/../lib/gcc/mingw32/4.5.2/../../../libkernel32.a(dchds01215.o)
                0x0043fe4c                VirtualQuery@12
 .text          0x0043fe54        0x8 d:/mingw/bin/../lib/gcc/mingw32/4.5.2/../../../libkernel32.a(dchds01213.o)
                0x0043fe54                VirtualProtect@16
 .text          0x0043fe5c        0x8 d:/mingw/bin/../lib/gcc/mingw32/4.5.2/../../../libkernel32.a(dchds00388.o)
                0x0043fe5c                GetCommandLineA@0
 .text          0x0043fe64        0x8 d:/mingw/bin/../lib/gcc/mingw32/4.5.2/../../../libkernel32.a(dchds00606.o)
                0x0043fe64                GetStartupInfoA@4
 .text          0x0043fe6c        0x8 d:/mingw/bin/../lib/gcc/mingw32/4.5.2/../../../libkernel32.a(dchds01173.o)
                0x0043fe6c                TlsGetValue@4
 .text          0x0043fe74        0x8 d:/mingw/bin/../lib/gcc/mingw32/4.5.2/../../../libkernel32.a(dchds00207.o)
                0x0043fe74                DeleteCriticalSection@4
 .text          0x0043fe7c        0x8 d:/mingw/bin/../lib/gcc/mingw32/4.5.2/../../../libkernel32.a(dchds00734.o)
                0x0043fe7c                InitializeCriticalSection@4
 .text          0x0043fe84        0x8 d:/mingw/bin/../lib/gcc/mingw32/4.5.2/../../../libkernel32.a(dchds00236.o)
                0x0043fe84                EnterCriticalSection@4
 .text          0x0043fe8c        0x8 d:/mingw/bin/../lib/gcc/mingw32/4.5.2/../../../libkernel32.a(dchds00814.o)
                0x0043fe8c                LeaveCriticalSection@4
 .text          0x0043fe94        0x0 d:/mingw/bin/../lib/gcc/mingw32/4.5.2/../../../libkernel32.a(dchdh.o)
 .text          0x0043fe94        0x0 d:/mingw/bin/../lib/gcc/mingw32/4.5.2/../../../libkernel32.a(dchdt.o)
 .text          0x0043fe94       0x1c d:/mingw/bin/../lib/gcc/mingw32/4.5.2/crtend.o
 *(SORT(.text$*))
 *(.text.*)
 *(.glue_7t)
 *(.glue_7)
                0x0043feb0                ___CTOR_LIST__ = .
                0x0043feb0                __CTOR_LIST__ = .
                0x0043feb0        0x4 LONG 0xffffffff
 *(.ctors)
 *(.ctor)
 *(SORT(.ctors.*))
 .ctors.65535   0x0043feb4        0x4 d:/mingw/bin/../lib/gcc/mingw32/4.5.2/crtend.o
                0x0043feb8        0x4 LONG 0x0
                0x0043febc                ___DTOR_LIST__ = .
                0x0043febc                __DTOR_LIST__ = .
                0x0043febc        0x4 LONG 0xffffffff
 *(.dtors)
 *(.dtor)
 *(SORT(.dtors.*))
                0x0043fec0        0x4 LONG 0x0
 *(.fini)
 *(.gcc_exc)
                0x0043fec4                PROVIDE (etext, .)
 *(.gcc_except_table)

.data           0x00440000      0x400
                0x00440000                __data_start__ = .
 *(.data)
 .data          0x00440000        0x0 d:/mingw/bin/../lib/gcc/mingw32/4.5.2/../../../crt2.o
 .data          0x00440000        0x0 d:/mingw/bin/../lib/gcc/mingw32/4.5.2/crtbegin.o
 .data          0x00440000       0x14 be_nos_s.o
                0x00440000                backends
 .data          0x00440014        0x0 cmdline.o
 .data          0x00440014        0x0 config.o
 .data          0x00440014        0x0 dialog.o
 .data          0x00440014        0x0 ldisc.o
 .data          0x00440014        0x0 ldiscucs.o
 .data          0x00440014        0x0 logging.o
 .data          0x00440014        0x0 minibidi.o
 .data          0x00440014        0x0 misc.o
 .data          0x00440014        0x0 nocproxy.o
 .data          0x00440014        0x0 nogss.o
 .data          0x00440014        0x0 pinger.o
 .data          0x00440014        0x0 proxy.o
 *fill*         0x00440014        0xc 00
 .data          0x00440020       0x60 raw.o
                0x00440020                raw_backend
 .data          0x00440080       0x60 rlogin.o
                0x00440080                rlogin_backend
 .data          0x004400e0        0x0 sercfg.o
 .data          0x004400e0        0x0 settings.o
 .data          0x004400e0        0x0 sizetip.o
 .data          0x004400e0       0x60 telnet.o
                0x004400e0                telnet_backend
 .data          0x00440140        0x4 terminal.o
                0x00440140                EMPTY_WINDOW_TITLE
 .data          0x00440144        0x0 timing.o
 .data          0x00440144        0x0 tree234.o
 .data          0x00440144       0x20 version.o
                0x00440144                ver
                0x00440151                sshver
 .data          0x00440164        0x0 wcwidth.o
 .data          0x00440164        0x0 wincfg.o
 .data          0x00440164        0x0 winctrls.o
 .data          0x00440164        0x0 windefs.o
 .data          0x00440164       0x10 windlg.o
 .data          0x00440174       0x14 window.o
 .data          0x00440188        0x0 winhandl.o
 .data          0x00440188        0x0 winhelp.o
 .data          0x00440188        0x0 winjump.o
 .data          0x00440188        0x4 winmisc.o
 .data          0x0044018c        0x0 winnet.o
 .data          0x0044018c        0x0 winprint.o
 .data          0x0044018c        0x0 winproxy.o
 *fill*         0x0044018c       0x14 00
 .data          0x004401a0       0x60 winser.o
                0x004401a0                serial_backend
 .data          0x00440200        0x0 winstore.o
 .data          0x00440200        0x0 wintime.o
 .data          0x00440200        0x0 winucs.o
 .data          0x00440200        0x0 winutils.o
 .data          0x00440200        0x0 d:/mingw/bin/../lib/gcc/mingw32/4.5.2/../../../libadvapi32.a(dgxgs00245.o)
 .data          0x00440200        0x0 d:/mingw/bin/../lib/gcc/mingw32/4.5.2/../../../libadvapi32.a(dgxgs00393.o)
 .data          0x00440200        0x0 d:/mingw/bin/../lib/gcc/mingw32/4.5.2/../../../libadvapi32.a(dgxgs00400.o)
 .data          0x00440200        0x0 d:/mingw/bin/../lib/gcc/mingw32/4.5.2/../../../libadvapi32.a(dgxgs00412.o)
 .data          0x00440200        0x0 d:/mingw/bin/../lib/gcc/mingw32/4.5.2/../../../libadvapi32.a(dgxgs00386.o)
 .data          0x00440200        0x0 d:/mingw/bin/../lib/gcc/mingw32/4.5.2/../../../libadvapi32.a(dgxgs00423.o)
 .data          0x00440200        0x0 d:/mingw/bin/../lib/gcc/mingw32/4.5.2/../../../libadvapi32.a(dgxgs00389.o)
 .data          0x00440200        0x0 d:/mingw/bin/../lib/gcc/mingw32/4.5.2/../../../libadvapi32.a(dgxgs00434.o)
 .data          0x00440200        0x0 d:/mingw/bin/../lib/gcc/mingw32/4.5.2/../../../libadvapi32.a(dgxgs00390.o)
 .data          0x00440200        0x0 d:/mingw/bin/../lib/gcc/mingw32/4.5.2/../../../libadvapi32.a(dgxgs00397.o)
 .data          0x00440200        0x0 d:/mingw/bin/../lib/gcc/mingw32/4.5.2/../../../libadvapi32.a(dgxgh.o)
 .data          0x00440200        0x0 d:/mingw/bin/../lib/gcc/mingw32/4.5.2/../../../libadvapi32.a(dgxgt.o)
 .data          0x00440200        0x0 d:/mingw/bin/../lib/gcc/mingw32/4.5.2/../../../libcomctl32.a(dqqhs00098.o)
 .data          0x00440200        0x0 d:/mingw/bin/../lib/gcc/mingw32/4.5.2/../../../libcomctl32.a(dqqhs00097.o)
 .data          0x00440200        0x0 d:/mingw/bin/../lib/gcc/mingw32/4.5.2/../../../libcomctl32.a(dqqhs00042.o)
 .data          0x00440200        0x0 d:/mingw/bin/../lib/gcc/mingw32/4.5.2/../../../libcomctl32.a(dqqhs00094.o)
 .data          0x00440200        0x0 d:/mingw/bin/../lib/gcc/mingw32/4.5.2/../../../libcomctl32.a(dqqhh.o)
 .data          0x00440200        0x0 d:/mingw/bin/../lib/gcc/mingw32/4.5.2/../../../libcomctl32.a(dqqht.o)
 .data          0x00440200        0x0 d:/mingw/bin/../lib/gcc/mingw32/4.5.2/../../../libcomdlg32.a(demds00002.o)
 .data          0x00440200        0x0 d:/mingw/bin/../lib/gcc/mingw32/4.5.2/../../../libcomdlg32.a(demds00000.o)
 .data          0x00440200        0x0 d:/mingw/bin/../lib/gcc/mingw32/4.5.2/../../../libcomdlg32.a(demds00011.o)
 .data          0x00440200        0x0 d:/mingw/bin/../lib/gcc/mingw32/4.5.2/../../../libcomdlg32.a(demds00009.o)
 .data          0x00440200        0x0 d:/mingw/bin/../lib/gcc/mingw32/4.5.2/../../../libcomdlg32.a(demdh.o)
 .data          0x00440200        0x0 d:/mingw/bin/../lib/gcc/mingw32/4.5.2/../../../libcomdlg32.a(demdt.o)
 .data          0x00440200        0x0 d:/mingw/bin/../lib/gcc/mingw32/4.5.2/../../../libgdi32.a(dkfhs00034.o)
 .data          0x00440200        0x0 d:/mingw/bin/../lib/gcc/mingw32/4.5.2/../../../libgdi32.a(dkfhs00281.o)
 .data          0x00440200        0x0 d:/mingw/bin/../lib/gcc/mingw32/4.5.2/../../../libgdi32.a(dkfhs00213.o)
 .data          0x00440200        0x0 d:/mingw/bin/../lib/gcc/mingw32/4.5.2/../../../libgdi32.a(dkfhs00070.o)
 .data          0x00440200        0x0 d:/mingw/bin/../lib/gcc/mingw32/4.5.2/../../../libgdi32.a(dkfhs00073.o)
 .data          0x00440200        0x0 d:/mingw/bin/../lib/gcc/mingw32/4.5.2/../../../libgdi32.a(dkfhs00201.o)
 .data          0x00440200        0x0 d:/mingw/bin/../lib/gcc/mingw32/4.5.2/../../../libgdi32.a(dkfhs00067.o)
 .data          0x00440200        0x0 d:/mingw/bin/../lib/gcc/mingw32/4.5.2/../../../libgdi32.a(dkfhs00263.o)
 .data          0x00440200        0x0 d:/mingw/bin/../lib/gcc/mingw32/4.5.2/../../../libgdi32.a(dkfhs00323.o)
 .data          0x00440200        0x0 d:/mingw/bin/../lib/gcc/mingw32/4.5.2/../../../libgdi32.a(dkfhs00287.o)
 .data          0x00440200        0x0 d:/mingw/bin/../lib/gcc/mingw32/4.5.2/../../../libgdi32.a(dkfhs00339.o)
 .data          0x00440200        0x0 d:/mingw/bin/../lib/gcc/mingw32/4.5.2/../../../libgdi32.a(dkfhs00047.o)
 .data          0x00440200        0x0 d:/mingw/bin/../lib/gcc/mingw32/4.5.2/../../../libgdi32.a(dkfhs00148.o)
 .data          0x00440200        0x0 d:/mingw/bin/../lib/gcc/mingw32/4.5.2/../../../libgdi32.a(dkfhs00306.o)
 .data          0x00440200        0x0 d:/mingw/bin/../lib/gcc/mingw32/4.5.2/../../../libgdi32.a(dkfhs00210.o)
 .data          0x00440200        0x0 d:/mingw/bin/../lib/gcc/mingw32/4.5.2/../../../libgdi32.a(dkfhs00046.o)
 .data          0x00440200        0x0 d:/mingw/bin/../lib/gcc/mingw32/4.5.2/../../../libgdi32.a(dkfhs00219.o)
 .data          0x00440200        0x0 d:/mingw/bin/../lib/gcc/mingw32/4.5.2/../../../libgdi32.a(dkfhs00126.o)
 .data          0x00440200        0x0 d:/mingw/bin/../lib/gcc/mingw32/4.5.2/../../../libgdi32.a(dkfhs00185.o)
 .data          0x00440200        0x0 d:/mingw/bin/../lib/gcc/mingw32/4.5.2/../../../libgdi32.a(dkfhs00341.o)
 .data          0x00440200        0x0 d:/mingw/bin/../lib/gcc/mingw32/4.5.2/../../../libgdi32.a(dkfhs00033.o)
 .data          0x00440200        0x0 d:/mingw/bin/../lib/gcc/mingw32/4.5.2/../../../libgdi32.a(dkfhs00321.o)
 .data          0x00440200        0x0 d:/mingw/bin/../lib/gcc/mingw32/4.5.2/../../../libgdi32.a(dkfhs00288.o)
 .data          0x00440200        0x0 d:/mingw/bin/../lib/gcc/mingw32/4.5.2/../../../libgdi32.a(dkfhs00102.o)
 .data          0x00440200        0x0 d:/mingw/bin/../lib/gcc/mingw32/4.5.2/../../../libgdi32.a(dkfhs00192.o)
 .data          0x00440200        0x0 d:/mingw/bin/../lib/gcc/mingw32/4.5.2/../../../libgdi32.a(dkfhs00056.o)
 .data          0x00440200        0x0 d:/mingw/bin/../lib/gcc/mingw32/4.5.2/../../../libgdi32.a(dkfhs00282.o)
 .data          0x00440200        0x0 d:/mingw/bin/../lib/gcc/mingw32/4.5.2/../../../libgdi32.a(dkfhs00260.o)
 .data          0x00440200        0x0 d:/mingw/bin/../lib/gcc/mingw32/4.5.2/../../../libgdi32.a(dkfhs00058.o)
 .data          0x00440200        0x0 d:/mingw/bin/../lib/gcc/mingw32/4.5.2/../../../libgdi32.a(dkfhs00234.o)
 .data          0x00440200        0x0 d:/mingw/bin/../lib/gcc/mingw32/4.5.2/../../../libgdi32.a(dkfhs00231.o)
 .data          0x00440200        0x0 d:/mingw/bin/../lib/gcc/mingw32/4.5.2/../../../libgdi32.a(dkfhs00136.o)
 .data          0x00440200        0x0 d:/mingw/bin/../lib/gcc/mingw32/4.5.2/../../../libgdi32.a(dkfhs00122.o)
 .data          0x00440200        0x0 d:/mingw/bin/../lib/gcc/mingw32/4.5.2/../../../libgdi32.a(dkfhs00103.o)
 .data          0x00440200        0x0 d:/mingw/bin/../lib/gcc/mingw32/4.5.2/../../../libgdi32.a(dkfhs00312.o)
 .data          0x00440200        0x0 d:/mingw/bin/../lib/gcc/mingw32/4.5.2/../../../libgdi32.a(dkfhs00256.o)
 .data          0x00440200        0x0 d:/mingw/bin/../lib/gcc/mingw32/4.5.2/../../../libgdi32.a(dkfhs00130.o)
 .data          0x00440200        0x0 d:/mingw/bin/../lib/gcc/mingw32/4.5.2/../../../libgdi32.a(dkfhs00134.o)
 .data          0x00440200        0x0 d:/mingw/bin/../lib/gcc/mingw32/4.5.2/../../../libgdi32.a(dkfhs00129.o)
 .data          0x00440200        0x0 d:/mingw/bin/../lib/gcc/mingw32/4.5.2/../../../libgdi32.a(dkfhs00131.o)
 .data          0x00440200        0x0 d:/mingw/bin/../lib/gcc/mingw32/4.5.2/../../../libgdi32.a(dkfhs00028.o)
 .data          0x00440200        0x0 d:/mingw/bin/../lib/gcc/mingw32/4.5.2/../../../libgdi32.a(dkfhs00311.o)
 .data          0x00440200        0x0 d:/mingw/bin/../lib/gcc/mingw32/4.5.2/../../../libgdi32.a(dkfhs00342.o)
 .data          0x00440200        0x0 d:/mingw/bin/../lib/gcc/mingw32/4.5.2/../../../libgdi32.a(dkfhs00227.o)
 .data          0x00440200        0x0 d:/mingw/bin/../lib/gcc/mingw32/4.5.2/../../../libgdi32.a(dkfhs00096.o)
 .data          0x00440200        0x0 d:/mingw/bin/../lib/gcc/mingw32/4.5.2/../../../libgdi32.a(dkfhs00343.o)
 .data          0x00440200        0x0 d:/mingw/bin/../lib/gcc/mingw32/4.5.2/../../../libgdi32.a(dkfhh.o)
 .data          0x00440200        0x0 d:/mingw/bin/../lib/gcc/mingw32/4.5.2/../../../libgdi32.a(dkfht.o)
 .data          0x00440200        0x0 d:/mingw/bin/../lib/gcc/mingw32/4.5.2/../../../libimm32.a(dkrgs00025.o)
 .data          0x00440200        0x0 d:/mingw/bin/../lib/gcc/mingw32/4.5.2/../../../libimm32.a(dkrgs00065.o)
 .data          0x00440200        0x0 d:/mingw/bin/../lib/gcc/mingw32/4.5.2/../../../libimm32.a(dkrgs00059.o)
 .data          0x00440200        0x0 d:/mingw/bin/../lib/gcc/mingw32/4.5.2/../../../libimm32.a(dkrgs00023.o)
 .data          0x00440200        0x0 d:/mingw/bin/../lib/gcc/mingw32/4.5.2/../../../libimm32.a(dkrgs00061.o)
 .data          0x00440200        0x0 d:/mingw/bin/../lib/gcc/mingw32/4.5.2/../../../libimm32.a(dkrgh.o)
 .data          0x00440200        0x0 d:/mingw/bin/../lib/gcc/mingw32/4.5.2/../../../libimm32.a(dkrgt.o)
 .data          0x00440200        0x0 d:/mingw/bin/../lib/gcc/mingw32/4.5.2/../../../libole32.a(dyads00072.o)
 .data          0x00440200        0x0 d:/mingw/bin/../lib/gcc/mingw32/4.5.2/../../../libole32.a(dyads00037.o)
 .data          0x00440200        0x0 d:/mingw/bin/../lib/gcc/mingw32/4.5.2/../../../libole32.a(dyads00012.o)
 .data          0x00440200        0x0 d:/mingw/bin/../lib/gcc/mingw32/4.5.2/../../../libole32.a(dyadh.o)
 .data          0x00440200        0x0 d:/mingw/bin/../lib/gcc/mingw32/4.5.2/../../../libole32.a(dyadt.o)
 .data          0x00440200        0x0 d:/mingw/bin/../lib/gcc/mingw32/4.5.2/../../../libshell32.a(dukis00144.o)
 .data          0x00440200        0x0 d:/mingw/bin/../lib/gcc/mingw32/4.5.2/../../../libshell32.a(dukih.o)
 .data          0x00440200        0x0 d:/mingw/bin/../lib/gcc/mingw32/4.5.2/../../../libshell32.a(dukit.o)
 .data          0x00440200        0x0 d:/mingw/bin/../lib/gcc/mingw32/4.5.2/../../../libuser32.a(daois00134.o)
 .data          0x00440200        0x0 d:/mingw/bin/../lib/gcc/mingw32/4.5.2/../../../libuser32.a(daois00572.o)
 .data          0x00440200        0x0 d:/mingw/bin/../lib/gcc/mingw32/4.5.2/../../../libuser32.a(daois00370.o)
 .data          0x00440200        0x0 d:/mingw/bin/../lib/gcc/mingw32/4.5.2/../../../libuser32.a(daois00011.o)
 .data          0x00440200        0x0 d:/mingw/bin/../lib/gcc/mingw32/4.5.2/../../../libuser32.a(daois00236.o)
 .data          0x00440200        0x0 d:/mingw/bin/../lib/gcc/mingw32/4.5.2/../../../libuser32.a(daois00351.o)
 .data          0x00440200        0x0 d:/mingw/bin/../lib/gcc/mingw32/4.5.2/../../../libuser32.a(daois00350.o)
 .data          0x00440200        0x0 d:/mingw/bin/../lib/gcc/mingw32/4.5.2/../../../libuser32.a(daois00184.o)
 .data          0x00440200        0x0 d:/mingw/bin/../lib/gcc/mingw32/4.5.2/../../../libuser32.a(daois00574.o)
 .data          0x00440200        0x0 d:/mingw/bin/../lib/gcc/mingw32/4.5.2/../../../libuser32.a(daois00323.o)
 .data          0x00440200        0x0 d:/mingw/bin/../lib/gcc/mingw32/4.5.2/../../../libuser32.a(daois00591.o)
 .data          0x00440200        0x0 d:/mingw/bin/../lib/gcc/mingw32/4.5.2/../../../libuser32.a(daois00348.o)
 .data          0x00440200        0x0 d:/mingw/bin/../lib/gcc/mingw32/4.5.2/../../../libuser32.a(daois00090.o)
 .data          0x00440200        0x0 d:/mingw/bin/../lib/gcc/mingw32/4.5.2/../../../libuser32.a(daois00585.o)
 .data          0x00440200        0x0 d:/mingw/bin/../lib/gcc/mingw32/4.5.2/../../../libuser32.a(daois00479.o)
 .data          0x00440200        0x0 d:/mingw/bin/../lib/gcc/mingw32/4.5.2/../../../libuser32.a(daois00144.o)
 .data          0x00440200        0x0 d:/mingw/bin/../lib/gcc/mingw32/4.5.2/../../../libuser32.a(daois00225.o)
 .data          0x00440200        0x0 d:/mingw/bin/../lib/gcc/mingw32/4.5.2/../../../libuser32.a(daois00505.o)
 .data          0x00440200        0x0 d:/mingw/bin/../lib/gcc/mingw32/4.5.2/../../../libuser32.a(daois00508.o)
 .data          0x00440200        0x0 d:/mingw/bin/../lib/gcc/mingw32/4.5.2/../../../libuser32.a(daois00426.o)
 .data          0x00440200        0x0 d:/mingw/bin/../lib/gcc/mingw32/4.5.2/../../../libuser32.a(daois00248.o)
 .data          0x00440200        0x0 d:/mingw/bin/../lib/gcc/mingw32/4.5.2/../../../libuser32.a(daois00494.o)
 .data          0x00440200        0x0 d:/mingw/bin/../lib/gcc/mingw32/4.5.2/../../../libuser32.a(daois00569.o)
 .data          0x00440200        0x0 d:/mingw/bin/../lib/gcc/mingw32/4.5.2/../../../libuser32.a(daois00433.o)
 .data          0x00440200        0x0 d:/mingw/bin/../lib/gcc/mingw32/4.5.2/../../../libuser32.a(daois00056.o)
 .data          0x00440200        0x0 d:/mingw/bin/../lib/gcc/mingw32/4.5.2/../../../libuser32.a(daois00386.o)
 .data          0x00440200        0x0 d:/mingw/bin/../lib/gcc/mingw32/4.5.2/../../../libuser32.a(daois00053.o)
 .data          0x00440200        0x0 d:/mingw/bin/../lib/gcc/mingw32/4.5.2/../../../libuser32.a(daois00530.o)
 .data          0x00440200        0x0 d:/mingw/bin/../lib/gcc/mingw32/4.5.2/../../../libuser32.a(daois00255.o)
 .data          0x00440200        0x0 d:/mingw/bin/../lib/gcc/mingw32/4.5.2/../../../libuser32.a(daois00253.o)
 .data          0x00440200        0x0 d:/mingw/bin/../lib/gcc/mingw32/4.5.2/../../../libuser32.a(daois00533.o)
 .data          0x00440200        0x0 d:/mingw/bin/../lib/gcc/mingw32/4.5.2/../../../libuser32.a(daois00434.o)
 .data          0x00440200        0x0 d:/mingw/bin/../lib/gcc/mingw32/4.5.2/../../../libuser32.a(daois00491.o)
 .data          0x00440200        0x0 d:/mingw/bin/../lib/gcc/mingw32/4.5.2/../../../libuser32.a(daois00163.o)
 .data          0x00440200        0x0 d:/mingw/bin/../lib/gcc/mingw32/4.5.2/../../../libuser32.a(daois00517.o)
 .data          0x00440200        0x0 d:/mingw/bin/../lib/gcc/mingw32/4.5.2/../../../libuser32.a(daois00182.o)
 .data          0x00440200        0x0 d:/mingw/bin/../lib/gcc/mingw32/4.5.2/../../../libuser32.a(daois00180.o)
 .data          0x00440200        0x0 d:/mingw/bin/../lib/gcc/mingw32/4.5.2/../../../libuser32.a(daois00147.o)
 .data          0x00440200        0x0 d:/mingw/bin/../lib/gcc/mingw32/4.5.2/../../../libuser32.a(daois00516.o)
 .data          0x00440200        0x0 d:/mingw/bin/../lib/gcc/mingw32/4.5.2/../../../libuser32.a(daois00304.o)
 .data          0x00440200        0x0 d:/mingw/bin/../lib/gcc/mingw32/4.5.2/../../../libuser32.a(daois00127.o)
 .data          0x00440200        0x0 d:/mingw/bin/../lib/gcc/mingw32/4.5.2/../../../libuser32.a(daois00405.o)
 .data          0x00440200        0x0 d:/mingw/bin/../lib/gcc/mingw32/4.5.2/../../../libuser32.a(daois00080.o)
 .data          0x00440200        0x0 d:/mingw/bin/../lib/gcc/mingw32/4.5.2/../../../libuser32.a(daois00293.o)
 .data          0x00440200        0x0 d:/mingw/bin/../lib/gcc/mingw32/4.5.2/../../../libuser32.a(daois00342.o)
 .data          0x00440200        0x0 d:/mingw/bin/../lib/gcc/mingw32/4.5.2/../../../libuser32.a(daois00384.o)
 .data          0x00440200        0x0 d:/mingw/bin/../lib/gcc/mingw32/4.5.2/../../../libuser32.a(daois00149.o)
 .data          0x00440200        0x0 d:/mingw/bin/../lib/gcc/mingw32/4.5.2/../../../libuser32.a(daois00468.o)
 .data          0x00440200        0x0 d:/mingw/bin/../lib/gcc/mingw32/4.5.2/../../../libuser32.a(daois00347.o)
 .data          0x00440200        0x0 d:/mingw/bin/../lib/gcc/mingw32/4.5.2/../../../libuser32.a(daois00571.o)
 .data          0x00440200        0x0 d:/mingw/bin/../lib/gcc/mingw32/4.5.2/../../../libuser32.a(daois00493.o)
 .data          0x00440200        0x0 d:/mingw/bin/../lib/gcc/mingw32/4.5.2/../../../libuser32.a(daois00409.o)
 .data          0x00440200        0x0 d:/mingw/bin/../lib/gcc/mingw32/4.5.2/../../../libuser32.a(daois00250.o)
 .data          0x00440200        0x0 d:/mingw/bin/../lib/gcc/mingw32/4.5.2/../../../libuser32.a(daois00224.o)
 .data          0x00440200        0x0 d:/mingw/bin/../lib/gcc/mingw32/4.5.2/../../../libuser32.a(daois00445.o)
 .data          0x00440200        0x0 d:/mingw/bin/../lib/gcc/mingw32/4.5.2/../../../libuser32.a(daois00214.o)
 .data          0x00440200        0x0 d:/mingw/bin/../lib/gcc/mingw32/4.5.2/../../../libuser32.a(daois00455.o)
 .data          0x00440200        0x0 d:/mingw/bin/../lib/gcc/mingw32/4.5.2/../../../libuser32.a(daois00238.o)
 .data          0x00440200        0x0 d:/mingw/bin/../lib/gcc/mingw32/4.5.2/../../../libuser32.a(daois00061.o)
 .data          0x00440200        0x0 d:/mingw/bin/../lib/gcc/mingw32/4.5.2/../../../libuser32.a(daois00398.o)
 .data          0x00440200        0x0 d:/mingw/bin/../lib/gcc/mingw32/4.5.2/../../../libuser32.a(daois00519.o)
 .data          0x00440200        0x0 d:/mingw/bin/../lib/gcc/mingw32/4.5.2/../../../libuser32.a(daois00520.o)
 .data          0x00440200        0x0 d:/mingw/bin/../lib/gcc/mingw32/4.5.2/../../../libuser32.a(daois00525.o)
 .data          0x00440200        0x0 d:/mingw/bin/../lib/gcc/mingw32/4.5.2/../../../libuser32.a(daois00582.o)
 .data          0x00440200        0x0 d:/mingw/bin/../lib/gcc/mingw32/4.5.2/../../../libuser32.a(daois00137.o)
 .data          0x00440200        0x0 d:/mingw/bin/../lib/gcc/mingw32/4.5.2/../../../libuser32.a(daois00006.o)
 .data          0x00440200        0x0 d:/mingw/bin/../lib/gcc/mingw32/4.5.2/../../../libuser32.a(daois00273.o)
 .data          0x00440200        0x0 d:/mingw/bin/../lib/gcc/mingw32/4.5.2/../../../libuser32.a(daois00054.o)
 .data          0x00440200        0x0 d:/mingw/bin/../lib/gcc/mingw32/4.5.2/../../../libuser32.a(daois00089.o)
 .data          0x00440200        0x0 d:/mingw/bin/../lib/gcc/mingw32/4.5.2/../../../libuser32.a(daois00364.o)
 .data          0x00440200        0x0 d:/mingw/bin/../lib/gcc/mingw32/4.5.2/../../../libuser32.a(daois00400.o)
 .data          0x00440200        0x0 d:/mingw/bin/../lib/gcc/mingw32/4.5.2/../../../libuser32.a(daois00563.o)
 .data          0x00440200        0x0 d:/mingw/bin/../lib/gcc/mingw32/4.5.2/../../../libuser32.a(daois00389.o)
 .data          0x00440200        0x0 d:/mingw/bin/../lib/gcc/mingw32/4.5.2/../../../libuser32.a(daois00074.o)
 .data          0x00440200        0x0 d:/mingw/bin/../lib/gcc/mingw32/4.5.2/../../../libuser32.a(daois00554.o)
 .data          0x00440200        0x0 d:/mingw/bin/../lib/gcc/mingw32/4.5.2/../../../libuser32.a(daois00257.o)
 .data          0x00440200        0x0 d:/mingw/bin/../lib/gcc/mingw32/4.5.2/../../../libuser32.a(daois00325.o)
 .data          0x00440200        0x0 d:/mingw/bin/../lib/gcc/mingw32/4.5.2/../../../libuser32.a(daois00088.o)
 .data          0x00440200        0x0 d:/mingw/bin/../lib/gcc/mingw32/4.5.2/../../../libuser32.a(daois00269.o)
 .data          0x00440200        0x0 d:/mingw/bin/../lib/gcc/mingw32/4.5.2/../../../libuser32.a(daois00534.o)
 .data          0x00440200        0x0 d:/mingw/bin/../lib/gcc/mingw32/4.5.2/../../../libuser32.a(daois00259.o)
 .data          0x00440200        0x0 d:/mingw/bin/../lib/gcc/mingw32/4.5.2/../../../libuser32.a(daois00622.o)
 .data          0x00440200        0x0 d:/mingw/bin/../lib/gcc/mingw32/4.5.2/../../../libuser32.a(daois00446.o)
 .data          0x00440200        0x0 d:/mingw/bin/../lib/gcc/mingw32/4.5.2/../../../libuser32.a(daois00464.o)
 .data          0x00440200        0x0 d:/mingw/bin/../lib/gcc/mingw32/4.5.2/../../../libuser32.a(daois00394.o)
 .data          0x00440200        0x0 d:/mingw/bin/../lib/gcc/mingw32/4.5.2/../../../libuser32.a(daois00177.o)
 .data          0x00440200        0x0 d:/mingw/bin/../lib/gcc/mingw32/4.5.2/../../../libuser32.a(daois00523.o)
 .data          0x00440200        0x0 d:/mingw/bin/../lib/gcc/mingw32/4.5.2/../../../libuser32.a(daois00483.o)
 .data          0x00440200        0x0 d:/mingw/bin/../lib/gcc/mingw32/4.5.2/../../../libuser32.a(daois00358.o)
 .data          0x00440200        0x0 d:/mingw/bin/../lib/gcc/mingw32/4.5.2/../../../libuser32.a(daois00581.o)
 .data          0x00440200        0x0 d:/mingw/bin/../lib/gcc/mingw32/4.5.2/../../../libuser32.a(daois00247.o)
 .data          0x00440200        0x0 d:/mingw/bin/../lib/gcc/mingw32/4.5.2/../../../libuser32.a(daois00296.o)
 .data          0x00440200        0x0 d:/mingw/bin/../lib/gcc/mingw32/4.5.2/../../../libuser32.a(daois00608.o)
 .data          0x00440200        0x0 d:/mingw/bin/../lib/gcc/mingw32/4.5.2/../../../libuser32.a(daois00140.o)
 .data          0x00440200        0x0 d:/mingw/bin/../lib/gcc/mingw32/4.5.2/../../../libuser32.a(daois00535.o)
 .data          0x00440200        0x0 d:/mingw/bin/../lib/gcc/mingw32/4.5.2/../../../libuser32.a(daois00598.o)
 .data          0x00440200        0x0 d:/mingw/bin/../lib/gcc/mingw32/4.5.2/../../../libuser32.a(daois00500.o)
 .data          0x00440200        0x0 d:/mingw/bin/../lib/gcc/mingw32/4.5.2/../../../libuser32.a(daois00602.o)
 .data          0x00440200        0x0 d:/mingw/bin/../lib/gcc/mingw32/4.5.2/../../../libuser32.a(daois00178.o)
 .data          0x00440200        0x0 d:/mingw/bin/../lib/gcc/mingw32/4.5.2/../../../libuser32.a(daois00466.o)
 .data          0x00440200        0x0 d:/mingw/bin/../lib/gcc/mingw32/4.5.2/../../../libuser32.a(daois00632.o)
 .data          0x00440200        0x0 d:/mingw/bin/../lib/gcc/mingw32/4.5.2/../../../libuser32.a(daois00437.o)
 .data          0x00440200        0x0 d:/mingw/bin/../lib/gcc/mingw32/4.5.2/../../../libuser32.a(daoih.o)
 .data          0x00440200        0x0 d:/mingw/bin/../lib/gcc/mingw32/4.5.2/../../../libuser32.a(daoit.o)
 .data          0x00440200        0x0 d:/mingw/bin/../lib/gcc/mingw32/4.5.2/../../../libwinmm.a(dopcs00008.o)
 .data          0x00440200        0x0 d:/mingw/bin/../lib/gcc/mingw32/4.5.2/../../../libwinmm.a(dopch.o)
 .data          0x00440200        0x0 d:/mingw/bin/../lib/gcc/mingw32/4.5.2/../../../libwinmm.a(dopct.o)
 .data          0x00440200        0x0 d:/mingw/bin/../lib/gcc/mingw32/4.5.2/../../../libwinspool.a(dykds00078.o)
 .data          0x00440200        0x0 d:/mingw/bin/../lib/gcc/mingw32/4.5.2/../../../libwinspool.a(dykds00102.o)
 .data          0x00440200        0x0 d:/mingw/bin/../lib/gcc/mingw32/4.5.2/../../../libwinspool.a(dykds00126.o)
 .data          0x00440200        0x0 d:/mingw/bin/../lib/gcc/mingw32/4.5.2/../../../libwinspool.a(dykds00128.o)
 .data          0x00440200        0x0 d:/mingw/bin/../lib/gcc/mingw32/4.5.2/../../../libwinspool.a(dykds00059.o)
 .data          0x00440200        0x0 d:/mingw/bin/../lib/gcc/mingw32/4.5.2/../../../libwinspool.a(dykds00025.o)
 .data          0x00440200        0x0 d:/mingw/bin/../lib/gcc/mingw32/4.5.2/../../../libwinspool.a(dykds00130.o)
 .data          0x00440200        0x0 d:/mingw/bin/../lib/gcc/mingw32/4.5.2/../../../libwinspool.a(dykds00060.o)
 .data          0x00440200        0x0 d:/mingw/bin/../lib/gcc/mingw32/4.5.2/../../../libwinspool.a(dykdh.o)
 .data          0x00440200        0x0 d:/mingw/bin/../lib/gcc/mingw32/4.5.2/../../../libwinspool.a(dykdt.o)
 .data          0x00440200        0x0 d:/mingw/bin/../lib/gcc/mingw32/4.5.2/../../../libmingw32.a(tlssup.o)
 .data          0x00440200        0x4 d:/mingw/bin/../lib/gcc/mingw32/4.5.2/../../../libmingw32.a(CRTglob.o)
                0x00440200                _CRT_glob
 .data          0x00440204        0x0 d:/mingw/bin/../lib/gcc/mingw32/4.5.2/../../../libmingw32.a(CRTfmode.o)
 .data          0x00440204        0x4 d:/mingw/bin/../lib/gcc/mingw32/4.5.2/../../../libmingw32.a(txtmode.o)
                0x00440204                _fmode
 .data          0x00440208        0x0 d:/mingw/bin/../lib/gcc/mingw32/4.5.2/../../../libmingw32.a(cpu_features.o)
 .data          0x00440208        0x0 d:/mingw/bin/../lib/gcc/mingw32/4.5.2/../../../libmingw32.a(pseudo-reloc.o)
 .data          0x00440208        0x4 d:/mingw/bin/../lib/gcc/mingw32/4.5.2/../../../libmingw32.a(gccmain.o)
 .data          0x0044020c        0x0 d:/mingw/bin/../lib/gcc/mingw32/4.5.2/../../../libmingw32.a(main.o)
 .data          0x0044020c        0x0 d:/mingw/bin/../lib/gcc/mingw32/4.5.2/../../../libmingw32.a(CRT_fp10.o)
 .data          0x0044020c        0x0 d:/mingw/bin/../lib/gcc/mingw32/4.5.2/../../../libmingw32.a(crtst.o)
 .data          0x0044020c        0x0 d:/mingw/bin/../lib/gcc/mingw32/4.5.2/../../../libmingw32.a(tlsthrd.o)
 .data          0x0044020c        0x0 d:/mingw/bin/../lib/gcc/mingw32/4.5.2/../../../libmingw32.a(pseudo-reloc-list.o)
 .data          0x0044020c        0x0 d:/mingw/bin/../lib/gcc/mingw32/4.5.2/libgcc.a(_chkstk.o)
 .data          0x0044020c        0x0 d:/mingw/bin/../lib/gcc/mingw32/4.5.2/libgcc.a(_ctors.o)
 .data          0x0044020c        0x0 d:/mingw/bin/../lib/gcc/mingw32/4.5.2/../../../libmoldname.a(dgzls00084.o)
 .data          0x0044020c        0x0 d:/mingw/bin/../lib/gcc/mingw32/4.5.2/../../../libmoldname.a(dgzlh.o)
 .data          0x0044020c        0x0 d:/mingw/bin/../lib/gcc/mingw32/4.5.2/../../../libmoldname.a(dgzlt.o)
 .data          0x0044020c        0x0 d:/mingw/bin/../lib/gcc/mingw32/4.5.2/../../../libmsvcrt.a(duyms00590.o)
 .data          0x0044020c        0x0 d:/mingw/bin/../lib/gcc/mingw32/4.5.2/../../../libmsvcrt.a(duyms00383.o)
 .data          0x0044020c        0x0 d:/mingw/bin/../lib/gcc/mingw32/4.5.2/../../../libmsvcrt.a(duyms00266.o)
 .data          0x0044020c        0x0 d:/mingw/bin/../lib/gcc/mingw32/4.5.2/../../../libmsvcrt.a(duyms00099.o)
 .data          0x0044020c        0x0 d:/mingw/bin/../lib/gcc/mingw32/4.5.2/../../../libmsvcrt.a(duyms00055.o)
 .data          0x0044020c        0x0 d:/mingw/bin/../lib/gcc/mingw32/4.5.2/../../../libmsvcrt.a(duyms00079.o)
 .data          0x0044020c        0x0 d:/mingw/bin/../lib/gcc/mingw32/4.5.2/../../../libmsvcrt.a(duyms00077.o)
 .data          0x0044020c        0x0 d:/mingw/bin/../lib/gcc/mingw32/4.5.2/../../../libmsvcrt.a(duyms00147.o)
 .data          0x0044020c        0x0 d:/mingw/bin/../lib/gcc/mingw32/4.5.2/../../../libmsvcrt.a(duyms00426.o)
 .data          0x0044020c        0x0 d:/mingw/bin/../lib/gcc/mingw32/4.5.2/../../../libmsvcrt.a(duyms00706.o)
 .data          0x0044020c        0x0 d:/mingw/bin/../lib/gcc/mingw32/4.5.2/../../../libmsvcrt.a(duyms00724.o)
 .data          0x0044020c        0x0 d:/mingw/bin/../lib/gcc/mingw32/4.5.2/../../../libmsvcrt.a(duyms00715.o)
 .data          0x0044020c        0x0 d:/mingw/bin/../lib/gcc/mingw32/4.5.2/../../../libmsvcrt.a(duyms00714.o)
 .data          0x0044020c        0x0 d:/mingw/bin/../lib/gcc/mingw32/4.5.2/../../../libmsvcrt.a(duyms00723.o)
 .data          0x0044020c        0x0 d:/mingw/bin/../lib/gcc/mingw32/4.5.2/../../../libmsvcrt.a(duyms00592.o)
 .data          0x0044020c        0x0 d:/mingw/bin/../lib/gcc/mingw32/4.5.2/../../../libmsvcrt.a(duyms00618.o)
 .data          0x0044020c        0x0 d:/mingw/bin/../lib/gcc/mingw32/4.5.2/../../../libmsvcrt.a(duyms00611.o)
 .data          0x0044020c        0x0 d:/mingw/bin/../lib/gcc/mingw32/4.5.2/../../../libmsvcrt.a(duyms00607.o)
 .data          0x0044020c        0x0 d:/mingw/bin/../lib/gcc/mingw32/4.5.2/../../../libmsvcrt.a(duyms00717.o)
 .data          0x0044020c        0x0 d:/mingw/bin/../lib/gcc/mingw32/4.5.2/../../../libmsvcrt.a(duyms00683.o)
 .data          0x0044020c        0x0 d:/mingw/bin/../lib/gcc/mingw32/4.5.2/../../../libmsvcrt.a(duyms00137.o)
 .data          0x0044020c        0x0 d:/mingw/bin/../lib/gcc/mingw32/4.5.2/../../../libmsvcrt.a(duyms00709.o)
 .data          0x0044020c        0x0 d:/mingw/bin/../lib/gcc/mingw32/4.5.2/../../../libmsvcrt.a(duyms00591.o)
 .data          0x0044020c        0x0 d:/mingw/bin/../lib/gcc/mingw32/4.5.2/../../../libmsvcrt.a(duyms00392.o)
 .data          0x0044020c        0x0 d:/mingw/bin/../lib/gcc/mingw32/4.5.2/../../../libmsvcrt.a(duyms00065.o)
 .data          0x0044020c        0x0 d:/mingw/bin/../lib/gcc/mingw32/4.5.2/../../../libmsvcrt.a(duyms00268.o)
 .data          0x0044020c        0x0 d:/mingw/bin/../lib/gcc/mingw32/4.5.2/../../../libmsvcrt.a(duyms00610.o)
 .data          0x0044020c        0x0 d:/mingw/bin/../lib/gcc/mingw32/4.5.2/../../../libmsvcrt.a(duyms00633.o)
 .data          0x0044020c        0x0 d:/mingw/bin/../lib/gcc/mingw32/4.5.2/../../../libmsvcrt.a(duyms00720.o)
 .data          0x0044020c        0x0 d:/mingw/bin/../lib/gcc/mingw32/4.5.2/../../../libmsvcrt.a(duyms00742.o)
 .data          0x0044020c        0x0 d:/mingw/bin/../lib/gcc/mingw32/4.5.2/../../../libmsvcrt.a(duyms00619.o)
 .data          0x0044020c        0x0 d:/mingw/bin/../lib/gcc/mingw32/4.5.2/../../../libmsvcrt.a(duyms00732.o)
 .data          0x0044020c        0x0 d:/mingw/bin/../lib/gcc/mingw32/4.5.2/../../../libmsvcrt.a(duyms00731.o)
 .data          0x0044020c        0x0 d:/mingw/bin/../lib/gcc/mingw32/4.5.2/../../../libmsvcrt.a(duyms00676.o)
 .data          0x0044020c        0x0 d:/mingw/bin/../lib/gcc/mingw32/4.5.2/../../../libmsvcrt.a(duyms00698.o)
 .data          0x0044020c        0x0 d:/mingw/bin/../lib/gcc/mingw32/4.5.2/../../../libmsvcrt.a(duyms00490.o)
 .data          0x0044020c        0x0 d:/mingw/bin/../lib/gcc/mingw32/4.5.2/../../../libmsvcrt.a(duyms00625.o)
 .data          0x0044020c        0x0 d:/mingw/bin/../lib/gcc/mingw32/4.5.2/../../../libmsvcrt.a(duyms00613.o)
 .data          0x0044020c        0x0 d:/mingw/bin/../lib/gcc/mingw32/4.5.2/../../../libmsvcrt.a(duyms00712.o)
 .data          0x0044020c        0x0 d:/mingw/bin/../lib/gcc/mingw32/4.5.2/../../../libmsvcrt.a(duyms00726.o)
 .data          0x0044020c        0x0 d:/mingw/bin/../lib/gcc/mingw32/4.5.2/../../../libmsvcrt.a(duyms00695.o)
 .data          0x0044020c        0x0 d:/mingw/bin/../lib/gcc/mingw32/4.5.2/../../../libmsvcrt.a(duyms00713.o)
 .data          0x0044020c        0x0 d:/mingw/bin/../lib/gcc/mingw32/4.5.2/../../../libmsvcrt.a(duyms00743.o)
 .data          0x0044020c        0x0 d:/mingw/bin/../lib/gcc/mingw32/4.5.2/../../../libmsvcrt.a(duyms00604.o)
 .data          0x0044020c        0x0 d:/mingw/bin/../lib/gcc/mingw32/4.5.2/../../../libmsvcrt.a(duyms00727.o)
 .data          0x0044020c        0x0 d:/mingw/bin/../lib/gcc/mingw32/4.5.2/../../../libmsvcrt.a(duyms00718.o)
 .data          0x0044020c        0x0 d:/mingw/bin/../lib/gcc/mingw32/4.5.2/../../../libmsvcrt.a(duyms00637.o)
 .data          0x0044020c        0x0 d:/mingw/bin/../lib/gcc/mingw32/4.5.2/../../../libmsvcrt.a(duyms00621.o)
 .data          0x0044020c        0x0 d:/mingw/bin/../lib/gcc/mingw32/4.5.2/../../../libmsvcrt.a(duyms00699.o)
 .data          0x0044020c        0x0 d:/mingw/bin/../lib/gcc/mingw32/4.5.2/../../../libmsvcrt.a(duyms00538.o)
 .data          0x0044020c        0x0 d:/mingw/bin/../lib/gcc/mingw32/4.5.2/../../../libmsvcrt.a(duyms00748.o)
 .data          0x0044020c        0x0 d:/mingw/bin/../lib/gcc/mingw32/4.5.2/../../../libmsvcrt.a(duyms00583.o)
 .data          0x0044020c        0x0 d:/mingw/bin/../lib/gcc/mingw32/4.5.2/../../../libmsvcrt.a(duyms00682.o)
 .data          0x0044020c        0x0 d:/mingw/bin/../lib/gcc/mingw32/4.5.2/../../../libmsvcrt.a(duyms00595.o)
 .data          0x0044020c        0x0 d:/mingw/bin/../lib/gcc/mingw32/4.5.2/../../../libmsvcrt.a(duymh.o)
 .data          0x0044020c        0x0 d:/mingw/bin/../lib/gcc/mingw32/4.5.2/../../../libmsvcrt.a(duymt.o)
 .data          0x0044020c        0x0 d:/mingw/bin/../lib/gcc/mingw32/4.5.2/../../../libkernel32.a(dchds01140.o)
 .data          0x0044020c        0x0 d:/mingw/bin/../lib/gcc/mingw32/4.5.2/../../../libkernel32.a(dchds00279.o)
 .data          0x0044020c        0x0 d:/mingw/bin/../lib/gcc/mingw32/4.5.2/../../../libkernel32.a(dchds00529.o)
 .data          0x0044020c        0x0 d:/mingw/bin/../lib/gcc/mingw32/4.5.2/../../../libkernel32.a(dchds00577.o)
 .data          0x0044020c        0x0 d:/mingw/bin/../lib/gcc/mingw32/4.5.2/../../../libkernel32.a(dchds00656.o)
 .data          0x0044020c        0x0 d:/mingw/bin/../lib/gcc/mingw32/4.5.2/../../../libkernel32.a(dchds00859.o)
 .data          0x0044020c        0x0 d:/mingw/bin/../lib/gcc/mingw32/4.5.2/../../../libkernel32.a(dchds00368.o)
 .data          0x0044020c        0x0 d:/mingw/bin/../lib/gcc/mingw32/4.5.2/../../../libkernel32.a(dchds00563.o)
 .data          0x0044020c        0x0 d:/mingw/bin/../lib/gcc/mingw32/4.5.2/../../../libkernel32.a(dchds00512.o)
 .data          0x0044020c        0x0 d:/mingw/bin/../lib/gcc/mingw32/4.5.2/../../../libkernel32.a(dchds00860.o)
 .data          0x0044020c        0x0 d:/mingw/bin/../lib/gcc/mingw32/4.5.2/../../../libkernel32.a(dchds00763.o)
 .data          0x0044020c        0x0 d:/mingw/bin/../lib/gcc/mingw32/4.5.2/../../../libkernel32.a(dchds00844.o)
 .data          0x0044020c        0x0 d:/mingw/bin/../lib/gcc/mingw32/4.5.2/../../../libkernel32.a(dchds01188.o)
 .data          0x0044020c        0x0 d:/mingw/bin/../lib/gcc/mingw32/4.5.2/../../../libkernel32.a(dchds00082.o)
 .data          0x0044020c        0x0 d:/mingw/bin/../lib/gcc/mingw32/4.5.2/../../../libkernel32.a(dchds00687.o)
 .data          0x0044020c        0x0 d:/mingw/bin/../lib/gcc/mingw32/4.5.2/../../../libkernel32.a(dchds00698.o)
 .data          0x0044020c        0x0 d:/mingw/bin/../lib/gcc/mingw32/4.5.2/../../../libkernel32.a(dchds00705.o)
 .data          0x0044020c        0x0 d:/mingw/bin/../lib/gcc/mingw32/4.5.2/../../../libkernel32.a(dchds00694.o)
 .data          0x0044020c        0x0 d:/mingw/bin/../lib/gcc/mingw32/4.5.2/../../../libkernel32.a(dchds01247.o)
 .data          0x0044020c        0x0 d:/mingw/bin/../lib/gcc/mingw32/4.5.2/../../../libkernel32.a(dchds00179.o)
 .data          0x0044020c        0x0 d:/mingw/bin/../lib/gcc/mingw32/4.5.2/../../../libkernel32.a(dchds00527.o)
 .data          0x0044020c        0x0 d:/mingw/bin/../lib/gcc/mingw32/4.5.2/../../../libkernel32.a(dchds00163.o)
 .data          0x0044020c        0x0 d:/mingw/bin/../lib/gcc/mingw32/4.5.2/../../../libkernel32.a(dchds00136.o)
 .data          0x0044020c        0x0 d:/mingw/bin/../lib/gcc/mingw32/4.5.2/../../../libkernel32.a(dchds00054.o)
 .data          0x0044020c        0x0 d:/mingw/bin/../lib/gcc/mingw32/4.5.2/../../../libkernel32.a(dchds01065.o)
 .data          0x0044020c        0x0 d:/mingw/bin/../lib/gcc/mingw32/4.5.2/../../../libkernel32.a(dchds01223.o)
 .data          0x0044020c        0x0 d:/mingw/bin/../lib/gcc/mingw32/4.5.2/../../../libkernel32.a(dchds01267.o)
 .data          0x0044020c        0x0 d:/mingw/bin/../lib/gcc/mingw32/4.5.2/../../../libkernel32.a(dchds00510.o)
 .data          0x0044020c        0x0 d:/mingw/bin/../lib/gcc/mingw32/4.5.2/../../../libkernel32.a(dchds00564.o)
 .data          0x0044020c        0x0 d:/mingw/bin/../lib/gcc/mingw32/4.5.2/../../../libkernel32.a(dchds00129.o)
 .data          0x0044020c        0x0 d:/mingw/bin/../lib/gcc/mingw32/4.5.2/../../../libkernel32.a(dchds00947.o)
 .data          0x0044020c        0x0 d:/mingw/bin/../lib/gcc/mingw32/4.5.2/../../../libkernel32.a(dchds00671.o)
 .data          0x0044020c        0x0 d:/mingw/bin/../lib/gcc/mingw32/4.5.2/../../../libkernel32.a(dchds00817.o)
 .data          0x0044020c        0x0 d:/mingw/bin/../lib/gcc/mingw32/4.5.2/../../../libkernel32.a(dchds00619.o)
 .data          0x0044020c        0x0 d:/mingw/bin/../lib/gcc/mingw32/4.5.2/../../../libkernel32.a(dchds00016.o)
 .data          0x0044020c        0x0 d:/mingw/bin/../lib/gcc/mingw32/4.5.2/../../../libkernel32.a(dchds00608.o)
 .data          0x0044020c        0x0 d:/mingw/bin/../lib/gcc/mingw32/4.5.2/../../../libkernel32.a(dchds00352.o)
 .data          0x0044020c        0x0 d:/mingw/bin/../lib/gcc/mingw32/4.5.2/../../../libkernel32.a(dchds00160.o)
 .data          0x0044020c        0x0 d:/mingw/bin/../lib/gcc/mingw32/4.5.2/../../../libkernel32.a(dchds01088.o)
 .data          0x0044020c        0x0 d:/mingw/bin/../lib/gcc/mingw32/4.5.2/../../../libkernel32.a(dchds01010.o)
 .data          0x0044020c        0x0 d:/mingw/bin/../lib/gcc/mingw32/4.5.2/../../../libkernel32.a(dchds00079.o)
 .data          0x0044020c        0x0 d:/mingw/bin/../lib/gcc/mingw32/4.5.2/../../../libkernel32.a(dchds00386.o)
 .data          0x0044020c        0x0 d:/mingw/bin/../lib/gcc/mingw32/4.5.2/../../../libkernel32.a(dchds01013.o)
 .data          0x0044020c        0x0 d:/mingw/bin/../lib/gcc/mingw32/4.5.2/../../../libkernel32.a(dchds01014.o)
 .data          0x0044020c        0x0 d:/mingw/bin/../lib/gcc/mingw32/4.5.2/../../../libkernel32.a(dchds00135.o)
 .data          0x0044020c        0x0 d:/mingw/bin/../lib/gcc/mingw32/4.5.2/../../../libkernel32.a(dchds00473.o)
 .data          0x0044020c        0x0 d:/mingw/bin/../lib/gcc/mingw32/4.5.2/../../../libkernel32.a(dchds00682.o)
 .data          0x0044020c        0x0 d:/mingw/bin/../lib/gcc/mingw32/4.5.2/../../../libkernel32.a(dchds00511.o)
 .data          0x0044020c        0x0 d:/mingw/bin/../lib/gcc/mingw32/4.5.2/../../../libkernel32.a(dchds00358.o)
 .data          0x0044020c        0x0 d:/mingw/bin/../lib/gcc/mingw32/4.5.2/../../../libkernel32.a(dchds00444.o)
 .data          0x0044020c        0x0 d:/mingw/bin/../lib/gcc/mingw32/4.5.2/../../../libkernel32.a(dchds01052.o)
 .data          0x0044020c        0x0 d:/mingw/bin/../lib/gcc/mingw32/4.5.2/../../../libkernel32.a(dchds01215.o)
 .data          0x0044020c        0x0 d:/mingw/bin/../lib/gcc/mingw32/4.5.2/../../../libkernel32.a(dchds01213.o)
 .data          0x0044020c        0x0 d:/mingw/bin/../lib/gcc/mingw32/4.5.2/../../../libkernel32.a(dchds00388.o)
 .data          0x0044020c        0x0 d:/mingw/bin/../lib/gcc/mingw32/4.5.2/../../../libkernel32.a(dchds00606.o)
 .data          0x0044020c        0x0 d:/mingw/bin/../lib/gcc/mingw32/4.5.2/../../../libkernel32.a(dchds01173.o)
 .data          0x0044020c        0x0 d:/mingw/bin/../lib/gcc/mingw32/4.5.2/../../../libkernel32.a(dchds00207.o)
 .data          0x0044020c        0x0 d:/mingw/bin/../lib/gcc/mingw32/4.5.2/../../../libkernel32.a(dchds00734.o)
 .data          0x0044020c        0x0 d:/mingw/bin/../lib/gcc/mingw32/4.5.2/../../../libkernel32.a(dchds00236.o)
 .data          0x0044020c        0x0 d:/mingw/bin/../lib/gcc/mingw32/4.5.2/../../../libkernel32.a(dchds00814.o)
 .data          0x0044020c        0x0 d:/mingw/bin/../lib/gcc/mingw32/4.5.2/../../../libkernel32.a(dchdh.o)
 .data          0x0044020c        0x0 d:/mingw/bin/../lib/gcc/mingw32/4.5.2/../../../libkernel32.a(dchdt.o)
 .data          0x0044020c        0x0 d:/mingw/bin/../lib/gcc/mingw32/4.5.2/crtend.o
 *(.data2)
 *(SORT(.data$*))
 *(.jcr)
 .jcr           0x0044020c        0x0 d:/mingw/bin/../lib/gcc/mingw32/4.5.2/crtbegin.o
 .jcr           0x0044020c        0x4 d:/mingw/bin/../lib/gcc/mingw32/4.5.2/crtend.o
                0x00440210                __data_end__ = .
 *(.data_cygwin_nocopy)

.rdata          0x00441000    0x10200
 *(.rdata)
 .rdata         0x00441000       0x64 d:/mingw/bin/../lib/gcc/mingw32/4.5.2/crtbegin.o
 .rdata         0x00441064       0x14 be_nos_s.o
                0x00441064                be_default_protocol
                0x00441074                appname
 .rdata         0x00441078      0x21c cmdline.o
 *fill*         0x00441294        0xc 00
 .rdata         0x004412a0     0x36a0 config.o
 .rdata         0x00444940       0x84 dialog.o
 .rdata         0x004449c4       0x18 ldisc.o
 .rdata         0x004449dc      0x264 logging.o
 .rdata         0x00444c40     0x2da0 minibidi.o
                0x00445a00                shapetypes
 .rdata         0x004479e0      0x1e0 misc.o
 .rdata         0x00447bc0       0x4c nocproxy.o
 .rdata         0x00447c0c       0x20 nogss.o
                0x00447c0c                ngsslibs
                0x00447c18                gsslibnames
                0x00447c1c                gsslibkeywords
 *fill*         0x00447c2c       0x14 00
 .rdata         0x00447c40      0x600 proxy.o
 .rdata         0x00448240       0x78 raw.o
 .rdata         0x004482b8       0xb0 rlogin.o
 *fill*         0x00448368       0x18 00
 .rdata         0x00448380      0x2a0 sercfg.o
 .rdata         0x00448620      0xf80 settings.o
                0x004490e0                ttymodes
 .rdata         0x004495a0       0x14 sizetip.o
 *fill*         0x004495b4        0xc 00
 .rdata         0x004495c0      0xa60 telnet.o
 .rdata         0x0044a020      0xcc0 terminal.o
                0x0044aa5a                sco2ansicolour
                0x0044aa62                sel_nl
 .rdata         0x0044ace0       0x40 tree234.o
 .rdata         0x0044ad20      0x8c0 wcwidth.o
 .rdata         0x0044b5e0      0xb0c wincfg.o
 .rdata         0x0044c0ec      0x53c winctrls.o
 .rdata         0x0044c628       0x38 windefs.o
 .rdata         0x0044c660      0x8a0 windlg.o
 .rdata         0x0044cf00      0xaa0 window.o
 .rdata         0x0044d9a0       0x58 winhandl.o
 .rdata         0x0044d9f8       0x28 winhelp.o
 .rdata         0x0044da20      0x120 winjump.o
 .rdata         0x0044db40       0x34 winmisc.o
 *fill*         0x0044db74        0xc 00
 .rdata         0x0044db80      0xc40 winnet.o
                0x0044df8c                in6addr_any
                0x0044df9c                in6addr_loopback
 .rdata         0x0044e7c0       0x20 winprint.o
 .rdata         0x0044e7e0       0xc0 winproxy.o
 .rdata         0x0044e8a0      0x248 winser.o
 .rdata         0x0044eae8      0x3d4 winstore.o
 *fill*         0x0044eebc        0x4 00
 .rdata         0x0044eec0     0x1e80 winucs.o
 .rdata         0x00450d40      0x260 winutils.o
 .rdata         0x00450fa0       0x40 d:/mingw/bin/../lib/gcc/mingw32/4.5.2/../../../libmingw32.a(tlssup.o)
                0x00450fdc                __dyn_tls_init_callback
 .rdata         0x00450fe0       0xac d:/mingw/bin/../lib/gcc/mingw32/4.5.2/../../../libmingw32.a(pseudo-reloc.o)
 *(SORT(.rdata$*))
                0x0045108c                __rt_psrelocs_start = .
 *(.rdata_runtime_pseudo_reloc)
                0x0045108c                __rt_psrelocs_end = .
                0x00000000                __rt_psrelocs_size = (__rt_psrelocs_end - __rt_psrelocs_start)
                0x0045108c                ___RUNTIME_PSEUDO_RELOC_LIST_END__ = .
                0x0045108c                __RUNTIME_PSEUDO_RELOC_LIST_END__ = .
                0x0045108c                ___RUNTIME_PSEUDO_RELOC_LIST__ = (. - __rt_psrelocs_size)
                0x0045108c                __RUNTIME_PSEUDO_RELOC_LIST__ = (. - __rt_psrelocs_size)

.eh_frame       0x00452000      0x200
 *(.eh_frame*)
 .eh_frame      0x00452000        0x0 d:/mingw/bin/../lib/gcc/mingw32/4.5.2/crtbegin.o
 .eh_frame      0x00452000        0x4 d:/mingw/bin/../lib/gcc/mingw32/4.5.2/crtend.o

.pdata
 *(.pdata)

.bss            0x00453000     0x5514
                0x00453000                __bss_start__ = .
 *(.bss)
 .bss           0x00453000        0x8 d:/mingw/bin/../lib/gcc/mingw32/4.5.2/../../../crt2.o
                0x00453000                _argc
                0x00453004                _argv
 .bss           0x00453008       0x18 d:/mingw/bin/../lib/gcc/mingw32/4.5.2/crtbegin.o
 .bss           0x00453020        0x0 be_nos_s.o
 .bss           0x00453020       0x24 cmdline.o
                0x00453020                cmdline_tooltype
 .bss           0x00453044        0x0 config.o
 .bss           0x00453044        0x0 dialog.o
 .bss           0x00453044        0x0 ldisc.o
 .bss           0x00453044        0x0 ldiscucs.o
 .bss           0x00453044        0x0 logging.o
 .bss           0x00453044        0x0 minibidi.o
 .bss           0x00453044        0x0 misc.o
 .bss           0x00453044        0x0 nocproxy.o
 .bss           0x00453044        0x0 nogss.o
 .bss           0x00453044        0x0 pinger.o
 .bss           0x00453044        0x0 proxy.o
 .bss           0x00453044        0x0 raw.o
 .bss           0x00453044        0x0 rlogin.o
 .bss           0x00453044        0x0 sercfg.o
 .bss           0x00453044        0x0 settings.o
 .bss           0x00453044       0x18 sizetip.o
 .bss           0x0045305c        0x0 telnet.o
 .bss           0x0045305c        0x0 terminal.o
 .bss           0x0045305c        0xc timing.o
 .bss           0x00453068        0x0 tree234.o
 .bss           0x00453068        0x0 version.o
 .bss           0x00453068        0x0 wcwidth.o
 .bss           0x00453068        0x0 wincfg.o
 *fill*         0x00453068       0x18 00
 .bss           0x00453080       0x80 winctrls.o
 .bss           0x00453100        0x0 windefs.o
 .bss           0x00453100      0x120 windlg.o
 .bss           0x00453220     0x15a0 window.o
 .bss           0x004547c0        0x4 winhandl.o
 .bss           0x004547c4        0xc winhelp.o
 *fill*         0x004547d0       0x10 00
 .bss           0x004547e0      0x800 winjump.o
 .bss           0x00454fe0       0x14 winmisc.o
 *fill*         0x00454ff4        0xc 00
 .bss           0x00455000      0x700 winnet.o
 .bss           0x00455700        0x0 winprint.o
 .bss           0x00455700        0x0 winproxy.o
 .bss           0x00455700        0x0 winser.o
 .bss           0x00455700        0xc winstore.o
 .bss           0x0045570c        0x0 wintime.o
 *fill*         0x0045570c       0x14 00
 .bss           0x00455720       0x40 winucs.o
 .bss           0x00455760        0x0 winutils.o
 .bss           0x00455760        0x0 d:/mingw/bin/../lib/gcc/mingw32/4.5.2/../../../libadvapi32.a(dgxgs00245.o)
 .bss           0x00455760        0x0 d:/mingw/bin/../lib/gcc/mingw32/4.5.2/../../../libadvapi32.a(dgxgs00393.o)
 .bss           0x00455760        0x0 d:/mingw/bin/../lib/gcc/mingw32/4.5.2/../../../libadvapi32.a(dgxgs00400.o)
 .bss           0x00455760        0x0 d:/mingw/bin/../lib/gcc/mingw32/4.5.2/../../../libadvapi32.a(dgxgs00412.o)
 .bss           0x00455760        0x0 d:/mingw/bin/../lib/gcc/mingw32/4.5.2/../../../libadvapi32.a(dgxgs00386.o)
 .bss           0x00455760        0x0 d:/mingw/bin/../lib/gcc/mingw32/4.5.2/../../../libadvapi32.a(dgxgs00423.o)
 .bss           0x00455760        0x0 d:/mingw/bin/../lib/gcc/mingw32/4.5.2/../../../libadvapi32.a(dgxgs00389.o)
 .bss           0x00455760        0x0 d:/mingw/bin/../lib/gcc/mingw32/4.5.2/../../../libadvapi32.a(dgxgs00434.o)
 .bss           0x00455760        0x0 d:/mingw/bin/../lib/gcc/mingw32/4.5.2/../../../libadvapi32.a(dgxgs00390.o)
 .bss           0x00455760        0x0 d:/mingw/bin/../lib/gcc/mingw32/4.5.2/../../../libadvapi32.a(dgxgs00397.o)
 .bss           0x00455760        0x0 d:/mingw/bin/../lib/gcc/mingw32/4.5.2/../../../libadvapi32.a(dgxgh.o)
 .bss           0x00455760        0x0 d:/mingw/bin/../lib/gcc/mingw32/4.5.2/../../../libadvapi32.a(dgxgt.o)
 .bss           0x00455760        0x0 d:/mingw/bin/../lib/gcc/mingw32/4.5.2/../../../libcomctl32.a(dqqhs00098.o)
 .bss           0x00455760        0x0 d:/mingw/bin/../lib/gcc/mingw32/4.5.2/../../../libcomctl32.a(dqqhs00097.o)
 .bss           0x00455760        0x0 d:/mingw/bin/../lib/gcc/mingw32/4.5.2/../../../libcomctl32.a(dqqhs00042.o)
 .bss           0x00455760        0x0 d:/mingw/bin/../lib/gcc/mingw32/4.5.2/../../../libcomctl32.a(dqqhs00094.o)
 .bss           0x00455760        0x0 d:/mingw/bin/../lib/gcc/mingw32/4.5.2/../../../libcomctl32.a(dqqhh.o)
 .bss           0x00455760        0x0 d:/mingw/bin/../lib/gcc/mingw32/4.5.2/../../../libcomctl32.a(dqqht.o)
 .bss           0x00455760        0x0 d:/mingw/bin/../lib/gcc/mingw32/4.5.2/../../../libcomdlg32.a(demds00002.o)
 .bss           0x00455760        0x0 d:/mingw/bin/../lib/gcc/mingw32/4.5.2/../../../libcomdlg32.a(demds00000.o)
 .bss           0x00455760        0x0 d:/mingw/bin/../lib/gcc/mingw32/4.5.2/../../../libcomdlg32.a(demds00011.o)
 .bss           0x00455760        0x0 d:/mingw/bin/../lib/gcc/mingw32/4.5.2/../../../libcomdlg32.a(demds00009.o)
 .bss           0x00455760        0x0 d:/mingw/bin/../lib/gcc/mingw32/4.5.2/../../../libcomdlg32.a(demdh.o)
 .bss           0x00455760        0x0 d:/mingw/bin/../lib/gcc/mingw32/4.5.2/../../../libcomdlg32.a(demdt.o)
 .bss           0x00455760        0x0 d:/mingw/bin/../lib/gcc/mingw32/4.5.2/../../../libgdi32.a(dkfhs00034.o)
 .bss           0x00455760        0x0 d:/mingw/bin/../lib/gcc/mingw32/4.5.2/../../../libgdi32.a(dkfhs00281.o)
 .bss           0x00455760        0x0 d:/mingw/bin/../lib/gcc/mingw32/4.5.2/../../../libgdi32.a(dkfhs00213.o)
 .bss           0x00455760        0x0 d:/mingw/bin/../lib/gcc/mingw32/4.5.2/../../../libgdi32.a(dkfhs00070.o)
 .bss           0x00455760        0x0 d:/mingw/bin/../lib/gcc/mingw32/4.5.2/../../../libgdi32.a(dkfhs00073.o)
 .bss           0x00455760        0x0 d:/mingw/bin/../lib/gcc/mingw32/4.5.2/../../../libgdi32.a(dkfhs00201.o)
 .bss           0x00455760        0x0 d:/mingw/bin/../lib/gcc/mingw32/4.5.2/../../../libgdi32.a(dkfhs00067.o)
 .bss           0x00455760        0x0 d:/mingw/bin/../lib/gcc/mingw32/4.5.2/../../../libgdi32.a(dkfhs00263.o)
 .bss           0x00455760        0x0 d:/mingw/bin/../lib/gcc/mingw32/4.5.2/../../../libgdi32.a(dkfhs00323.o)
 .bss           0x00455760        0x0 d:/mingw/bin/../lib/gcc/mingw32/4.5.2/../../../libgdi32.a(dkfhs00287.o)
 .bss           0x00455760        0x0 d:/mingw/bin/../lib/gcc/mingw32/4.5.2/../../../libgdi32.a(dkfhs00339.o)
 .bss           0x00455760        0x0 d:/mingw/bin/../lib/gcc/mingw32/4.5.2/../../../libgdi32.a(dkfhs00047.o)
 .bss           0x00455760        0x0 d:/mingw/bin/../lib/gcc/mingw32/4.5.2/../../../libgdi32.a(dkfhs00148.o)
 .bss           0x00455760        0x0 d:/mingw/bin/../lib/gcc/mingw32/4.5.2/../../../libgdi32.a(dkfhs00306.o)
 .bss           0x00455760        0x0 d:/mingw/bin/../lib/gcc/mingw32/4.5.2/../../../libgdi32.a(dkfhs00210.o)
 .bss           0x00455760        0x0 d:/mingw/bin/../lib/gcc/mingw32/4.5.2/../../../libgdi32.a(dkfhs00046.o)
 .bss           0x00455760        0x0 d:/mingw/bin/../lib/gcc/mingw32/4.5.2/../../../libgdi32.a(dkfhs00219.o)
 .bss           0x00455760        0x0 d:/mingw/bin/../lib/gcc/mingw32/4.5.2/../../../libgdi32.a(dkfhs00126.o)
 .bss           0x00455760        0x0 d:/mingw/bin/../lib/gcc/mingw32/4.5.2/../../../libgdi32.a(dkfhs00185.o)
 .bss           0x00455760        0x0 d:/mingw/bin/../lib/gcc/mingw32/4.5.2/../../../libgdi32.a(dkfhs00341.o)
 .bss           0x00455760        0x0 d:/mingw/bin/../lib/gcc/mingw32/4.5.2/../../../libgdi32.a(dkfhs00033.o)
 .bss           0x00455760        0x0 d:/mingw/bin/../lib/gcc/mingw32/4.5.2/../../../libgdi32.a(dkfhs00321.o)
 .bss           0x00455760        0x0 d:/mingw/bin/../lib/gcc/mingw32/4.5.2/../../../libgdi32.a(dkfhs00288.o)
 .bss           0x00455760        0x0 d:/mingw/bin/../lib/gcc/mingw32/4.5.2/../../../libgdi32.a(dkfhs00102.o)
 .bss           0x00455760        0x0 d:/mingw/bin/../lib/gcc/mingw32/4.5.2/../../../libgdi32.a(dkfhs00192.o)
 .bss           0x00455760        0x0 d:/mingw/bin/../lib/gcc/mingw32/4.5.2/../../../libgdi32.a(dkfhs00056.o)
 .bss           0x00455760        0x0 d:/mingw/bin/../lib/gcc/mingw32/4.5.2/../../../libgdi32.a(dkfhs00282.o)
 .bss           0x00455760        0x0 d:/mingw/bin/../lib/gcc/mingw32/4.5.2/../../../libgdi32.a(dkfhs00260.o)
 .bss           0x00455760        0x0 d:/mingw/bin/../lib/gcc/mingw32/4.5.2/../../../libgdi32.a(dkfhs00058.o)
 .bss           0x00455760        0x0 d:/mingw/bin/../lib/gcc/mingw32/4.5.2/../../../libgdi32.a(dkfhs00234.o)
 .bss           0x00455760        0x0 d:/mingw/bin/../lib/gcc/mingw32/4.5.2/../../../libgdi32.a(dkfhs00231.o)
 .bss           0x00455760        0x0 d:/mingw/bin/../lib/gcc/mingw32/4.5.2/../../../libgdi32.a(dkfhs00136.o)
 .bss           0x00455760        0x0 d:/mingw/bin/../lib/gcc/mingw32/4.5.2/../../../libgdi32.a(dkfhs00122.o)
 .bss           0x00455760        0x0 d:/mingw/bin/../lib/gcc/mingw32/4.5.2/../../../libgdi32.a(dkfhs00103.o)
 .bss           0x00455760        0x0 d:/mingw/bin/../lib/gcc/mingw32/4.5.2/../../../libgdi32.a(dkfhs00312.o)
 .bss           0x00455760        0x0 d:/mingw/bin/../lib/gcc/mingw32/4.5.2/../../../libgdi32.a(dkfhs00256.o)
 .bss           0x00455760        0x0 d:/mingw/bin/../lib/gcc/mingw32/4.5.2/../../../libgdi32.a(dkfhs00130.o)
 .bss           0x00455760        0x0 d:/mingw/bin/../lib/gcc/mingw32/4.5.2/../../../libgdi32.a(dkfhs00134.o)
 .bss           0x00455760        0x0 d:/mingw/bin/../lib/gcc/mingw32/4.5.2/../../../libgdi32.a(dkfhs00129.o)
 .bss           0x00455760        0x0 d:/mingw/bin/../lib/gcc/mingw32/4.5.2/../../../libgdi32.a(dkfhs00131.o)
 .bss           0x00455760        0x0 d:/mingw/bin/../lib/gcc/mingw32/4.5.2/../../../libgdi32.a(dkfhs00028.o)
 .bss           0x00455760        0x0 d:/mingw/bin/../lib/gcc/mingw32/4.5.2/../../../libgdi32.a(dkfhs00311.o)
 .bss           0x00455760        0x0 d:/mingw/bin/../lib/gcc/mingw32/4.5.2/../../../libgdi32.a(dkfhs00342.o)
 .bss           0x00455760        0x0 d:/mingw/bin/../lib/gcc/mingw32/4.5.2/../../../libgdi32.a(dkfhs00227.o)
 .bss           0x00455760        0x0 d:/mingw/bin/../lib/gcc/mingw32/4.5.2/../../../libgdi32.a(dkfhs00096.o)
 .bss           0x00455760        0x0 d:/mingw/bin/../lib/gcc/mingw32/4.5.2/../../../libgdi32.a(dkfhs00343.o)
 .bss           0x00455760        0x0 d:/mingw/bin/../lib/gcc/mingw32/4.5.2/../../../libgdi32.a(dkfhh.o)
 .bss           0x00455760        0x0 d:/mingw/bin/../lib/gcc/mingw32/4.5.2/../../../libgdi32.a(dkfht.o)
 .bss           0x00455760        0x0 d:/mingw/bin/../lib/gcc/mingw32/4.5.2/../../../libimm32.a(dkrgs00025.o)
 .bss           0x00455760        0x0 d:/mingw/bin/../lib/gcc/mingw32/4.5.2/../../../libimm32.a(dkrgs00065.o)
 .bss           0x00455760        0x0 d:/mingw/bin/../lib/gcc/mingw32/4.5.2/../../../libimm32.a(dkrgs00059.o)
 .bss           0x00455760        0x0 d:/mingw/bin/../lib/gcc/mingw32/4.5.2/../../../libimm32.a(dkrgs00023.o)
 .bss           0x00455760        0x0 d:/mingw/bin/../lib/gcc/mingw32/4.5.2/../../../libimm32.a(dkrgs00061.o)
 .bss           0x00455760        0x0 d:/mingw/bin/../lib/gcc/mingw32/4.5.2/../../../libimm32.a(dkrgh.o)
 .bss           0x00455760        0x0 d:/mingw/bin/../lib/gcc/mingw32/4.5.2/../../../libimm32.a(dkrgt.o)
 .bss           0x00455760        0x0 d:/mingw/bin/../lib/gcc/mingw32/4.5.2/../../../libole32.a(dyads00072.o)
 .bss           0x00455760        0x0 d:/mingw/bin/../lib/gcc/mingw32/4.5.2/../../../libole32.a(dyads00037.o)
 .bss           0x00455760        0x0 d:/mingw/bin/../lib/gcc/mingw32/4.5.2/../../../libole32.a(dyads00012.o)
 .bss           0x00455760        0x0 d:/mingw/bin/../lib/gcc/mingw32/4.5.2/../../../libole32.a(dyadh.o)
 .bss           0x00455760        0x0 d:/mingw/bin/../lib/gcc/mingw32/4.5.2/../../../libole32.a(dyadt.o)
 .bss           0x00455760        0x0 d:/mingw/bin/../lib/gcc/mingw32/4.5.2/../../../libshell32.a(dukis00144.o)
 .bss           0x00455760        0x0 d:/mingw/bin/../lib/gcc/mingw32/4.5.2/../../../libshell32.a(dukih.o)
 .bss           0x00455760        0x0 d:/mingw/bin/../lib/gcc/mingw32/4.5.2/../../../libshell32.a(dukit.o)
 .bss           0x00455760        0x0 d:/mingw/bin/../lib/gcc/mingw32/4.5.2/../../../libuser32.a(daois00134.o)
 .bss           0x00455760        0x0 d:/mingw/bin/../lib/gcc/mingw32/4.5.2/../../../libuser32.a(daois00572.o)
 .bss           0x00455760        0x0 d:/mingw/bin/../lib/gcc/mingw32/4.5.2/../../../libuser32.a(daois00370.o)
 .bss           0x00455760        0x0 d:/mingw/bin/../lib/gcc/mingw32/4.5.2/../../../libuser32.a(daois00011.o)
 .bss           0x00455760        0x0 d:/mingw/bin/../lib/gcc/mingw32/4.5.2/../../../libuser32.a(daois00236.o)
 .bss           0x00455760        0x0 d:/mingw/bin/../lib/gcc/mingw32/4.5.2/../../../libuser32.a(daois00351.o)
 .bss           0x00455760        0x0 d:/mingw/bin/../lib/gcc/mingw32/4.5.2/../../../libuser32.a(daois00350.o)
 .bss           0x00455760        0x0 d:/mingw/bin/../lib/gcc/mingw32/4.5.2/../../../libuser32.a(daois00184.o)
 .bss           0x00455760        0x0 d:/mingw/bin/../lib/gcc/mingw32/4.5.2/../../../libuser32.a(daois00574.o)
 .bss           0x00455760        0x0 d:/mingw/bin/../lib/gcc/mingw32/4.5.2/../../../libuser32.a(daois00323.o)
 .bss           0x00455760        0x0 d:/mingw/bin/../lib/gcc/mingw32/4.5.2/../../../libuser32.a(daois00591.o)
 .bss           0x00455760        0x0 d:/mingw/bin/../lib/gcc/mingw32/4.5.2/../../../libuser32.a(daois00348.o)
 .bss           0x00455760        0x0 d:/mingw/bin/../lib/gcc/mingw32/4.5.2/../../../libuser32.a(daois00090.o)
 .bss           0x00455760        0x0 d:/mingw/bin/../lib/gcc/mingw32/4.5.2/../../../libuser32.a(daois00585.o)
 .bss           0x00455760        0x0 d:/mingw/bin/../lib/gcc/mingw32/4.5.2/../../../libuser32.a(daois00479.o)
 .bss           0x00455760        0x0 d:/mingw/bin/../lib/gcc/mingw32/4.5.2/../../../libuser32.a(daois00144.o)
 .bss           0x00455760        0x0 d:/mingw/bin/../lib/gcc/mingw32/4.5.2/../../../libuser32.a(daois00225.o)
 .bss           0x00455760        0x0 d:/mingw/bin/../lib/gcc/mingw32/4.5.2/../../../libuser32.a(daois00505.o)
 .bss           0x00455760        0x0 d:/mingw/bin/../lib/gcc/mingw32/4.5.2/../../../libuser32.a(daois00508.o)
 .bss           0x00455760        0x0 d:/mingw/bin/../lib/gcc/mingw32/4.5.2/../../../libuser32.a(daois00426.o)
 .bss           0x00455760        0x0 d:/mingw/bin/../lib/gcc/mingw32/4.5.2/../../../libuser32.a(daois00248.o)
 .bss           0x00455760        0x0 d:/mingw/bin/../lib/gcc/mingw32/4.5.2/../../../libuser32.a(daois00494.o)
 .bss           0x00455760        0x0 d:/mingw/bin/../lib/gcc/mingw32/4.5.2/../../../libuser32.a(daois00569.o)
 .bss           0x00455760        0x0 d:/mingw/bin/../lib/gcc/mingw32/4.5.2/../../../libuser32.a(daois00433.o)
 .bss           0x00455760        0x0 d:/mingw/bin/../lib/gcc/mingw32/4.5.2/../../../libuser32.a(daois00056.o)
 .bss           0x00455760        0x0 d:/mingw/bin/../lib/gcc/mingw32/4.5.2/../../../libuser32.a(daois00386.o)
 .bss           0x00455760        0x0 d:/mingw/bin/../lib/gcc/mingw32/4.5.2/../../../libuser32.a(daois00053.o)
 .bss           0x00455760        0x0 d:/mingw/bin/../lib/gcc/mingw32/4.5.2/../../../libuser32.a(daois00530.o)
 .bss           0x00455760        0x0 d:/mingw/bin/../lib/gcc/mingw32/4.5.2/../../../libuser32.a(daois00255.o)
 .bss           0x00455760        0x0 d:/mingw/bin/../lib/gcc/mingw32/4.5.2/../../../libuser32.a(daois00253.o)
 .bss           0x00455760        0x0 d:/mingw/bin/../lib/gcc/mingw32/4.5.2/../../../libuser32.a(daois00533.o)
 .bss           0x00455760        0x0 d:/mingw/bin/../lib/gcc/mingw32/4.5.2/../../../libuser32.a(daois00434.o)
 .bss           0x00455760        0x0 d:/mingw/bin/../lib/gcc/mingw32/4.5.2/../../../libuser32.a(daois00491.o)
 .bss           0x00455760        0x0 d:/mingw/bin/../lib/gcc/mingw32/4.5.2/../../../libuser32.a(daois00163.o)
 .bss           0x00455760        0x0 d:/mingw/bin/../lib/gcc/mingw32/4.5.2/../../../libuser32.a(daois00517.o)
 .bss           0x00455760        0x0 d:/mingw/bin/../lib/gcc/mingw32/4.5.2/../../../libuser32.a(daois00182.o)
 .bss           0x00455760        0x0 d:/mingw/bin/../lib/gcc/mingw32/4.5.2/../../../libuser32.a(daois00180.o)
 .bss           0x00455760        0x0 d:/mingw/bin/../lib/gcc/mingw32/4.5.2/../../../libuser32.a(daois00147.o)
 .bss           0x00455760        0x0 d:/mingw/bin/../lib/gcc/mingw32/4.5.2/../../../libuser32.a(daois00516.o)
 .bss           0x00455760        0x0 d:/mingw/bin/../lib/gcc/mingw32/4.5.2/../../../libuser32.a(daois00304.o)
 .bss           0x00455760        0x0 d:/mingw/bin/../lib/gcc/mingw32/4.5.2/../../../libuser32.a(daois00127.o)
 .bss           0x00455760        0x0 d:/mingw/bin/../lib/gcc/mingw32/4.5.2/../../../libuser32.a(daois00405.o)
 .bss           0x00455760        0x0 d:/mingw/bin/../lib/gcc/mingw32/4.5.2/../../../libuser32.a(daois00080.o)
 .bss           0x00455760        0x0 d:/mingw/bin/../lib/gcc/mingw32/4.5.2/../../../libuser32.a(daois00293.o)
 .bss           0x00455760        0x0 d:/mingw/bin/../lib/gcc/mingw32/4.5.2/../../../libuser32.a(daois00342.o)
 .bss           0x00455760        0x0 d:/mingw/bin/../lib/gcc/mingw32/4.5.2/../../../libuser32.a(daois00384.o)
 .bss           0x00455760        0x0 d:/mingw/bin/../lib/gcc/mingw32/4.5.2/../../../libuser32.a(daois00149.o)
 .bss           0x00455760        0x0 d:/mingw/bin/../lib/gcc/mingw32/4.5.2/../../../libuser32.a(daois00468.o)
 .bss           0x00455760        0x0 d:/mingw/bin/../lib/gcc/mingw32/4.5.2/../../../libuser32.a(daois00347.o)
 .bss           0x00455760        0x0 d:/mingw/bin/../lib/gcc/mingw32/4.5.2/../../../libuser32.a(daois00571.o)
 .bss           0x00455760        0x0 d:/mingw/bin/../lib/gcc/mingw32/4.5.2/../../../libuser32.a(daois00493.o)
 .bss           0x00455760        0x0 d:/mingw/bin/../lib/gcc/mingw32/4.5.2/../../../libuser32.a(daois00409.o)
 .bss           0x00455760        0x0 d:/mingw/bin/../lib/gcc/mingw32/4.5.2/../../../libuser32.a(daois00250.o)
 .bss           0x00455760        0x0 d:/mingw/bin/../lib/gcc/mingw32/4.5.2/../../../libuser32.a(daois00224.o)
 .bss           0x00455760        0x0 d:/mingw/bin/../lib/gcc/mingw32/4.5.2/../../../libuser32.a(daois00445.o)
 .bss           0x00455760        0x0 d:/mingw/bin/../lib/gcc/mingw32/4.5.2/../../../libuser32.a(daois00214.o)
 .bss           0x00455760        0x0 d:/mingw/bin/../lib/gcc/mingw32/4.5.2/../../../libuser32.a(daois00455.o)
 .bss           0x00455760        0x0 d:/mingw/bin/../lib/gcc/mingw32/4.5.2/../../../libuser32.a(daois00238.o)
 .bss           0x00455760        0x0 d:/mingw/bin/../lib/gcc/mingw32/4.5.2/../../../libuser32.a(daois00061.o)
 .bss           0x00455760        0x0 d:/mingw/bin/../lib/gcc/mingw32/4.5.2/../../../libuser32.a(daois00398.o)
 .bss           0x00455760        0x0 d:/mingw/bin/../lib/gcc/mingw32/4.5.2/../../../libuser32.a(daois00519.o)
 .bss           0x00455760        0x0 d:/mingw/bin/../lib/gcc/mingw32/4.5.2/../../../libuser32.a(daois00520.o)
 .bss           0x00455760        0x0 d:/mingw/bin/../lib/gcc/mingw32/4.5.2/../../../libuser32.a(daois00525.o)
 .bss           0x00455760        0x0 d:/mingw/bin/../lib/gcc/mingw32/4.5.2/../../../libuser32.a(daois00582.o)
 .bss           0x00455760        0x0 d:/mingw/bin/../lib/gcc/mingw32/4.5.2/../../../libuser32.a(daois00137.o)
 .bss           0x00455760        0x0 d:/mingw/bin/../lib/gcc/mingw32/4.5.2/../../../libuser32.a(daois00006.o)
 .bss           0x00455760        0x0 d:/mingw/bin/../lib/gcc/mingw32/4.5.2/../../../libuser32.a(daois00273.o)
 .bss           0x00455760        0x0 d:/mingw/bin/../lib/gcc/mingw32/4.5.2/../../../libuser32.a(daois00054.o)
 .bss           0x00455760        0x0 d:/mingw/bin/../lib/gcc/mingw32/4.5.2/../../../libuser32.a(daois00089.o)
 .bss           0x00455760        0x0 d:/mingw/bin/../lib/gcc/mingw32/4.5.2/../../../libuser32.a(daois00364.o)
 .bss           0x00455760        0x0 d:/mingw/bin/../lib/gcc/mingw32/4.5.2/../../../libuser32.a(daois00400.o)
 .bss           0x00455760        0x0 d:/mingw/bin/../lib/gcc/mingw32/4.5.2/../../../libuser32.a(daois00563.o)
 .bss           0x00455760        0x0 d:/mingw/bin/../lib/gcc/mingw32/4.5.2/../../../libuser32.a(daois00389.o)
 .bss           0x00455760        0x0 d:/mingw/bin/../lib/gcc/mingw32/4.5.2/../../../libuser32.a(daois00074.o)
 .bss           0x00455760        0x0 d:/mingw/bin/../lib/gcc/mingw32/4.5.2/../../../libuser32.a(daois00554.o)
 .bss           0x00455760        0x0 d:/mingw/bin/../lib/gcc/mingw32/4.5.2/../../../libuser32.a(daois00257.o)
 .bss           0x00455760        0x0 d:/mingw/bin/../lib/gcc/mingw32/4.5.2/../../../libuser32.a(daois00325.o)
 .bss           0x00455760        0x0 d:/mingw/bin/../lib/gcc/mingw32/4.5.2/../../../libuser32.a(daois00088.o)
 .bss           0x00455760        0x0 d:/mingw/bin/../lib/gcc/mingw32/4.5.2/../../../libuser32.a(daois00269.o)
 .bss           0x00455760        0x0 d:/mingw/bin/../lib/gcc/mingw32/4.5.2/../../../libuser32.a(daois00534.o)
 .bss           0x00455760        0x0 d:/mingw/bin/../lib/gcc/mingw32/4.5.2/../../../libuser32.a(daois00259.o)
 .bss           0x00455760        0x0 d:/mingw/bin/../lib/gcc/mingw32/4.5.2/../../../libuser32.a(daois00622.o)
 .bss           0x00455760        0x0 d:/mingw/bin/../lib/gcc/mingw32/4.5.2/../../../libuser32.a(daois00446.o)
 .bss           0x00455760        0x0 d:/mingw/bin/../lib/gcc/mingw32/4.5.2/../../../libuser32.a(daois00464.o)
 .bss           0x00455760        0x0 d:/mingw/bin/../lib/gcc/mingw32/4.5.2/../../../libuser32.a(daois00394.o)
 .bss           0x00455760        0x0 d:/mingw/bin/../lib/gcc/mingw32/4.5.2/../../../libuser32.a(daois00177.o)
 .bss           0x00455760        0x0 d:/mingw/bin/../lib/gcc/mingw32/4.5.2/../../../libuser32.a(daois00523.o)
 .bss           0x00455760        0x0 d:/mingw/bin/../lib/gcc/mingw32/4.5.2/../../../libuser32.a(daois00483.o)
 .bss           0x00455760        0x0 d:/mingw/bin/../lib/gcc/mingw32/4.5.2/../../../libuser32.a(daois00358.o)
 .bss           0x00455760        0x0 d:/mingw/bin/../lib/gcc/mingw32/4.5.2/../../../libuser32.a(daois00581.o)
 .bss           0x00455760        0x0 d:/mingw/bin/../lib/gcc/mingw32/4.5.2/../../../libuser32.a(daois00247.o)
 .bss           0x00455760        0x0 d:/mingw/bin/../lib/gcc/mingw32/4.5.2/../../../libuser32.a(daois00296.o)
 .bss           0x00455760        0x0 d:/mingw/bin/../lib/gcc/mingw32/4.5.2/../../../libuser32.a(daois00608.o)
 .bss           0x00455760        0x0 d:/mingw/bin/../lib/gcc/mingw32/4.5.2/../../../libuser32.a(daois00140.o)
 .bss           0x00455760        0x0 d:/mingw/bin/../lib/gcc/mingw32/4.5.2/../../../libuser32.a(daois00535.o)
 .bss           0x00455760        0x0 d:/mingw/bin/../lib/gcc/mingw32/4.5.2/../../../libuser32.a(daois00598.o)
 .bss           0x00455760        0x0 d:/mingw/bin/../lib/gcc/mingw32/4.5.2/../../../libuser32.a(daois00500.o)
 .bss           0x00455760        0x0 d:/mingw/bin/../lib/gcc/mingw32/4.5.2/../../../libuser32.a(daois00602.o)
 .bss           0x00455760        0x0 d:/mingw/bin/../lib/gcc/mingw32/4.5.2/../../../libuser32.a(daois00178.o)
 .bss           0x00455760        0x0 d:/mingw/bin/../lib/gcc/mingw32/4.5.2/../../../libuser32.a(daois00466.o)
 .bss           0x00455760        0x0 d:/mingw/bin/../lib/gcc/mingw32/4.5.2/../../../libuser32.a(daois00632.o)
 .bss           0x00455760        0x0 d:/mingw/bin/../lib/gcc/mingw32/4.5.2/../../../libuser32.a(daois00437.o)
 .bss           0x00455760        0x0 d:/mingw/bin/../lib/gcc/mingw32/4.5.2/../../../libuser32.a(daoih.o)
 .bss           0x00455760        0x0 d:/mingw/bin/../lib/gcc/mingw32/4.5.2/../../../libuser32.a(daoit.o)
 .bss           0x00455760        0x0 d:/mingw/bin/../lib/gcc/mingw32/4.5.2/../../../libwinmm.a(dopcs00008.o)
 .bss           0x00455760        0x0 d:/mingw/bin/../lib/gcc/mingw32/4.5.2/../../../libwinmm.a(dopch.o)
 .bss           0x00455760        0x0 d:/mingw/bin/../lib/gcc/mingw32/4.5.2/../../../libwinmm.a(dopct.o)
 .bss           0x00455760        0x0 d:/mingw/bin/../lib/gcc/mingw32/4.5.2/../../../libwinspool.a(dykds00078.o)
 .bss           0x00455760        0x0 d:/mingw/bin/../lib/gcc/mingw32/4.5.2/../../../libwinspool.a(dykds00102.o)
 .bss           0x00455760        0x0 d:/mingw/bin/../lib/gcc/mingw32/4.5.2/../../../libwinspool.a(dykds00126.o)
 .bss           0x00455760        0x0 d:/mingw/bin/../lib/gcc/mingw32/4.5.2/../../../libwinspool.a(dykds00128.o)
 .bss           0x00455760        0x0 d:/mingw/bin/../lib/gcc/mingw32/4.5.2/../../../libwinspool.a(dykds00059.o)
 .bss           0x00455760        0x0 d:/mingw/bin/../lib/gcc/mingw32/4.5.2/../../../libwinspool.a(dykds00025.o)
 .bss           0x00455760        0x0 d:/mingw/bin/../lib/gcc/mingw32/4.5.2/../../../libwinspool.a(dykds00130.o)
 .bss           0x00455760        0x0 d:/mingw/bin/../lib/gcc/mingw32/4.5.2/../../../libwinspool.a(dykds00060.o)
 .bss           0x00455760        0x0 d:/mingw/bin/../lib/gcc/mingw32/4.5.2/../../../libwinspool.a(dykdh.o)
 .bss           0x00455760        0x0 d:/mingw/bin/../lib/gcc/mingw32/4.5.2/../../../libwinspool.a(dykdt.o)
 .bss           0x00455760       0x20 d:/mingw/bin/../lib/gcc/mingw32/4.5.2/../../../libmingw32.a(tlssup.o)
                0x00455760                _tls_index
                0x00455764                mingw_initltsdrot_force
                0x00455768                mingw_initltsdyn_force
                0x0045576c                mingw_initltssuo_force
 .bss           0x00455780        0x0 d:/mingw/bin/../lib/gcc/mingw32/4.5.2/../../../libmingw32.a(CRTglob.o)
 .bss           0x00455780        0x4 d:/mingw/bin/../lib/gcc/mingw32/4.5.2/../../../libmingw32.a(CRTfmode.o)
                0x00455780                _CRT_fmode
 .bss           0x00455784        0x0 d:/mingw/bin/../lib/gcc/mingw32/4.5.2/../../../libmingw32.a(txtmode.o)
 .bss           0x00455784        0x4 d:/mingw/bin/../lib/gcc/mingw32/4.5.2/../../../libmingw32.a(cpu_features.o)
                0x00455784                __cpu_features
 .bss           0x00455788       0x10 d:/mingw/bin/../lib/gcc/mingw32/4.5.2/../../../libmingw32.a(pseudo-reloc.o)
 .bss           0x00455798       0x10 d:/mingw/bin/../lib/gcc/mingw32/4.5.2/../../../libmingw32.a(gccmain.o)
 .bss           0x004557a8        0x0 d:/mingw/bin/../lib/gcc/mingw32/4.5.2/../../../libmingw32.a(main.o)
 .bss           0x004557a8        0x0 d:/mingw/bin/../lib/gcc/mingw32/4.5.2/../../../libmingw32.a(CRT_fp10.o)
 .bss           0x004557a8        0x4 d:/mingw/bin/../lib/gcc/mingw32/4.5.2/../../../libmingw32.a(crtst.o)
                0x004557a8                _CRT_MT
 *fill*         0x004557ac        0x4 00
 .bss           0x004557b0       0x40 d:/mingw/bin/../lib/gcc/mingw32/4.5.2/../../../libmingw32.a(tlsthrd.o)
 .bss           0x004557f0        0x4 d:/mingw/bin/../lib/gcc/mingw32/4.5.2/../../../libmingw32.a(pseudo-reloc-list.o)
 .bss           0x004557f4        0x0 d:/mingw/bin/../lib/gcc/mingw32/4.5.2/libgcc.a(_chkstk.o)
 .bss           0x004557f4        0x0 d:/mingw/bin/../lib/gcc/mingw32/4.5.2/libgcc.a(_ctors.o)
 .bss           0x004557f4        0x0 d:/mingw/bin/../lib/gcc/mingw32/4.5.2/../../../libmoldname.a(dgzls00084.o)
 .bss           0x004557f4        0x0 d:/mingw/bin/../lib/gcc/mingw32/4.5.2/../../../libmoldname.a(dgzlh.o)
 .bss           0x004557f4        0x0 d:/mingw/bin/../lib/gcc/mingw32/4.5.2/../../../libmoldname.a(dgzlt.o)
 .bss           0x004557f4        0x0 d:/mingw/bin/../lib/gcc/mingw32/4.5.2/../../../libmsvcrt.a(duyms00590.o)
 .bss           0x004557f4        0x0 d:/mingw/bin/../lib/gcc/mingw32/4.5.2/../../../libmsvcrt.a(duyms00383.o)
 .bss           0x004557f4        0x0 d:/mingw/bin/../lib/gcc/mingw32/4.5.2/../../../libmsvcrt.a(duyms00266.o)
 .bss           0x004557f4        0x0 d:/mingw/bin/../lib/gcc/mingw32/4.5.2/../../../libmsvcrt.a(duyms00099.o)
 .bss           0x004557f4        0x0 d:/mingw/bin/../lib/gcc/mingw32/4.5.2/../../../libmsvcrt.a(duyms00055.o)
 .bss           0x004557f4        0x0 d:/mingw/bin/../lib/gcc/mingw32/4.5.2/../../../libmsvcrt.a(duyms00079.o)
 .bss           0x004557f4        0x0 d:/mingw/bin/../lib/gcc/mingw32/4.5.2/../../../libmsvcrt.a(duyms00077.o)
 .bss           0x004557f4        0x0 d:/mingw/bin/../lib/gcc/mingw32/4.5.2/../../../libmsvcrt.a(duyms00147.o)
 .bss           0x004557f4        0x0 d:/mingw/bin/../lib/gcc/mingw32/4.5.2/../../../libmsvcrt.a(duyms00426.o)
 .bss           0x004557f4        0x0 d:/mingw/bin/../lib/gcc/mingw32/4.5.2/../../../libmsvcrt.a(duyms00706.o)
 .bss           0x004557f4        0x0 d:/mingw/bin/../lib/gcc/mingw32/4.5.2/../../../libmsvcrt.a(duyms00724.o)
 .bss           0x004557f4        0x0 d:/mingw/bin/../lib/gcc/mingw32/4.5.2/../../../libmsvcrt.a(duyms00715.o)
 .bss           0x004557f4        0x0 d:/mingw/bin/../lib/gcc/mingw32/4.5.2/../../../libmsvcrt.a(duyms00714.o)
 .bss           0x004557f4        0x0 d:/mingw/bin/../lib/gcc/mingw32/4.5.2/../../../libmsvcrt.a(duyms00723.o)
 .bss           0x004557f4        0x0 d:/mingw/bin/../lib/gcc/mingw32/4.5.2/../../../libmsvcrt.a(duyms00592.o)
 .bss           0x004557f4        0x0 d:/mingw/bin/../lib/gcc/mingw32/4.5.2/../../../libmsvcrt.a(duyms00618.o)
 .bss           0x004557f4        0x0 d:/mingw/bin/../lib/gcc/mingw32/4.5.2/../../../libmsvcrt.a(duyms00611.o)
 .bss           0x004557f4        0x0 d:/mingw/bin/../lib/gcc/mingw32/4.5.2/../../../libmsvcrt.a(duyms00607.o)
 .bss           0x004557f4        0x0 d:/mingw/bin/../lib/gcc/mingw32/4.5.2/../../../libmsvcrt.a(duyms00717.o)
 .bss           0x004557f4        0x0 d:/mingw/bin/../lib/gcc/mingw32/4.5.2/../../../libmsvcrt.a(duyms00683.o)
 .bss           0x004557f4        0x0 d:/mingw/bin/../lib/gcc/mingw32/4.5.2/../../../libmsvcrt.a(duyms00137.o)
 .bss           0x004557f4        0x0 d:/mingw/bin/../lib/gcc/mingw32/4.5.2/../../../libmsvcrt.a(duyms00709.o)
 .bss           0x004557f4        0x0 d:/mingw/bin/../lib/gcc/mingw32/4.5.2/../../../libmsvcrt.a(duyms00591.o)
 .bss           0x004557f4        0x0 d:/mingw/bin/../lib/gcc/mingw32/4.5.2/../../../libmsvcrt.a(duyms00392.o)
 .bss           0x004557f4        0x0 d:/mingw/bin/../lib/gcc/mingw32/4.5.2/../../../libmsvcrt.a(duyms00065.o)
 .bss           0x004557f4        0x0 d:/mingw/bin/../lib/gcc/mingw32/4.5.2/../../../libmsvcrt.a(duyms00268.o)
 .bss           0x004557f4        0x0 d:/mingw/bin/../lib/gcc/mingw32/4.5.2/../../../libmsvcrt.a(duyms00610.o)
 .bss           0x004557f4        0x0 d:/mingw/bin/../lib/gcc/mingw32/4.5.2/../../../libmsvcrt.a(duyms00633.o)
 .bss           0x004557f4        0x0 d:/mingw/bin/../lib/gcc/mingw32/4.5.2/../../../libmsvcrt.a(duyms00720.o)
 .bss           0x004557f4        0x0 d:/mingw/bin/../lib/gcc/mingw32/4.5.2/../../../libmsvcrt.a(duyms00742.o)
 .bss           0x004557f4        0x0 d:/mingw/bin/../lib/gcc/mingw32/4.5.2/../../../libmsvcrt.a(duyms00619.o)
 .bss           0x004557f4        0x0 d:/mingw/bin/../lib/gcc/mingw32/4.5.2/../../../libmsvcrt.a(duyms00732.o)
 .bss           0x004557f4        0x0 d:/mingw/bin/../lib/gcc/mingw32/4.5.2/../../../libmsvcrt.a(duyms00731.o)
 .bss           0x004557f4        0x0 d:/mingw/bin/../lib/gcc/mingw32/4.5.2/../../../libmsvcrt.a(duyms00676.o)
 .bss           0x004557f4        0x0 d:/mingw/bin/../lib/gcc/mingw32/4.5.2/../../../libmsvcrt.a(duyms00698.o)
 .bss           0x004557f4        0x0 d:/mingw/bin/../lib/gcc/mingw32/4.5.2/../../../libmsvcrt.a(duyms00490.o)
 .bss           0x004557f4        0x0 d:/mingw/bin/../lib/gcc/mingw32/4.5.2/../../../libmsvcrt.a(duyms00625.o)
 .bss           0x004557f4        0x0 d:/mingw/bin/../lib/gcc/mingw32/4.5.2/../../../libmsvcrt.a(duyms00613.o)
 .bss           0x004557f4        0x0 d:/mingw/bin/../lib/gcc/mingw32/4.5.2/../../../libmsvcrt.a(duyms00712.o)
 .bss           0x004557f4        0x0 d:/mingw/bin/../lib/gcc/mingw32/4.5.2/../../../libmsvcrt.a(duyms00726.o)
 .bss           0x004557f4        0x0 d:/mingw/bin/../lib/gcc/mingw32/4.5.2/../../../libmsvcrt.a(duyms00695.o)
 .bss           0x004557f4        0x0 d:/mingw/bin/../lib/gcc/mingw32/4.5.2/../../../libmsvcrt.a(duyms00713.o)
 .bss           0x004557f4        0x0 d:/mingw/bin/../lib/gcc/mingw32/4.5.2/../../../libmsvcrt.a(duyms00743.o)
 .bss           0x004557f4        0x0 d:/mingw/bin/../lib/gcc/mingw32/4.5.2/../../../libmsvcrt.a(duyms00604.o)
 .bss           0x004557f4        0x0 d:/mingw/bin/../lib/gcc/mingw32/4.5.2/../../../libmsvcrt.a(duyms00727.o)
 .bss           0x004557f4        0x0 d:/mingw/bin/../lib/gcc/mingw32/4.5.2/../../../libmsvcrt.a(duyms00718.o)
 .bss           0x004557f4        0x0 d:/mingw/bin/../lib/gcc/mingw32/4.5.2/../../../libmsvcrt.a(duyms00637.o)
 .bss           0x004557f4        0x0 d:/mingw/bin/../lib/gcc/mingw32/4.5.2/../../../libmsvcrt.a(duyms00621.o)
 .bss           0x004557f4        0x0 d:/mingw/bin/../lib/gcc/mingw32/4.5.2/../../../libmsvcrt.a(duyms00699.o)
 .bss           0x004557f4        0x0 d:/mingw/bin/../lib/gcc/mingw32/4.5.2/../../../libmsvcrt.a(duyms00538.o)
 .bss           0x004557f4        0x0 d:/mingw/bin/../lib/gcc/mingw32/4.5.2/../../../libmsvcrt.a(duyms00748.o)
 .bss           0x004557f4        0x0 d:/mingw/bin/../lib/gcc/mingw32/4.5.2/../../../libmsvcrt.a(duyms00583.o)
 .bss           0x004557f4        0x0 d:/mingw/bin/../lib/gcc/mingw32/4.5.2/../../../libmsvcrt.a(duyms00682.o)
 .bss           0x004557f4        0x0 d:/mingw/bin/../lib/gcc/mingw32/4.5.2/../../../libmsvcrt.a(duyms00595.o)
 .bss           0x004557f4        0x0 d:/mingw/bin/../lib/gcc/mingw32/4.5.2/../../../libmsvcrt.a(duymh.o)
 .bss           0x004557f4        0x0 d:/mingw/bin/../lib/gcc/mingw32/4.5.2/../../../libmsvcrt.a(duymt.o)
 .bss           0x004557f4        0x0 d:/mingw/bin/../lib/gcc/mingw32/4.5.2/../../../libkernel32.a(dchds01140.o)
 .bss           0x004557f4        0x0 d:/mingw/bin/../lib/gcc/mingw32/4.5.2/../../../libkernel32.a(dchds00279.o)
 .bss           0x004557f4        0x0 d:/mingw/bin/../lib/gcc/mingw32/4.5.2/../../../libkernel32.a(dchds00529.o)
 .bss           0x004557f4        0x0 d:/mingw/bin/../lib/gcc/mingw32/4.5.2/../../../libkernel32.a(dchds00577.o)
 .bss           0x004557f4        0x0 d:/mingw/bin/../lib/gcc/mingw32/4.5.2/../../../libkernel32.a(dchds00656.o)
 .bss           0x004557f4        0x0 d:/mingw/bin/../lib/gcc/mingw32/4.5.2/../../../libkernel32.a(dchds00859.o)
 .bss           0x004557f4        0x0 d:/mingw/bin/../lib/gcc/mingw32/4.5.2/../../../libkernel32.a(dchds00368.o)
 .bss           0x004557f4        0x0 d:/mingw/bin/../lib/gcc/mingw32/4.5.2/../../../libkernel32.a(dchds00563.o)
 .bss           0x004557f4        0x0 d:/mingw/bin/../lib/gcc/mingw32/4.5.2/../../../libkernel32.a(dchds00512.o)
 .bss           0x004557f4        0x0 d:/mingw/bin/../lib/gcc/mingw32/4.5.2/../../../libkernel32.a(dchds00860.o)
 .bss           0x004557f4        0x0 d:/mingw/bin/../lib/gcc/mingw32/4.5.2/../../../libkernel32.a(dchds00763.o)
 .bss           0x004557f4        0x0 d:/mingw/bin/../lib/gcc/mingw32/4.5.2/../../../libkernel32.a(dchds00844.o)
 .bss           0x004557f4        0x0 d:/mingw/bin/../lib/gcc/mingw32/4.5.2/../../../libkernel32.a(dchds01188.o)
 .bss           0x004557f4        0x0 d:/mingw/bin/../lib/gcc/mingw32/4.5.2/../../../libkernel32.a(dchds00082.o)
 .bss           0x004557f4        0x0 d:/mingw/bin/../lib/gcc/mingw32/4.5.2/../../../libkernel32.a(dchds00687.o)
 .bss           0x004557f4        0x0 d:/mingw/bin/../lib/gcc/mingw32/4.5.2/../../../libkernel32.a(dchds00698.o)
 .bss           0x004557f4        0x0 d:/mingw/bin/../lib/gcc/mingw32/4.5.2/../../../libkernel32.a(dchds00705.o)
 .bss           0x004557f4        0x0 d:/mingw/bin/../lib/gcc/mingw32/4.5.2/../../../libkernel32.a(dchds00694.o)
 .bss           0x004557f4        0x0 d:/mingw/bin/../lib/gcc/mingw32/4.5.2/../../../libkernel32.a(dchds01247.o)
 .bss           0x004557f4        0x0 d:/mingw/bin/../lib/gcc/mingw32/4.5.2/../../../libkernel32.a(dchds00179.o)
 .bss           0x004557f4        0x0 d:/mingw/bin/../lib/gcc/mingw32/4.5.2/../../../libkernel32.a(dchds00527.o)
 .bss           0x004557f4        0x0 d:/mingw/bin/../lib/gcc/mingw32/4.5.2/../../../libkernel32.a(dchds00163.o)
 .bss           0x004557f4        0x0 d:/mingw/bin/../lib/gcc/mingw32/4.5.2/../../../libkernel32.a(dchds00136.o)
 .bss           0x004557f4        0x0 d:/mingw/bin/../lib/gcc/mingw32/4.5.2/../../../libkernel32.a(dchds00054.o)
 .bss           0x004557f4        0x0 d:/mingw/bin/../lib/gcc/mingw32/4.5.2/../../../libkernel32.a(dchds01065.o)
 .bss           0x004557f4        0x0 d:/mingw/bin/../lib/gcc/mingw32/4.5.2/../../../libkernel32.a(dchds01223.o)
 .bss           0x004557f4        0x0 d:/mingw/bin/../lib/gcc/mingw32/4.5.2/../../../libkernel32.a(dchds01267.o)
 .bss           0x004557f4        0x0 d:/mingw/bin/../lib/gcc/mingw32/4.5.2/../../../libkernel32.a(dchds00510.o)
 .bss           0x004557f4        0x0 d:/mingw/bin/../lib/gcc/mingw32/4.5.2/../../../libkernel32.a(dchds00564.o)
 .bss           0x004557f4        0x0 d:/mingw/bin/../lib/gcc/mingw32/4.5.2/../../../libkernel32.a(dchds00129.o)
 .bss           0x004557f4        0x0 d:/mingw/bin/../lib/gcc/mingw32/4.5.2/../../../libkernel32.a(dchds00947.o)
 .bss           0x004557f4        0x0 d:/mingw/bin/../lib/gcc/mingw32/4.5.2/../../../libkernel32.a(dchds00671.o)
 .bss           0x004557f4        0x0 d:/mingw/bin/../lib/gcc/mingw32/4.5.2/../../../libkernel32.a(dchds00817.o)
 .bss           0x004557f4        0x0 d:/mingw/bin/../lib/gcc/mingw32/4.5.2/../../../libkernel32.a(dchds00619.o)
 .bss           0x004557f4        0x0 d:/mingw/bin/../lib/gcc/mingw32/4.5.2/../../../libkernel32.a(dchds00016.o)
 .bss           0x004557f4        0x0 d:/mingw/bin/../lib/gcc/mingw32/4.5.2/../../../libkernel32.a(dchds00608.o)
 .bss           0x004557f4        0x0 d:/mingw/bin/../lib/gcc/mingw32/4.5.2/../../../libkernel32.a(dchds00352.o)
 .bss           0x004557f4        0x0 d:/mingw/bin/../lib/gcc/mingw32/4.5.2/../../../libkernel32.a(dchds00160.o)
 .bss           0x004557f4        0x0 d:/mingw/bin/../lib/gcc/mingw32/4.5.2/../../../libkernel32.a(dchds01088.o)
 .bss           0x004557f4        0x0 d:/mingw/bin/../lib/gcc/mingw32/4.5.2/../../../libkernel32.a(dchds01010.o)
 .bss           0x004557f4        0x0 d:/mingw/bin/../lib/gcc/mingw32/4.5.2/../../../libkernel32.a(dchds00079.o)
 .bss           0x004557f4        0x0 d:/mingw/bin/../lib/gcc/mingw32/4.5.2/../../../libkernel32.a(dchds00386.o)
 .bss           0x004557f4        0x0 d:/mingw/bin/../lib/gcc/mingw32/4.5.2/../../../libkernel32.a(dchds01013.o)
 .bss           0x004557f4        0x0 d:/mingw/bin/../lib/gcc/mingw32/4.5.2/../../../libkernel32.a(dchds01014.o)
 .bss           0x004557f4        0x0 d:/mingw/bin/../lib/gcc/mingw32/4.5.2/../../../libkernel32.a(dchds00135.o)
 .bss           0x004557f4        0x0 d:/mingw/bin/../lib/gcc/mingw32/4.5.2/../../../libkernel32.a(dchds00473.o)
 .bss           0x004557f4        0x0 d:/mingw/bin/../lib/gcc/mingw32/4.5.2/../../../libkernel32.a(dchds00682.o)
 .bss           0x004557f4        0x0 d:/mingw/bin/../lib/gcc/mingw32/4.5.2/../../../libkernel32.a(dchds00511.o)
 .bss           0x004557f4        0x0 d:/mingw/bin/../lib/gcc/mingw32/4.5.2/../../../libkernel32.a(dchds00358.o)
 .bss           0x004557f4        0x0 d:/mingw/bin/../lib/gcc/mingw32/4.5.2/../../../libkernel32.a(dchds00444.o)
 .bss           0x004557f4        0x0 d:/mingw/bin/../lib/gcc/mingw32/4.5.2/../../../libkernel32.a(dchds01052.o)
 .bss           0x004557f4        0x0 d:/mingw/bin/../lib/gcc/mingw32/4.5.2/../../../libkernel32.a(dchds01215.o)
 .bss           0x004557f4        0x0 d:/mingw/bin/../lib/gcc/mingw32/4.5.2/../../../libkernel32.a(dchds01213.o)
 .bss           0x004557f4        0x0 d:/mingw/bin/../lib/gcc/mingw32/4.5.2/../../../libkernel32.a(dchds00388.o)
 .bss           0x004557f4        0x0 d:/mingw/bin/../lib/gcc/mingw32/4.5.2/../../../libkernel32.a(dchds00606.o)
 .bss           0x004557f4        0x0 d:/mingw/bin/../lib/gcc/mingw32/4.5.2/../../../libkernel32.a(dchds01173.o)
 .bss           0x004557f4        0x0 d:/mingw/bin/../lib/gcc/mingw32/4.5.2/../../../libkernel32.a(dchds00207.o)
 .bss           0x004557f4        0x0 d:/mingw/bin/../lib/gcc/mingw32/4.5.2/../../../libkernel32.a(dchds00734.o)
 .bss           0x004557f4        0x0 d:/mingw/bin/../lib/gcc/mingw32/4.5.2/../../../libkernel32.a(dchds00236.o)
 .bss           0x004557f4        0x0 d:/mingw/bin/../lib/gcc/mingw32/4.5.2/../../../libkernel32.a(dchds00814.o)
 .bss           0x004557f4        0x0 d:/mingw/bin/../lib/gcc/mingw32/4.5.2/../../../libkernel32.a(dchdh.o)
 .bss           0x004557f4        0x0 d:/mingw/bin/../lib/gcc/mingw32/4.5.2/../../../libkernel32.a(dchdt.o)
 .bss           0x004557f4        0x0 d:/mingw/bin/../lib/gcc/mingw32/4.5.2/crtend.o
 *(COMMON)
 *fill*         0x004557f4        0xc 00
 COMMON         0x00455800     0x2c2c window.o
                0x00455800                p_WSAEnumNetworkEvents
                0x00455804                p_WSAAsyncSelect
                0x00455808                loaded_session
                0x00455820                cfg
                0x004583fc                term
                0x00458400                p_select
                0x00458404                default_port
                0x00458408                hinst
                0x0045840c                logbox
                0x00458410                p_WSAGetLastError
                0x00458414                flags
                0x00458418                cmdline_session_name
                0x0045841c                hwnd
                0x00458420                logctx
                0x00458424                default_protocol
                0x00458428                p_WSAEventSelect
 *fill*         0x0045842c       0x14 00
 COMMON         0x00458440       0x94 winmisc.o
                0x00458440                osVersion
 COMMON         0x004584d4       0x30 d:/mingw/bin/../lib/gcc/mingw32/4.5.2/../../../libmingw32.a(tlssup.o)
                0x004584d4                __mingw_gMTKeyDtor
                0x004584e4                __mingw_gMTRemoveKeyDtor
                0x004584f4                __mingw_usemthread_dll
 COMMON         0x00458504       0x10 d:/mingw/bin/../lib/gcc/mingw32/4.5.2/libgcc.a(_ctors.o)
                0x00458514                __bss_end__ = .

.edata
 *(.edata)

/DISCARD/
 *(.debug$S)
 *(.debug$T)
 *(.debug$F)
 *(.drectve)
 *(.note.GNU-stack)
 *(.gnu.lto_*)

.idata          0x00459000     0x2400
 SORT(*)(.idata$2)
 .idata$2       0x00459000       0x14 d:/mingw/bin/../lib/gcc/mingw32/4.5.2/../../../libadvapi32.a(dgxgh.o)
                0x00459000                _head_libadvapi32_a
 .idata$2       0x00459014       0x14 d:/mingw/bin/../lib/gcc/mingw32/4.5.2/../../../libcomctl32.a(dqqhh.o)
                0x00459014                _head_libcomctl32_a
 .idata$2       0x00459028       0x14 d:/mingw/bin/../lib/gcc/mingw32/4.5.2/../../../libcomdlg32.a(demdh.o)
                0x00459028                _head_libcomdlg32_a
 .idata$2       0x0045903c       0x14 d:/mingw/bin/../lib/gcc/mingw32/4.5.2/../../../libgdi32.a(dkfhh.o)
                0x0045903c                _head_libgdi32_a
 .idata$2       0x00459050       0x14 d:/mingw/bin/../lib/gcc/mingw32/4.5.2/../../../libimm32.a(dkrgh.o)
                0x00459050                _head_libimm32_a
 .idata$2       0x00459064       0x14 d:/mingw/bin/../lib/gcc/mingw32/4.5.2/../../../libkernel32.a(dchdh.o)
                0x00459064                _head_libkernel32_a
 .idata$2       0x00459078       0x14 d:/mingw/bin/../lib/gcc/mingw32/4.5.2/../../../libmoldname.a(dgzlh.o)
                0x00459078                _head_libmoldname_a
 .idata$2       0x0045908c       0x14 d:/mingw/bin/../lib/gcc/mingw32/4.5.2/../../../libmsvcrt.a(duymh.o)
                0x0045908c                _head_libmsvcrt_a
 .idata$2       0x004590a0       0x14 d:/mingw/bin/../lib/gcc/mingw32/4.5.2/../../../libole32.a(dyadh.o)
                0x004590a0                _head_libole32_a
 .idata$2       0x004590b4       0x14 d:/mingw/bin/../lib/gcc/mingw32/4.5.2/../../../libshell32.a(dukih.o)
                0x004590b4                _head_libshell32_a
 .idata$2       0x004590c8       0x14 d:/mingw/bin/../lib/gcc/mingw32/4.5.2/../../../libuser32.a(daoih.o)
                0x004590c8                _head_libuser32_a
 .idata$2       0x004590dc       0x14 d:/mingw/bin/../lib/gcc/mingw32/4.5.2/../../../libwinmm.a(dopch.o)
                0x004590dc                _head_libwinmm_a
 .idata$2       0x004590f0       0x14 d:/mingw/bin/../lib/gcc/mingw32/4.5.2/../../../libwinspool.a(dykdh.o)
                0x004590f0                _head_libwinspool_a
 SORT(*)(.idata$3)
                0x00459104        0x4 LONG 0x0
                0x00459108        0x4 LONG 0x0
                0x0045910c        0x4 LONG 0x0
                0x00459110        0x4 LONG 0x0
                0x00459114        0x4 LONG 0x0
 SORT(*)(.idata$4)
 .idata$4       0x00459118        0x0 d:/mingw/bin/../lib/gcc/mingw32/4.5.2/../../../libadvapi32.a(dgxgh.o)
 .idata$4       0x00459118        0x4 d:/mingw/bin/../lib/gcc/mingw32/4.5.2/../../../libadvapi32.a(dgxgs00245.o)
 .idata$4       0x0045911c        0x4 d:/mingw/bin/../lib/gcc/mingw32/4.5.2/../../../libadvapi32.a(dgxgs00386.o)
 .idata$4       0x00459120        0x4 d:/mingw/bin/../lib/gcc/mingw32/4.5.2/../../../libadvapi32.a(dgxgs00389.o)
 .idata$4       0x00459124        0x4 d:/mingw/bin/../lib/gcc/mingw32/4.5.2/../../../libadvapi32.a(dgxgs00390.o)
 .idata$4       0x00459128        0x4 d:/mingw/bin/../lib/gcc/mingw32/4.5.2/../../../libadvapi32.a(dgxgs00393.o)
 .idata$4       0x0045912c        0x4 d:/mingw/bin/../lib/gcc/mingw32/4.5.2/../../../libadvapi32.a(dgxgs00397.o)
 .idata$4       0x00459130        0x4 d:/mingw/bin/../lib/gcc/mingw32/4.5.2/../../../libadvapi32.a(dgxgs00400.o)
 .idata$4       0x00459134        0x4 d:/mingw/bin/../lib/gcc/mingw32/4.5.2/../../../libadvapi32.a(dgxgs00412.o)
 .idata$4       0x00459138        0x4 d:/mingw/bin/../lib/gcc/mingw32/4.5.2/../../../libadvapi32.a(dgxgs00423.o)
 .idata$4       0x0045913c        0x4 d:/mingw/bin/../lib/gcc/mingw32/4.5.2/../../../libadvapi32.a(dgxgs00434.o)
 .idata$4       0x00459140        0x4 d:/mingw/bin/../lib/gcc/mingw32/4.5.2/../../../libadvapi32.a(dgxgt.o)
 .idata$4       0x00459144        0x0 d:/mingw/bin/../lib/gcc/mingw32/4.5.2/../../../libcomctl32.a(dqqhh.o)
 .idata$4       0x00459144        0x4 d:/mingw/bin/../lib/gcc/mingw32/4.5.2/../../../libcomctl32.a(dqqhs00042.o)
 .idata$4       0x00459148        0x4 d:/mingw/bin/../lib/gcc/mingw32/4.5.2/../../../libcomctl32.a(dqqhs00094.o)
 .idata$4       0x0045914c        0x4 d:/mingw/bin/../lib/gcc/mingw32/4.5.2/../../../libcomctl32.a(dqqhs00097.o)
 .idata$4       0x00459150        0x4 d:/mingw/bin/../lib/gcc/mingw32/4.5.2/../../../libcomctl32.a(dqqhs00098.o)
 .idata$4       0x00459154        0x4 d:/mingw/bin/../lib/gcc/mingw32/4.5.2/../../../libcomctl32.a(dqqht.o)
 .idata$4       0x00459158        0x0 d:/mingw/bin/../lib/gcc/mingw32/4.5.2/../../../libcomdlg32.a(demdh.o)
 .idata$4       0x00459158        0x4 d:/mingw/bin/../lib/gcc/mingw32/4.5.2/../../../libcomdlg32.a(demds00000.o)
 .idata$4       0x0045915c        0x4 d:/mingw/bin/../lib/gcc/mingw32/4.5.2/../../../libcomdlg32.a(demds00002.o)
 .idata$4       0x00459160        0x4 d:/mingw/bin/../lib/gcc/mingw32/4.5.2/../../../libcomdlg32.a(demds00009.o)
 .idata$4       0x00459164        0x4 d:/mingw/bin/../lib/gcc/mingw32/4.5.2/../../../libcomdlg32.a(demds00011.o)
 .idata$4       0x00459168        0x4 d:/mingw/bin/../lib/gcc/mingw32/4.5.2/../../../libcomdlg32.a(demdt.o)
 .idata$4       0x0045916c        0x0 d:/mingw/bin/../lib/gcc/mingw32/4.5.2/../../../libgdi32.a(dkfhh.o)
 .idata$4       0x0045916c        0x4 d:/mingw/bin/../lib/gcc/mingw32/4.5.2/../../../libgdi32.a(dkfhs00028.o)
 .idata$4       0x00459170        0x4 d:/mingw/bin/../lib/gcc/mingw32/4.5.2/../../../libgdi32.a(dkfhs00033.o)
 .idata$4       0x00459174        0x4 d:/mingw/bin/../lib/gcc/mingw32/4.5.2/../../../libgdi32.a(dkfhs00034.o)
 .idata$4       0x00459178        0x4 d:/mingw/bin/../lib/gcc/mingw32/4.5.2/../../../libgdi32.a(dkfhs00046.o)
 .idata$4       0x0045917c        0x4 d:/mingw/bin/../lib/gcc/mingw32/4.5.2/../../../libgdi32.a(dkfhs00047.o)
 .idata$4       0x00459180        0x4 d:/mingw/bin/../lib/gcc/mingw32/4.5.2/../../../libgdi32.a(dkfhs00056.o)
 .idata$4       0x00459184        0x4 d:/mingw/bin/../lib/gcc/mingw32/4.5.2/../../../libgdi32.a(dkfhs00058.o)
 .idata$4       0x00459188        0x4 d:/mingw/bin/../lib/gcc/mingw32/4.5.2/../../../libgdi32.a(dkfhs00067.o)
 .idata$4       0x0045918c        0x4 d:/mingw/bin/../lib/gcc/mingw32/4.5.2/../../../libgdi32.a(dkfhs00070.o)
 .idata$4       0x00459190        0x4 d:/mingw/bin/../lib/gcc/mingw32/4.5.2/../../../libgdi32.a(dkfhs00073.o)
 .idata$4       0x00459194        0x4 d:/mingw/bin/../lib/gcc/mingw32/4.5.2/../../../libgdi32.a(dkfhs00096.o)
 .idata$4       0x00459198        0x4 d:/mingw/bin/../lib/gcc/mingw32/4.5.2/../../../libgdi32.a(dkfhs00102.o)
 .idata$4       0x0045919c        0x4 d:/mingw/bin/../lib/gcc/mingw32/4.5.2/../../../libgdi32.a(dkfhs00103.o)
 .idata$4       0x004591a0        0x4 d:/mingw/bin/../lib/gcc/mingw32/4.5.2/../../../libgdi32.a(dkfhs00122.o)
 .idata$4       0x004591a4        0x4 d:/mingw/bin/../lib/gcc/mingw32/4.5.2/../../../libgdi32.a(dkfhs00126.o)
 .idata$4       0x004591a8        0x4 d:/mingw/bin/../lib/gcc/mingw32/4.5.2/../../../libgdi32.a(dkfhs00129.o)
 .idata$4       0x004591ac        0x4 d:/mingw/bin/../lib/gcc/mingw32/4.5.2/../../../libgdi32.a(dkfhs00130.o)
 .idata$4       0x004591b0        0x4 d:/mingw/bin/../lib/gcc/mingw32/4.5.2/../../../libgdi32.a(dkfhs00131.o)
 .idata$4       0x004591b4        0x4 d:/mingw/bin/../lib/gcc/mingw32/4.5.2/../../../libgdi32.a(dkfhs00134.o)
 .idata$4       0x004591b8        0x4 d:/mingw/bin/../lib/gcc/mingw32/4.5.2/../../../libgdi32.a(dkfhs00136.o)
 .idata$4       0x004591bc        0x4 d:/mingw/bin/../lib/gcc/mingw32/4.5.2/../../../libgdi32.a(dkfhs00148.o)
 .idata$4       0x004591c0        0x4 d:/mingw/bin/../lib/gcc/mingw32/4.5.2/../../../libgdi32.a(dkfhs00185.o)
 .idata$4       0x004591c4        0x4 d:/mingw/bin/../lib/gcc/mingw32/4.5.2/../../../libgdi32.a(dkfhs00192.o)
 .idata$4       0x004591c8        0x4 d:/mingw/bin/../lib/gcc/mingw32/4.5.2/../../../libgdi32.a(dkfhs00201.o)
 .idata$4       0x004591cc        0x4 d:/mingw/bin/../lib/gcc/mingw32/4.5.2/../../../libgdi32.a(dkfhs00210.o)
 .idata$4       0x004591d0        0x4 d:/mingw/bin/../lib/gcc/mingw32/4.5.2/../../../libgdi32.a(dkfhs00213.o)
 .idata$4       0x004591d4        0x4 d:/mingw/bin/../lib/gcc/mingw32/4.5.2/../../../libgdi32.a(dkfhs00219.o)
 .idata$4       0x004591d8        0x4 d:/mingw/bin/../lib/gcc/mingw32/4.5.2/../../../libgdi32.a(dkfhs00227.o)
 .idata$4       0x004591dc        0x4 d:/mingw/bin/../lib/gcc/mingw32/4.5.2/../../../libgdi32.a(dkfhs00231.o)
 .idata$4       0x004591e0        0x4 d:/mingw/bin/../lib/gcc/mingw32/4.5.2/../../../libgdi32.a(dkfhs00234.o)
 .idata$4       0x004591e4        0x4 d:/mingw/bin/../lib/gcc/mingw32/4.5.2/../../../libgdi32.a(dkfhs00256.o)
 .idata$4       0x004591e8        0x4 d:/mingw/bin/../lib/gcc/mingw32/4.5.2/../../../libgdi32.a(dkfhs00260.o)
 .idata$4       0x004591ec        0x4 d:/mingw/bin/../lib/gcc/mingw32/4.5.2/../../../libgdi32.a(dkfhs00263.o)
 .idata$4       0x004591f0        0x4 d:/mingw/bin/../lib/gcc/mingw32/4.5.2/../../../libgdi32.a(dkfhs00281.o)
 .idata$4       0x004591f4        0x4 d:/mingw/bin/../lib/gcc/mingw32/4.5.2/../../../libgdi32.a(dkfhs00282.o)
 .idata$4       0x004591f8        0x4 d:/mingw/bin/../lib/gcc/mingw32/4.5.2/../../../libgdi32.a(dkfhs00287.o)
 .idata$4       0x004591fc        0x4 d:/mingw/bin/../lib/gcc/mingw32/4.5.2/../../../libgdi32.a(dkfhs00288.o)
 .idata$4       0x00459200        0x4 d:/mingw/bin/../lib/gcc/mingw32/4.5.2/../../../libgdi32.a(dkfhs00306.o)
 .idata$4       0x00459204        0x4 d:/mingw/bin/../lib/gcc/mingw32/4.5.2/../../../libgdi32.a(dkfhs00311.o)
 .idata$4       0x00459208        0x4 d:/mingw/bin/../lib/gcc/mingw32/4.5.2/../../../libgdi32.a(dkfhs00312.o)
 .idata$4       0x0045920c        0x4 d:/mingw/bin/../lib/gcc/mingw32/4.5.2/../../../libgdi32.a(dkfhs00321.o)
 .idata$4       0x00459210        0x4 d:/mingw/bin/../lib/gcc/mingw32/4.5.2/../../../libgdi32.a(dkfhs00323.o)
 .idata$4       0x00459214        0x4 d:/mingw/bin/../lib/gcc/mingw32/4.5.2/../../../libgdi32.a(dkfhs00339.o)
 .idata$4       0x00459218        0x4 d:/mingw/bin/../lib/gcc/mingw32/4.5.2/../../../libgdi32.a(dkfhs00341.o)
 .idata$4       0x0045921c        0x4 d:/mingw/bin/../lib/gcc/mingw32/4.5.2/../../../libgdi32.a(dkfhs00342.o)
 .idata$4       0x00459220        0x4 d:/mingw/bin/../lib/gcc/mingw32/4.5.2/../../../libgdi32.a(dkfhs00343.o)
 .idata$4       0x00459224        0x4 d:/mingw/bin/../lib/gcc/mingw32/4.5.2/../../../libgdi32.a(dkfht.o)
 .idata$4       0x00459228        0x0 d:/mingw/bin/../lib/gcc/mingw32/4.5.2/../../../libimm32.a(dkrgh.o)
 .idata$4       0x00459228        0x4 d:/mingw/bin/../lib/gcc/mingw32/4.5.2/../../../libimm32.a(dkrgs00023.o)
 .idata$4       0x0045922c        0x4 d:/mingw/bin/../lib/gcc/mingw32/4.5.2/../../../libimm32.a(dkrgs00025.o)
 .idata$4       0x00459230        0x4 d:/mingw/bin/../lib/gcc/mingw32/4.5.2/../../../libimm32.a(dkrgs00059.o)
 .idata$4       0x00459234        0x4 d:/mingw/bin/../lib/gcc/mingw32/4.5.2/../../../libimm32.a(dkrgs00061.o)
 .idata$4       0x00459238        0x4 d:/mingw/bin/../lib/gcc/mingw32/4.5.2/../../../libimm32.a(dkrgs00065.o)
 .idata$4       0x0045923c        0x4 d:/mingw/bin/../lib/gcc/mingw32/4.5.2/../../../libimm32.a(dkrgt.o)
 .idata$4       0x00459240        0x0 d:/mingw/bin/../lib/gcc/mingw32/4.5.2/../../../libkernel32.a(dchdh.o)
 .idata$4       0x00459240        0x4 d:/mingw/bin/../lib/gcc/mingw32/4.5.2/../../../libkernel32.a(dchds00016.o)
 .idata$4       0x00459244        0x4 d:/mingw/bin/../lib/gcc/mingw32/4.5.2/../../../libkernel32.a(dchds00054.o)
 .idata$4       0x00459248        0x4 d:/mingw/bin/../lib/gcc/mingw32/4.5.2/../../../libkernel32.a(dchds00079.o)
 .idata$4       0x0045924c        0x4 d:/mingw/bin/../lib/gcc/mingw32/4.5.2/../../../libkernel32.a(dchds00082.o)
 .idata$4       0x00459250        0x4 d:/mingw/bin/../lib/gcc/mingw32/4.5.2/../../../libkernel32.a(dchds00129.o)
 .idata$4       0x00459254        0x4 d:/mingw/bin/../lib/gcc/mingw32/4.5.2/../../../libkernel32.a(dchds00135.o)
 .idata$4       0x00459258        0x4 d:/mingw/bin/../lib/gcc/mingw32/4.5.2/../../../libkernel32.a(dchds00136.o)
 .idata$4       0x0045925c        0x4 d:/mingw/bin/../lib/gcc/mingw32/4.5.2/../../../libkernel32.a(dchds00160.o)
 .idata$4       0x00459260        0x4 d:/mingw/bin/../lib/gcc/mingw32/4.5.2/../../../libkernel32.a(dchds00163.o)
 .idata$4       0x00459264        0x4 d:/mingw/bin/../lib/gcc/mingw32/4.5.2/../../../libkernel32.a(dchds00179.o)
 .idata$4       0x00459268        0x4 d:/mingw/bin/../lib/gcc/mingw32/4.5.2/../../../libkernel32.a(dchds00207.o)
 .idata$4       0x0045926c        0x4 d:/mingw/bin/../lib/gcc/mingw32/4.5.2/../../../libkernel32.a(dchds00236.o)
 .idata$4       0x00459270        0x4 d:/mingw/bin/../lib/gcc/mingw32/4.5.2/../../../libkernel32.a(dchds00279.o)
 .idata$4       0x00459274        0x4 d:/mingw/bin/../lib/gcc/mingw32/4.5.2/../../../libkernel32.a(dchds00352.o)
 .idata$4       0x00459278        0x4 d:/mingw/bin/../lib/gcc/mingw32/4.5.2/../../../libkernel32.a(dchds00358.o)
 .idata$4       0x0045927c        0x4 d:/mingw/bin/../lib/gcc/mingw32/4.5.2/../../../libkernel32.a(dchds00368.o)
 .idata$4       0x00459280        0x4 d:/mingw/bin/../lib/gcc/mingw32/4.5.2/../../../libkernel32.a(dchds00386.o)
 .idata$4       0x00459284        0x4 d:/mingw/bin/../lib/gcc/mingw32/4.5.2/../../../libkernel32.a(dchds00388.o)
 .idata$4       0x00459288        0x4 d:/mingw/bin/../lib/gcc/mingw32/4.5.2/../../../libkernel32.a(dchds00444.o)
 .idata$4       0x0045928c        0x4 d:/mingw/bin/../lib/gcc/mingw32/4.5.2/../../../libkernel32.a(dchds00473.o)
 .idata$4       0x00459290        0x4 d:/mingw/bin/../lib/gcc/mingw32/4.5.2/../../../libkernel32.a(dchds00510.o)
 .idata$4       0x00459294        0x4 d:/mingw/bin/../lib/gcc/mingw32/4.5.2/../../../libkernel32.a(dchds00511.o)
 .idata$4       0x00459298        0x4 d:/mingw/bin/../lib/gcc/mingw32/4.5.2/../../../libkernel32.a(dchds00512.o)
 .idata$4       0x0045929c        0x4 d:/mingw/bin/../lib/gcc/mingw32/4.5.2/../../../libkernel32.a(dchds00527.o)
 .idata$4       0x004592a0        0x4 d:/mingw/bin/../lib/gcc/mingw32/4.5.2/../../../libkernel32.a(dchds00529.o)
 .idata$4       0x004592a4        0x4 d:/mingw/bin/../lib/gcc/mingw32/4.5.2/../../../libkernel32.a(dchds00563.o)
 .idata$4       0x004592a8        0x4 d:/mingw/bin/../lib/gcc/mingw32/4.5.2/../../../libkernel32.a(dchds00564.o)
 .idata$4       0x004592ac        0x4 d:/mingw/bin/../lib/gcc/mingw32/4.5.2/../../../libkernel32.a(dchds00577.o)
 .idata$4       0x004592b0        0x4 d:/mingw/bin/../lib/gcc/mingw32/4.5.2/../../../libkernel32.a(dchds00606.o)
 .idata$4       0x004592b4        0x4 d:/mingw/bin/../lib/gcc/mingw32/4.5.2/../../../libkernel32.a(dchds00608.o)
 .idata$4       0x004592b8        0x4 d:/mingw/bin/../lib/gcc/mingw32/4.5.2/../../../libkernel32.a(dchds00619.o)
 .idata$4       0x004592bc        0x4 d:/mingw/bin/../lib/gcc/mingw32/4.5.2/../../../libkernel32.a(dchds00656.o)
 .idata$4       0x004592c0        0x4 d:/mingw/bin/../lib/gcc/mingw32/4.5.2/../../../libkernel32.a(dchds00671.o)
 .idata$4       0x004592c4        0x4 d:/mingw/bin/../lib/gcc/mingw32/4.5.2/../../../libkernel32.a(dchds00682.o)
 .idata$4       0x004592c8        0x4 d:/mingw/bin/../lib/gcc/mingw32/4.5.2/../../../libkernel32.a(dchds00687.o)
 .idata$4       0x004592cc        0x4 d:/mingw/bin/../lib/gcc/mingw32/4.5.2/../../../libkernel32.a(dchds00694.o)
 .idata$4       0x004592d0        0x4 d:/mingw/bin/../lib/gcc/mingw32/4.5.2/../../../libkernel32.a(dchds00698.o)
 .idata$4       0x004592d4        0x4 d:/mingw/bin/../lib/gcc/mingw32/4.5.2/../../../libkernel32.a(dchds00705.o)
 .idata$4       0x004592d8        0x4 d:/mingw/bin/../lib/gcc/mingw32/4.5.2/../../../libkernel32.a(dchds00734.o)
 .idata$4       0x004592dc        0x4 d:/mingw/bin/../lib/gcc/mingw32/4.5.2/../../../libkernel32.a(dchds00763.o)
 .idata$4       0x004592e0        0x4 d:/mingw/bin/../lib/gcc/mingw32/4.5.2/../../../libkernel32.a(dchds00814.o)
 .idata$4       0x004592e4        0x4 d:/mingw/bin/../lib/gcc/mingw32/4.5.2/../../../libkernel32.a(dchds00817.o)
 .idata$4       0x004592e8        0x4 d:/mingw/bin/../lib/gcc/mingw32/4.5.2/../../../libkernel32.a(dchds00844.o)
 .idata$4       0x004592ec        0x4 d:/mingw/bin/../lib/gcc/mingw32/4.5.2/../../../libkernel32.a(dchds00859.o)
 .idata$4       0x004592f0        0x4 d:/mingw/bin/../lib/gcc/mingw32/4.5.2/../../../libkernel32.a(dchds00860.o)
 .idata$4       0x004592f4        0x4 d:/mingw/bin/../lib/gcc/mingw32/4.5.2/../../../libkernel32.a(dchds00947.o)
 .idata$4       0x004592f8        0x4 d:/mingw/bin/../lib/gcc/mingw32/4.5.2/../../../libkernel32.a(dchds01010.o)
 .idata$4       0x004592fc        0x4 d:/mingw/bin/../lib/gcc/mingw32/4.5.2/../../../libkernel32.a(dchds01013.o)
 .idata$4       0x00459300        0x4 d:/mingw/bin/../lib/gcc/mingw32/4.5.2/../../../libkernel32.a(dchds01014.o)
 .idata$4       0x00459304        0x4 d:/mingw/bin/../lib/gcc/mingw32/4.5.2/../../../libkernel32.a(dchds01052.o)
 .idata$4       0x00459308        0x4 d:/mingw/bin/../lib/gcc/mingw32/4.5.2/../../../libkernel32.a(dchds01065.o)
 .idata$4       0x0045930c        0x4 d:/mingw/bin/../lib/gcc/mingw32/4.5.2/../../../libkernel32.a(dchds01088.o)
 .idata$4       0x00459310        0x4 d:/mingw/bin/../lib/gcc/mingw32/4.5.2/../../../libkernel32.a(dchds01140.o)
 .idata$4       0x00459314        0x4 d:/mingw/bin/../lib/gcc/mingw32/4.5.2/../../../libkernel32.a(dchds01173.o)
 .idata$4       0x00459318        0x4 d:/mingw/bin/../lib/gcc/mingw32/4.5.2/../../../libkernel32.a(dchds01188.o)
 .idata$4       0x0045931c        0x4 d:/mingw/bin/../lib/gcc/mingw32/4.5.2/../../../libkernel32.a(dchds01213.o)
 .idata$4       0x00459320        0x4 d:/mingw/bin/../lib/gcc/mingw32/4.5.2/../../../libkernel32.a(dchds01215.o)
 .idata$4       0x00459324        0x4 d:/mingw/bin/../lib/gcc/mingw32/4.5.2/../../../libkernel32.a(dchds01223.o)
 .idata$4       0x00459328        0x4 d:/mingw/bin/../lib/gcc/mingw32/4.5.2/../../../libkernel32.a(dchds01247.o)
 .idata$4       0x0045932c        0x4 d:/mingw/bin/../lib/gcc/mingw32/4.5.2/../../../libkernel32.a(dchds01267.o)
 .idata$4       0x00459330        0x4 d:/mingw/bin/../lib/gcc/mingw32/4.5.2/../../../libkernel32.a(dchdt.o)
 .idata$4       0x00459334        0x0 d:/mingw/bin/../lib/gcc/mingw32/4.5.2/../../../libmoldname.a(dgzlh.o)
 .idata$4       0x00459334        0x4 d:/mingw/bin/../lib/gcc/mingw32/4.5.2/../../../libmoldname.a(dgzls00084.o)
 .idata$4       0x00459338        0x4 d:/mingw/bin/../lib/gcc/mingw32/4.5.2/../../../libmoldname.a(dgzlt.o)
 .idata$4       0x0045933c        0x0 d:/mingw/bin/../lib/gcc/mingw32/4.5.2/../../../libmsvcrt.a(duymh.o)
 .idata$4       0x0045933c        0x4 d:/mingw/bin/../lib/gcc/mingw32/4.5.2/../../../libmsvcrt.a(duyms00055.o)
 .idata$4       0x00459340        0x4 d:/mingw/bin/../lib/gcc/mingw32/4.5.2/../../../libmsvcrt.a(duyms00065.o)
 .idata$4       0x00459344        0x4 d:/mingw/bin/../lib/gcc/mingw32/4.5.2/../../../libmsvcrt.a(duyms00077.o)
 .idata$4       0x00459348        0x4 d:/mingw/bin/../lib/gcc/mingw32/4.5.2/../../../libmsvcrt.a(duyms00079.o)
 .idata$4       0x0045934c        0x4 d:/mingw/bin/../lib/gcc/mingw32/4.5.2/../../../libmsvcrt.a(duyms00099.o)
 .idata$4       0x00459350        0x4 d:/mingw/bin/../lib/gcc/mingw32/4.5.2/../../../libmsvcrt.a(duyms00137.o)
 .idata$4       0x00459354        0x4 d:/mingw/bin/../lib/gcc/mingw32/4.5.2/../../../libmsvcrt.a(duyms00147.o)
 .idata$4       0x00459358        0x4 d:/mingw/bin/../lib/gcc/mingw32/4.5.2/../../../libmsvcrt.a(duyms00266.o)
 .idata$4       0x0045935c        0x4 d:/mingw/bin/../lib/gcc/mingw32/4.5.2/../../../libmsvcrt.a(duyms00268.o)
 .idata$4       0x00459360        0x4 d:/mingw/bin/../lib/gcc/mingw32/4.5.2/../../../libmsvcrt.a(duyms00383.o)
 .idata$4       0x00459364        0x4 d:/mingw/bin/../lib/gcc/mingw32/4.5.2/../../../libmsvcrt.a(duyms00392.o)
 .idata$4       0x00459368        0x4 d:/mingw/bin/../lib/gcc/mingw32/4.5.2/../../../libmsvcrt.a(duyms00426.o)
 .idata$4       0x0045936c        0x4 d:/mingw/bin/../lib/gcc/mingw32/4.5.2/../../../libmsvcrt.a(duyms00490.o)
 .idata$4       0x00459370        0x4 d:/mingw/bin/../lib/gcc/mingw32/4.5.2/../../../libmsvcrt.a(duyms00538.o)
 .idata$4       0x00459374        0x4 d:/mingw/bin/../lib/gcc/mingw32/4.5.2/../../../libmsvcrt.a(duyms00583.o)
 .idata$4       0x00459378        0x4 d:/mingw/bin/../lib/gcc/mingw32/4.5.2/../../../libmsvcrt.a(duyms00590.o)
 .idata$4       0x0045937c        0x4 d:/mingw/bin/../lib/gcc/mingw32/4.5.2/../../../libmsvcrt.a(duyms00591.o)
 .idata$4       0x00459380        0x4 d:/mingw/bin/../lib/gcc/mingw32/4.5.2/../../../libmsvcrt.a(duyms00592.o)
 .idata$4       0x00459384        0x4 d:/mingw/bin/../lib/gcc/mingw32/4.5.2/../../../libmsvcrt.a(duyms00595.o)
 .idata$4       0x00459388        0x4 d:/mingw/bin/../lib/gcc/mingw32/4.5.2/../../../libmsvcrt.a(duyms00604.o)
 .idata$4       0x0045938c        0x4 d:/mingw/bin/../lib/gcc/mingw32/4.5.2/../../../libmsvcrt.a(duyms00607.o)
 .idata$4       0x00459390        0x4 d:/mingw/bin/../lib/gcc/mingw32/4.5.2/../../../libmsvcrt.a(duyms00610.o)
 .idata$4       0x00459394        0x4 d:/mingw/bin/../lib/gcc/mingw32/4.5.2/../../../libmsvcrt.a(duyms00611.o)
 .idata$4       0x00459398        0x4 d:/mingw/bin/../lib/gcc/mingw32/4.5.2/../../../libmsvcrt.a(duyms00613.o)
 .idata$4       0x0045939c        0x4 d:/mingw/bin/../lib/gcc/mingw32/4.5.2/../../../libmsvcrt.a(duyms00618.o)
 .idata$4       0x004593a0        0x4 d:/mingw/bin/../lib/gcc/mingw32/4.5.2/../../../libmsvcrt.a(duyms00619.o)
 .idata$4       0x004593a4        0x4 d:/mingw/bin/../lib/gcc/mingw32/4.5.2/../../../libmsvcrt.a(duyms00621.o)
 .idata$4       0x004593a8        0x4 d:/mingw/bin/../lib/gcc/mingw32/4.5.2/../../../libmsvcrt.a(duyms00625.o)
 .idata$4       0x004593ac        0x4 d:/mingw/bin/../lib/gcc/mingw32/4.5.2/../../../libmsvcrt.a(duyms00633.o)
 .idata$4       0x004593b0        0x4 d:/mingw/bin/../lib/gcc/mingw32/4.5.2/../../../libmsvcrt.a(duyms00637.o)
 .idata$4       0x004593b4        0x4 d:/mingw/bin/../lib/gcc/mingw32/4.5.2/../../../libmsvcrt.a(duyms00676.o)
 .idata$4       0x004593b8        0x4 d:/mingw/bin/../lib/gcc/mingw32/4.5.2/../../../libmsvcrt.a(duyms00682.o)
 .idata$4       0x004593bc        0x4 d:/mingw/bin/../lib/gcc/mingw32/4.5.2/../../../libmsvcrt.a(duyms00683.o)
 .idata$4       0x004593c0        0x4 d:/mingw/bin/../lib/gcc/mingw32/4.5.2/../../../libmsvcrt.a(duyms00695.o)
 .idata$4       0x004593c4        0x4 d:/mingw/bin/../lib/gcc/mingw32/4.5.2/../../../libmsvcrt.a(duyms00698.o)
 .idata$4       0x004593c8        0x4 d:/mingw/bin/../lib/gcc/mingw32/4.5.2/../../../libmsvcrt.a(duyms00699.o)
 .idata$4       0x004593cc        0x4 d:/mingw/bin/../lib/gcc/mingw32/4.5.2/../../../libmsvcrt.a(duyms00706.o)
 .idata$4       0x004593d0        0x4 d:/mingw/bin/../lib/gcc/mingw32/4.5.2/../../../libmsvcrt.a(duyms00709.o)
 .idata$4       0x004593d4        0x4 d:/mingw/bin/../lib/gcc/mingw32/4.5.2/../../../libmsvcrt.a(duyms00712.o)
 .idata$4       0x004593d8        0x4 d:/mingw/bin/../lib/gcc/mingw32/4.5.2/../../../libmsvcrt.a(duyms00713.o)
 .idata$4       0x004593dc        0x4 d:/mingw/bin/../lib/gcc/mingw32/4.5.2/../../../libmsvcrt.a(duyms00714.o)
 .idata$4       0x004593e0        0x4 d:/mingw/bin/../lib/gcc/mingw32/4.5.2/../../../libmsvcrt.a(duyms00715.o)
 .idata$4       0x004593e4        0x4 d:/mingw/bin/../lib/gcc/mingw32/4.5.2/../../../libmsvcrt.a(duyms00717.o)
 .idata$4       0x004593e8        0x4 d:/mingw/bin/../lib/gcc/mingw32/4.5.2/../../../libmsvcrt.a(duyms00718.o)
 .idata$4       0x004593ec        0x4 d:/mingw/bin/../lib/gcc/mingw32/4.5.2/../../../libmsvcrt.a(duyms00720.o)
 .idata$4       0x004593f0        0x4 d:/mingw/bin/../lib/gcc/mingw32/4.5.2/../../../libmsvcrt.a(duyms00723.o)
 .idata$4       0x004593f4        0x4 d:/mingw/bin/../lib/gcc/mingw32/4.5.2/../../../libmsvcrt.a(duyms00724.o)
 .idata$4       0x004593f8        0x4 d:/mingw/bin/../lib/gcc/mingw32/4.5.2/../../../libmsvcrt.a(duyms00726.o)
 .idata$4       0x004593fc        0x4 d:/mingw/bin/../lib/gcc/mingw32/4.5.2/../../../libmsvcrt.a(duyms00727.o)
 .idata$4       0x00459400        0x4 d:/mingw/bin/../lib/gcc/mingw32/4.5.2/../../../libmsvcrt.a(duyms00731.o)
 .idata$4       0x00459404        0x4 d:/mingw/bin/../lib/gcc/mingw32/4.5.2/../../../libmsvcrt.a(duyms00732.o)
 .idata$4       0x00459408        0x4 d:/mingw/bin/../lib/gcc/mingw32/4.5.2/../../../libmsvcrt.a(duyms00742.o)
 .idata$4       0x0045940c        0x4 d:/mingw/bin/../lib/gcc/mingw32/4.5.2/../../../libmsvcrt.a(duyms00743.o)
 .idata$4       0x00459410        0x4 d:/mingw/bin/../lib/gcc/mingw32/4.5.2/../../../libmsvcrt.a(duyms00748.o)
 .idata$4       0x00459414        0x4 d:/mingw/bin/../lib/gcc/mingw32/4.5.2/../../../libmsvcrt.a(duymt.o)
 .idata$4       0x00459418        0x0 d:/mingw/bin/../lib/gcc/mingw32/4.5.2/../../../libole32.a(dyadh.o)
 .idata$4       0x00459418        0x4 d:/mingw/bin/../lib/gcc/mingw32/4.5.2/../../../libole32.a(dyads00012.o)
 .idata$4       0x0045941c        0x4 d:/mingw/bin/../lib/gcc/mingw32/4.5.2/../../../libole32.a(dyads00037.o)
 .idata$4       0x00459420        0x4 d:/mingw/bin/../lib/gcc/mingw32/4.5.2/../../../libole32.a(dyads00072.o)
 .idata$4       0x00459424        0x4 d:/mingw/bin/../lib/gcc/mingw32/4.5.2/../../../libole32.a(dyadt.o)
 .idata$4       0x00459428        0x0 d:/mingw/bin/../lib/gcc/mingw32/4.5.2/../../../libshell32.a(dukih.o)
 .idata$4       0x00459428        0x4 d:/mingw/bin/../lib/gcc/mingw32/4.5.2/../../../libshell32.a(dukis00144.o)
 .idata$4       0x0045942c        0x4 d:/mingw/bin/../lib/gcc/mingw32/4.5.2/../../../libshell32.a(dukit.o)
 .idata$4       0x00459430        0x0 d:/mingw/bin/../lib/gcc/mingw32/4.5.2/../../../libuser32.a(daoih.o)
 .idata$4       0x00459430        0x4 d:/mingw/bin/../lib/gcc/mingw32/4.5.2/../../../libuser32.a(daois00006.o)
 .idata$4       0x00459434        0x4 d:/mingw/bin/../lib/gcc/mingw32/4.5.2/../../../libuser32.a(daois00011.o)
 .idata$4       0x00459438        0x4 d:/mingw/bin/../lib/gcc/mingw32/4.5.2/../../../libuser32.a(daois00053.o)
 .idata$4       0x0045943c        0x4 d:/mingw/bin/../lib/gcc/mingw32/4.5.2/../../../libuser32.a(daois00054.o)
 .idata$4       0x00459440        0x4 d:/mingw/bin/../lib/gcc/mingw32/4.5.2/../../../libuser32.a(daois00056.o)
 .idata$4       0x00459444        0x4 d:/mingw/bin/../lib/gcc/mingw32/4.5.2/../../../libuser32.a(daois00061.o)
 .idata$4       0x00459448        0x4 d:/mingw/bin/../lib/gcc/mingw32/4.5.2/../../../libuser32.a(daois00074.o)
 .idata$4       0x0045944c        0x4 d:/mingw/bin/../lib/gcc/mingw32/4.5.2/../../../libuser32.a(daois00080.o)
 .idata$4       0x00459450        0x4 d:/mingw/bin/../lib/gcc/mingw32/4.5.2/../../../libuser32.a(daois00088.o)
 .idata$4       0x00459454        0x4 d:/mingw/bin/../lib/gcc/mingw32/4.5.2/../../../libuser32.a(daois00089.o)
 .idata$4       0x00459458        0x4 d:/mingw/bin/../lib/gcc/mingw32/4.5.2/../../../libuser32.a(daois00090.o)
 .idata$4       0x0045945c        0x4 d:/mingw/bin/../lib/gcc/mingw32/4.5.2/../../../libuser32.a(daois00127.o)
 .idata$4       0x00459460        0x4 d:/mingw/bin/../lib/gcc/mingw32/4.5.2/../../../libuser32.a(daois00134.o)
 .idata$4       0x00459464        0x4 d:/mingw/bin/../lib/gcc/mingw32/4.5.2/../../../libuser32.a(daois00137.o)
 .idata$4       0x00459468        0x4 d:/mingw/bin/../lib/gcc/mingw32/4.5.2/../../../libuser32.a(daois00140.o)
 .idata$4       0x0045946c        0x4 d:/mingw/bin/../lib/gcc/mingw32/4.5.2/../../../libuser32.a(daois00144.o)
 .idata$4       0x00459470        0x4 d:/mingw/bin/../lib/gcc/mingw32/4.5.2/../../../libuser32.a(daois00147.o)
 .idata$4       0x00459474        0x4 d:/mingw/bin/../lib/gcc/mingw32/4.5.2/../../../libuser32.a(daois00149.o)
 .idata$4       0x00459478        0x4 d:/mingw/bin/../lib/gcc/mingw32/4.5.2/../../../libuser32.a(daois00163.o)
 .idata$4       0x0045947c        0x4 d:/mingw/bin/../lib/gcc/mingw32/4.5.2/../../../libuser32.a(daois00177.o)
 .idata$4       0x00459480        0x4 d:/mingw/bin/../lib/gcc/mingw32/4.5.2/../../../libuser32.a(daois00178.o)
 .idata$4       0x00459484        0x4 d:/mingw/bin/../lib/gcc/mingw32/4.5.2/../../../libuser32.a(daois00180.o)
 .idata$4       0x00459488        0x4 d:/mingw/bin/../lib/gcc/mingw32/4.5.2/../../../libuser32.a(daois00182.o)
 .idata$4       0x0045948c        0x4 d:/mingw/bin/../lib/gcc/mingw32/4.5.2/../../../libuser32.a(daois00184.o)
 .idata$4       0x00459490        0x4 d:/mingw/bin/../lib/gcc/mingw32/4.5.2/../../../libuser32.a(daois00214.o)
 .idata$4       0x00459494        0x4 d:/mingw/bin/../lib/gcc/mingw32/4.5.2/../../../libuser32.a(daois00224.o)
 .idata$4       0x00459498        0x4 d:/mingw/bin/../lib/gcc/mingw32/4.5.2/../../../libuser32.a(daois00225.o)
 .idata$4       0x0045949c        0x4 d:/mingw/bin/../lib/gcc/mingw32/4.5.2/../../../libuser32.a(daois00236.o)
 .idata$4       0x004594a0        0x4 d:/mingw/bin/../lib/gcc/mingw32/4.5.2/../../../libuser32.a(daois00238.o)
 .idata$4       0x004594a4        0x4 d:/mingw/bin/../lib/gcc/mingw32/4.5.2/../../../libuser32.a(daois00247.o)
 .idata$4       0x004594a8        0x4 d:/mingw/bin/../lib/gcc/mingw32/4.5.2/../../../libuser32.a(daois00248.o)
 .idata$4       0x004594ac        0x4 d:/mingw/bin/../lib/gcc/mingw32/4.5.2/../../../libuser32.a(daois00250.o)
 .idata$4       0x004594b0        0x4 d:/mingw/bin/../lib/gcc/mingw32/4.5.2/../../../libuser32.a(daois00253.o)
 .idata$4       0x004594b4        0x4 d:/mingw/bin/../lib/gcc/mingw32/4.5.2/../../../libuser32.a(daois00255.o)
 .idata$4       0x004594b8        0x4 d:/mingw/bin/../lib/gcc/mingw32/4.5.2/../../../libuser32.a(daois00257.o)
 .idata$4       0x004594bc        0x4 d:/mingw/bin/../lib/gcc/mingw32/4.5.2/../../../libuser32.a(daois00259.o)
 .idata$4       0x004594c0        0x4 d:/mingw/bin/../lib/gcc/mingw32/4.5.2/../../../libuser32.a(daois00269.o)
 .idata$4       0x004594c4        0x4 d:/mingw/bin/../lib/gcc/mingw32/4.5.2/../../../libuser32.a(daois00273.o)
 .idata$4       0x004594c8        0x4 d:/mingw/bin/../lib/gcc/mingw32/4.5.2/../../../libuser32.a(daois00293.o)
 .idata$4       0x004594cc        0x4 d:/mingw/bin/../lib/gcc/mingw32/4.5.2/../../../libuser32.a(daois00296.o)
 .idata$4       0x004594d0        0x4 d:/mingw/bin/../lib/gcc/mingw32/4.5.2/../../../libuser32.a(daois00304.o)
 .idata$4       0x004594d4        0x4 d:/mingw/bin/../lib/gcc/mingw32/4.5.2/../../../libuser32.a(daois00323.o)
 .idata$4       0x004594d8        0x4 d:/mingw/bin/../lib/gcc/mingw32/4.5.2/../../../libuser32.a(daois00325.o)
 .idata$4       0x004594dc        0x4 d:/mingw/bin/../lib/gcc/mingw32/4.5.2/../../../libuser32.a(daois00342.o)
 .idata$4       0x004594e0        0x4 d:/mingw/bin/../lib/gcc/mingw32/4.5.2/../../../libuser32.a(daois00347.o)
 .idata$4       0x004594e4        0x4 d:/mingw/bin/../lib/gcc/mingw32/4.5.2/../../../libuser32.a(daois00348.o)
 .idata$4       0x004594e8        0x4 d:/mingw/bin/../lib/gcc/mingw32/4.5.2/../../../libuser32.a(daois00350.o)
 .idata$4       0x004594ec        0x4 d:/mingw/bin/../lib/gcc/mingw32/4.5.2/../../../libuser32.a(daois00351.o)
 .idata$4       0x004594f0        0x4 d:/mingw/bin/../lib/gcc/mingw32/4.5.2/../../../libuser32.a(daois00358.o)
 .idata$4       0x004594f4        0x4 d:/mingw/bin/../lib/gcc/mingw32/4.5.2/../../../libuser32.a(daois00364.o)
 .idata$4       0x004594f8        0x4 d:/mingw/bin/../lib/gcc/mingw32/4.5.2/../../../libuser32.a(daois00370.o)
 .idata$4       0x004594fc        0x4 d:/mingw/bin/../lib/gcc/mingw32/4.5.2/../../../libuser32.a(daois00384.o)
 .idata$4       0x00459500        0x4 d:/mingw/bin/../lib/gcc/mingw32/4.5.2/../../../libuser32.a(daois00386.o)
 .idata$4       0x00459504        0x4 d:/mingw/bin/../lib/gcc/mingw32/4.5.2/../../../libuser32.a(daois00389.o)
 .idata$4       0x00459508        0x4 d:/mingw/bin/../lib/gcc/mingw32/4.5.2/../../../libuser32.a(daois00394.o)
 .idata$4       0x0045950c        0x4 d:/mingw/bin/../lib/gcc/mingw32/4.5.2/../../../libuser32.a(daois00398.o)
 .idata$4       0x00459510        0x4 d:/mingw/bin/../lib/gcc/mingw32/4.5.2/../../../libuser32.a(daois00400.o)
 .idata$4       0x00459514        0x4 d:/mingw/bin/../lib/gcc/mingw32/4.5.2/../../../libuser32.a(daois00405.o)
 .idata$4       0x00459518        0x4 d:/mingw/bin/../lib/gcc/mingw32/4.5.2/../../../libuser32.a(daois00409.o)
 .idata$4       0x0045951c        0x4 d:/mingw/bin/../lib/gcc/mingw32/4.5.2/../../../libuser32.a(daois00426.o)
 .idata$4       0x00459520        0x4 d:/mingw/bin/../lib/gcc/mingw32/4.5.2/../../../libuser32.a(daois00433.o)
 .idata$4       0x00459524        0x4 d:/mingw/bin/../lib/gcc/mingw32/4.5.2/../../../libuser32.a(daois00434.o)
 .idata$4       0x00459528        0x4 d:/mingw/bin/../lib/gcc/mingw32/4.5.2/../../../libuser32.a(daois00437.o)
 .idata$4       0x0045952c        0x4 d:/mingw/bin/../lib/gcc/mingw32/4.5.2/../../../libuser32.a(daois00445.o)
 .idata$4       0x00459530        0x4 d:/mingw/bin/../lib/gcc/mingw32/4.5.2/../../../libuser32.a(daois00446.o)
 .idata$4       0x00459534        0x4 d:/mingw/bin/../lib/gcc/mingw32/4.5.2/../../../libuser32.a(daois00455.o)
 .idata$4       0x00459538        0x4 d:/mingw/bin/../lib/gcc/mingw32/4.5.2/../../../libuser32.a(daois00464.o)
 .idata$4       0x0045953c        0x4 d:/mingw/bin/../lib/gcc/mingw32/4.5.2/../../../libuser32.a(daois00466.o)
 .idata$4       0x00459540        0x4 d:/mingw/bin/../lib/gcc/mingw32/4.5.2/../../../libuser32.a(daois00468.o)
 .idata$4       0x00459544        0x4 d:/mingw/bin/../lib/gcc/mingw32/4.5.2/../../../libuser32.a(daois00479.o)
 .idata$4       0x00459548        0x4 d:/mingw/bin/../lib/gcc/mingw32/4.5.2/../../../libuser32.a(daois00483.o)
 .idata$4       0x0045954c        0x4 d:/mingw/bin/../lib/gcc/mingw32/4.5.2/../../../libuser32.a(daois00491.o)
 .idata$4       0x00459550        0x4 d:/mingw/bin/../lib/gcc/mingw32/4.5.2/../../../libuser32.a(daois00493.o)
 .idata$4       0x00459554        0x4 d:/mingw/bin/../lib/gcc/mingw32/4.5.2/../../../libuser32.a(daois00494.o)
 .idata$4       0x00459558        0x4 d:/mingw/bin/../lib/gcc/mingw32/4.5.2/../../../libuser32.a(daois00500.o)
 .idata$4       0x0045955c        0x4 d:/mingw/bin/../lib/gcc/mingw32/4.5.2/../../../libuser32.a(daois00505.o)
 .idata$4       0x00459560        0x4 d:/mingw/bin/../lib/gcc/mingw32/4.5.2/../../../libuser32.a(daois00508.o)
 .idata$4       0x00459564        0x4 d:/mingw/bin/../lib/gcc/mingw32/4.5.2/../../../libuser32.a(daois00516.o)
 .idata$4       0x00459568        0x4 d:/mingw/bin/../lib/gcc/mingw32/4.5.2/../../../libuser32.a(daois00517.o)
 .idata$4       0x0045956c        0x4 d:/mingw/bin/../lib/gcc/mingw32/4.5.2/../../../libuser32.a(daois00519.o)
 .idata$4       0x00459570        0x4 d:/mingw/bin/../lib/gcc/mingw32/4.5.2/../../../libuser32.a(daois00520.o)
 .idata$4       0x00459574        0x4 d:/mingw/bin/../lib/gcc/mingw32/4.5.2/../../../libuser32.a(daois00523.o)
 .idata$4       0x00459578        0x4 d:/mingw/bin/../lib/gcc/mingw32/4.5.2/../../../libuser32.a(daois00525.o)
 .idata$4       0x0045957c        0x4 d:/mingw/bin/../lib/gcc/mingw32/4.5.2/../../../libuser32.a(daois00530.o)
 .idata$4       0x00459580        0x4 d:/mingw/bin/../lib/gcc/mingw32/4.5.2/../../../libuser32.a(daois00533.o)
 .idata$4       0x00459584        0x4 d:/mingw/bin/../lib/gcc/mingw32/4.5.2/../../../libuser32.a(daois00534.o)
 .idata$4       0x00459588        0x4 d:/mingw/bin/../lib/gcc/mingw32/4.5.2/../../../libuser32.a(daois00535.o)
 .idata$4       0x0045958c        0x4 d:/mingw/bin/../lib/gcc/mingw32/4.5.2/../../../libuser32.a(daois00554.o)
 .idata$4       0x00459590        0x4 d:/mingw/bin/../lib/gcc/mingw32/4.5.2/../../../libuser32.a(daois00563.o)
 .idata$4       0x00459594        0x4 d:/mingw/bin/../lib/gcc/mingw32/4.5.2/../../../libuser32.a(daois00569.o)
 .idata$4       0x00459598        0x4 d:/mingw/bin/../lib/gcc/mingw32/4.5.2/../../../libuser32.a(daois00571.o)
 .idata$4       0x0045959c        0x4 d:/mingw/bin/../lib/gcc/mingw32/4.5.2/../../../libuser32.a(daois00572.o)
 .idata$4       0x004595a0        0x4 d:/mingw/bin/../lib/gcc/mingw32/4.5.2/../../../libuser32.a(daois00574.o)
 .idata$4       0x004595a4        0x4 d:/mingw/bin/../lib/gcc/mingw32/4.5.2/../../../libuser32.a(daois00581.o)
 .idata$4       0x004595a8        0x4 d:/mingw/bin/../lib/gcc/mingw32/4.5.2/../../../libuser32.a(daois00582.o)
 .idata$4       0x004595ac        0x4 d:/mingw/bin/../lib/gcc/mingw32/4.5.2/../../../libuser32.a(daois00585.o)
 .idata$4       0x004595b0        0x4 d:/mingw/bin/../lib/gcc/mingw32/4.5.2/../../../libuser32.a(daois00591.o)
 .idata$4       0x004595b4        0x4 d:/mingw/bin/../lib/gcc/mingw32/4.5.2/../../../libuser32.a(daois00598.o)
 .idata$4       0x004595b8        0x4 d:/mingw/bin/../lib/gcc/mingw32/4.5.2/../../../libuser32.a(daois00602.o)
 .idata$4       0x004595bc        0x4 d:/mingw/bin/../lib/gcc/mingw32/4.5.2/../../../libuser32.a(daois00608.o)
 .idata$4       0x004595c0        0x4 d:/mingw/bin/../lib/gcc/mingw32/4.5.2/../../../libuser32.a(daois00622.o)
 .idata$4       0x004595c4        0x4 d:/mingw/bin/../lib/gcc/mingw32/4.5.2/../../../libuser32.a(daois00632.o)
 .idata$4       0x004595c8        0x4 d:/mingw/bin/../lib/gcc/mingw32/4.5.2/../../../libuser32.a(daoit.o)
 .idata$4       0x004595cc        0x0 d:/mingw/bin/../lib/gcc/mingw32/4.5.2/../../../libwinmm.a(dopch.o)
 .idata$4       0x004595cc        0x4 d:/mingw/bin/../lib/gcc/mingw32/4.5.2/../../../libwinmm.a(dopcs00008.o)
 .idata$4       0x004595d0        0x4 d:/mingw/bin/../lib/gcc/mingw32/4.5.2/../../../libwinmm.a(dopct.o)
 .idata$4       0x004595d4        0x0 d:/mingw/bin/../lib/gcc/mingw32/4.5.2/../../../libwinspool.a(dykdh.o)
 .idata$4       0x004595d4        0x4 d:/mingw/bin/../lib/gcc/mingw32/4.5.2/../../../libwinspool.a(dykds00025.o)
 .idata$4       0x004595d8        0x4 d:/mingw/bin/../lib/gcc/mingw32/4.5.2/../../../libwinspool.a(dykds00059.o)
 .idata$4       0x004595dc        0x4 d:/mingw/bin/../lib/gcc/mingw32/4.5.2/../../../libwinspool.a(dykds00060.o)
 .idata$4       0x004595e0        0x4 d:/mingw/bin/../lib/gcc/mingw32/4.5.2/../../../libwinspool.a(dykds00078.o)
 .idata$4       0x004595e4        0x4 d:/mingw/bin/../lib/gcc/mingw32/4.5.2/../../../libwinspool.a(dykds00102.o)
 .idata$4       0x004595e8        0x4 d:/mingw/bin/../lib/gcc/mingw32/4.5.2/../../../libwinspool.a(dykds00126.o)
 .idata$4       0x004595ec        0x4 d:/mingw/bin/../lib/gcc/mingw32/4.5.2/../../../libwinspool.a(dykds00128.o)
 .idata$4       0x004595f0        0x4 d:/mingw/bin/../lib/gcc/mingw32/4.5.2/../../../libwinspool.a(dykds00130.o)
 .idata$4       0x004595f4        0x4 d:/mingw/bin/../lib/gcc/mingw32/4.5.2/../../../libwinspool.a(dykdt.o)
                0x004595f8                __IAT_start__ = .
 SORT(*)(.idata$5)
 .idata$5       0x004595f8        0x0 d:/mingw/bin/../lib/gcc/mingw32/4.5.2/../../../libadvapi32.a(dgxgh.o)
 .idata$5       0x004595f8        0x4 d:/mingw/bin/../lib/gcc/mingw32/4.5.2/../../../libadvapi32.a(dgxgs00245.o)
                0x004595f8                _imp__GetUserNameA@8
 .idata$5       0x004595fc        0x4 d:/mingw/bin/../lib/gcc/mingw32/4.5.2/../../../libadvapi32.a(dgxgs00386.o)
                0x004595fc                _imp__RegCloseKey@4
 .idata$5       0x00459600        0x4 d:/mingw/bin/../lib/gcc/mingw32/4.5.2/../../../libadvapi32.a(dgxgs00389.o)
                0x00459600                _imp__RegCreateKeyA@12
 .idata$5       0x00459604        0x4 d:/mingw/bin/../lib/gcc/mingw32/4.5.2/../../../libadvapi32.a(dgxgs00390.o)
                0x00459604                _imp__RegCreateKeyExA@36
 .idata$5       0x00459608        0x4 d:/mingw/bin/../lib/gcc/mingw32/4.5.2/../../../libadvapi32.a(dgxgs00393.o)
                0x00459608                _imp__RegDeleteKeyA@8
 .idata$5       0x0045960c        0x4 d:/mingw/bin/../lib/gcc/mingw32/4.5.2/../../../libadvapi32.a(dgxgs00397.o)
                0x0045960c                _imp__RegDeleteValueA@8
 .idata$5       0x00459610        0x4 d:/mingw/bin/../lib/gcc/mingw32/4.5.2/../../../libadvapi32.a(dgxgs00400.o)
                0x00459610                _imp__RegEnumKeyA@16
 .idata$5       0x00459614        0x4 d:/mingw/bin/../lib/gcc/mingw32/4.5.2/../../../libadvapi32.a(dgxgs00412.o)
                0x00459614                _imp__RegOpenKeyA@12
 .idata$5       0x00459618        0x4 d:/mingw/bin/../lib/gcc/mingw32/4.5.2/../../../libadvapi32.a(dgxgs00423.o)
                0x00459618                _imp__RegQueryValueExA@24
 .idata$5       0x0045961c        0x4 d:/mingw/bin/../lib/gcc/mingw32/4.5.2/../../../libadvapi32.a(dgxgs00434.o)
                0x0045961c                _imp__RegSetValueExA@24
 .idata$5       0x00459620        0x4 d:/mingw/bin/../lib/gcc/mingw32/4.5.2/../../../libadvapi32.a(dgxgt.o)
 .idata$5       0x00459624        0x0 d:/mingw/bin/../lib/gcc/mingw32/4.5.2/../../../libcomctl32.a(dqqhh.o)
 .idata$5       0x00459624        0x4 d:/mingw/bin/../lib/gcc/mingw32/4.5.2/../../../libcomctl32.a(dqqhs00042.o)
                0x00459624                _imp__DrawInsert@12
 .idata$5       0x00459628        0x4 d:/mingw/bin/../lib/gcc/mingw32/4.5.2/../../../libcomctl32.a(dqqhs00094.o)
                0x00459628                _imp__InitCommonControls@0
 .idata$5       0x0045962c        0x4 d:/mingw/bin/../lib/gcc/mingw32/4.5.2/../../../libcomctl32.a(dqqhs00097.o)
                0x0045962c                _imp__LBItemFromPt@16
 .idata$5       0x00459630        0x4 d:/mingw/bin/../lib/gcc/mingw32/4.5.2/../../../libcomctl32.a(dqqhs00098.o)
                0x00459630                _imp__MakeDragList@4
 .idata$5       0x00459634        0x4 d:/mingw/bin/../lib/gcc/mingw32/4.5.2/../../../libcomctl32.a(dqqht.o)
 .idata$5       0x00459638        0x0 d:/mingw/bin/../lib/gcc/mingw32/4.5.2/../../../libcomdlg32.a(demdh.o)
 .idata$5       0x00459638        0x4 d:/mingw/bin/../lib/gcc/mingw32/4.5.2/../../../libcomdlg32.a(demds00000.o)
                0x00459638                _imp__ChooseColorA@4
 .idata$5       0x0045963c        0x4 d:/mingw/bin/../lib/gcc/mingw32/4.5.2/../../../libcomdlg32.a(demds00002.o)
                0x0045963c                _imp__ChooseFontA@4
 .idata$5       0x00459640        0x4 d:/mingw/bin/../lib/gcc/mingw32/4.5.2/../../../libcomdlg32.a(demds00009.o)
                0x00459640                _imp__GetOpenFileNameA@4
 .idata$5       0x00459644        0x4 d:/mingw/bin/../lib/gcc/mingw32/4.5.2/../../../libcomdlg32.a(demds00011.o)
                0x00459644                _imp__GetSaveFileNameA@4
 .idata$5       0x00459648        0x4 d:/mingw/bin/../lib/gcc/mingw32/4.5.2/../../../libcomdlg32.a(demdt.o)
 .idata$5       0x0045964c        0x0 d:/mingw/bin/../lib/gcc/mingw32/4.5.2/../../../libgdi32.a(dkfhh.o)
 .idata$5       0x0045964c        0x4 d:/mingw/bin/../lib/gcc/mingw32/4.5.2/../../../libgdi32.a(dkfhs00028.o)
                0x0045964c                _imp__CreateBitmap@20
 .idata$5       0x00459650        0x4 d:/mingw/bin/../lib/gcc/mingw32/4.5.2/../../../libgdi32.a(dkfhs00033.o)
                0x00459650                _imp__CreateCompatibleBitmap@12
 .idata$5       0x00459654        0x4 d:/mingw/bin/../lib/gcc/mingw32/4.5.2/../../../libgdi32.a(dkfhs00034.o)
                0x00459654                _imp__CreateCompatibleDC@4
 .idata$5       0x00459658        0x4 d:/mingw/bin/../lib/gcc/mingw32/4.5.2/../../../libgdi32.a(dkfhs00046.o)
                0x00459658                _imp__CreateFontA@56
 .idata$5       0x0045965c        0x4 d:/mingw/bin/../lib/gcc/mingw32/4.5.2/../../../libgdi32.a(dkfhs00047.o)
                0x0045965c                _imp__CreateFontIndirectA@4
 .idata$5       0x00459660        0x4 d:/mingw/bin/../lib/gcc/mingw32/4.5.2/../../../libgdi32.a(dkfhs00056.o)
                0x00459660                _imp__CreatePalette@4
 .idata$5       0x00459664        0x4 d:/mingw/bin/../lib/gcc/mingw32/4.5.2/../../../libgdi32.a(dkfhs00058.o)
                0x00459664                _imp__CreatePen@12
 .idata$5       0x00459668        0x4 d:/mingw/bin/../lib/gcc/mingw32/4.5.2/../../../libgdi32.a(dkfhs00067.o)
                0x00459668                _imp__CreateSolidBrush@4
 .idata$5       0x0045966c        0x4 d:/mingw/bin/../lib/gcc/mingw32/4.5.2/../../../libgdi32.a(dkfhs00070.o)
                0x0045966c                _imp__DeleteDC@4
 .idata$5       0x00459670        0x4 d:/mingw/bin/../lib/gcc/mingw32/4.5.2/../../../libgdi32.a(dkfhs00073.o)
                0x00459670                _imp__DeleteObject@4
 .idata$5       0x00459674        0x4 d:/mingw/bin/../lib/gcc/mingw32/4.5.2/../../../libgdi32.a(dkfhs00096.o)
                0x00459674                _imp__ExcludeClipRect@20
 .idata$5       0x00459678        0x4 d:/mingw/bin/../lib/gcc/mingw32/4.5.2/../../../libgdi32.a(dkfhs00102.o)
                0x00459678                _imp__ExtTextOutA@32
 .idata$5       0x0045967c        0x4 d:/mingw/bin/../lib/gcc/mingw32/4.5.2/../../../libgdi32.a(dkfhs00103.o)
                0x0045967c                _imp__ExtTextOutW@32
 .idata$5       0x00459680        0x4 d:/mingw/bin/../lib/gcc/mingw32/4.5.2/../../../libgdi32.a(dkfhs00122.o)
                0x00459680                _imp__GetBkMode@4
 .idata$5       0x00459684        0x4 d:/mingw/bin/../lib/gcc/mingw32/4.5.2/../../../libgdi32.a(dkfhs00126.o)
                0x00459684                _imp__GetCharABCWidthsFloatA@16
 .idata$5       0x00459688        0x4 d:/mingw/bin/../lib/gcc/mingw32/4.5.2/../../../libgdi32.a(dkfhs00129.o)
                0x00459688                _imp__GetCharWidth32A@16
 .idata$5       0x0045968c        0x4 d:/mingw/bin/../lib/gcc/mingw32/4.5.2/../../../libgdi32.a(dkfhs00130.o)
                0x0045968c                _imp__GetCharWidth32W@16
 .idata$5       0x00459690        0x4 d:/mingw/bin/../lib/gcc/mingw32/4.5.2/../../../libgdi32.a(dkfhs00131.o)
                0x00459690                _imp__GetCharWidthA@16
 .idata$5       0x00459694        0x4 d:/mingw/bin/../lib/gcc/mingw32/4.5.2/../../../libgdi32.a(dkfhs00134.o)
                0x00459694                _imp__GetCharWidthW@16
 .idata$5       0x00459698        0x4 d:/mingw/bin/../lib/gcc/mingw32/4.5.2/../../../libgdi32.a(dkfhs00136.o)
                0x00459698                _imp__GetCharacterPlacementW@24
 .idata$5       0x0045969c        0x4 d:/mingw/bin/../lib/gcc/mingw32/4.5.2/../../../libgdi32.a(dkfhs00148.o)
                0x0045969c                _imp__GetDeviceCaps@8
 .idata$5       0x004596a0        0x4 d:/mingw/bin/../lib/gcc/mingw32/4.5.2/../../../libgdi32.a(dkfhs00185.o)
                0x004596a0                _imp__GetObjectA@12
 .idata$5       0x004596a4        0x4 d:/mingw/bin/../lib/gcc/mingw32/4.5.2/../../../libgdi32.a(dkfhs00192.o)
                0x004596a4                _imp__GetPixel@12
 .idata$5       0x004596a8        0x4 d:/mingw/bin/../lib/gcc/mingw32/4.5.2/../../../libgdi32.a(dkfhs00201.o)
                0x004596a8                _imp__GetStockObject@4
 .idata$5       0x004596ac        0x4 d:/mingw/bin/../lib/gcc/mingw32/4.5.2/../../../libgdi32.a(dkfhs00210.o)
                0x004596ac                _imp__GetTextExtentExPointA@28
 .idata$5       0x004596b0        0x4 d:/mingw/bin/../lib/gcc/mingw32/4.5.2/../../../libgdi32.a(dkfhs00213.o)
                0x004596b0                _imp__GetTextExtentPoint32A@16
 .idata$5       0x004596b4        0x4 d:/mingw/bin/../lib/gcc/mingw32/4.5.2/../../../libgdi32.a(dkfhs00219.o)
                0x004596b4                _imp__GetTextMetricsA@8
 .idata$5       0x004596b8        0x4 d:/mingw/bin/../lib/gcc/mingw32/4.5.2/../../../libgdi32.a(dkfhs00227.o)
                0x004596b8                _imp__IntersectClipRect@20
 .idata$5       0x004596bc        0x4 d:/mingw/bin/../lib/gcc/mingw32/4.5.2/../../../libgdi32.a(dkfhs00231.o)
                0x004596bc                _imp__LineTo@12
 .idata$5       0x004596c0        0x4 d:/mingw/bin/../lib/gcc/mingw32/4.5.2/../../../libgdi32.a(dkfhs00234.o)
                0x004596c0                _imp__MoveToEx@16
 .idata$5       0x004596c4        0x4 d:/mingw/bin/../lib/gcc/mingw32/4.5.2/../../../libgdi32.a(dkfhs00256.o)
                0x004596c4                _imp__Polyline@12
 .idata$5       0x004596c8        0x4 d:/mingw/bin/../lib/gcc/mingw32/4.5.2/../../../libgdi32.a(dkfhs00260.o)
                0x004596c8                _imp__RealizePalette@4
 .idata$5       0x004596cc        0x4 d:/mingw/bin/../lib/gcc/mingw32/4.5.2/../../../libgdi32.a(dkfhs00263.o)
                0x004596cc                _imp__Rectangle@20
 .idata$5       0x004596d0        0x4 d:/mingw/bin/../lib/gcc/mingw32/4.5.2/../../../libgdi32.a(dkfhs00281.o)
                0x004596d0                _imp__SelectObject@8
 .idata$5       0x004596d4        0x4 d:/mingw/bin/../lib/gcc/mingw32/4.5.2/../../../libgdi32.a(dkfhs00282.o)
                0x004596d4                _imp__SelectPalette@12
 .idata$5       0x004596d8        0x4 d:/mingw/bin/../lib/gcc/mingw32/4.5.2/../../../libgdi32.a(dkfhs00287.o)
                0x004596d8                _imp__SetBkColor@8
 .idata$5       0x004596dc        0x4 d:/mingw/bin/../lib/gcc/mingw32/4.5.2/../../../libgdi32.a(dkfhs00288.o)
                0x004596dc                _imp__SetBkMode@8
 .idata$5       0x004596e0        0x4 d:/mingw/bin/../lib/gcc/mingw32/4.5.2/../../../libgdi32.a(dkfhs00306.o)
                0x004596e0                _imp__SetMapMode@8
 .idata$5       0x004596e4        0x4 d:/mingw/bin/../lib/gcc/mingw32/4.5.2/../../../libgdi32.a(dkfhs00311.o)
                0x004596e4                _imp__SetPaletteEntries@16
 .idata$5       0x004596e8        0x4 d:/mingw/bin/../lib/gcc/mingw32/4.5.2/../../../libgdi32.a(dkfhs00312.o)
                0x004596e8                _imp__SetPixel@16
 .idata$5       0x004596ec        0x4 d:/mingw/bin/../lib/gcc/mingw32/4.5.2/../../../libgdi32.a(dkfhs00321.o)
                0x004596ec                _imp__SetTextAlign@8
 .idata$5       0x004596f0        0x4 d:/mingw/bin/../lib/gcc/mingw32/4.5.2/../../../libgdi32.a(dkfhs00323.o)
                0x004596f0                _imp__SetTextColor@8
 .idata$5       0x004596f4        0x4 d:/mingw/bin/../lib/gcc/mingw32/4.5.2/../../../libgdi32.a(dkfhs00339.o)
                0x004596f4                _imp__TextOutA@20
 .idata$5       0x004596f8        0x4 d:/mingw/bin/../lib/gcc/mingw32/4.5.2/../../../libgdi32.a(dkfhs00341.o)
                0x004596f8                _imp__TranslateCharsetInfo@12
 .idata$5       0x004596fc        0x4 d:/mingw/bin/../lib/gcc/mingw32/4.5.2/../../../libgdi32.a(dkfhs00342.o)
                0x004596fc                _imp__UnrealizeObject@4
 .idata$5       0x00459700        0x4 d:/mingw/bin/../lib/gcc/mingw32/4.5.2/../../../libgdi32.a(dkfhs00343.o)
                0x00459700                _imp__UpdateColors@4
 .idata$5       0x00459704        0x4 d:/mingw/bin/../lib/gcc/mingw32/4.5.2/../../../libgdi32.a(dkfht.o)
 .idata$5       0x00459708        0x0 d:/mingw/bin/../lib/gcc/mingw32/4.5.2/../../../libimm32.a(dkrgh.o)
 .idata$5       0x00459708        0x4 d:/mingw/bin/../lib/gcc/mingw32/4.5.2/../../../libimm32.a(dkrgs00023.o)
                0x00459708                _imp__ImmGetCompositionStringW@16
 .idata$5       0x0045970c        0x4 d:/mingw/bin/../lib/gcc/mingw32/4.5.2/../../../libimm32.a(dkrgs00025.o)
                0x0045970c                _imp__ImmGetContext@4
 .idata$5       0x00459710        0x4 d:/mingw/bin/../lib/gcc/mingw32/4.5.2/../../../libimm32.a(dkrgs00059.o)
                0x00459710                _imp__ImmReleaseContext@8
 .idata$5       0x00459714        0x4 d:/mingw/bin/../lib/gcc/mingw32/4.5.2/../../../libimm32.a(dkrgs00061.o)
                0x00459714                _imp__ImmSetCompositionFontA@8
 .idata$5       0x00459718        0x4 d:/mingw/bin/../lib/gcc/mingw32/4.5.2/../../../libimm32.a(dkrgs00065.o)
                0x00459718                _imp__ImmSetCompositionWindow@8
 .idata$5       0x0045971c        0x4 d:/mingw/bin/../lib/gcc/mingw32/4.5.2/../../../libimm32.a(dkrgt.o)
 .idata$5       0x00459720        0x0 d:/mingw/bin/../lib/gcc/mingw32/4.5.2/../../../libkernel32.a(dchdh.o)
 .idata$5       0x00459720        0x4 d:/mingw/bin/../lib/gcc/mingw32/4.5.2/../../../libkernel32.a(dchds00016.o)
                0x00459720                _imp__AllocConsole@0
 .idata$5       0x00459724        0x4 d:/mingw/bin/../lib/gcc/mingw32/4.5.2/../../../libkernel32.a(dchds00054.o)
                0x00459724                _imp__Beep@8
 .idata$5       0x00459728        0x4 d:/mingw/bin/../lib/gcc/mingw32/4.5.2/../../../libkernel32.a(dchds00079.o)
                0x00459728                _imp__ClearCommBreak@4
 .idata$5       0x0045972c        0x4 d:/mingw/bin/../lib/gcc/mingw32/4.5.2/../../../libkernel32.a(dchds00082.o)
                0x0045972c                _imp__CloseHandle@4
 .idata$5       0x00459730        0x4 d:/mingw/bin/../lib/gcc/mingw32/4.5.2/../../../libkernel32.a(dchds00129.o)
                0x00459730                _imp__CreateEventA@16
 .idata$5       0x00459734        0x4 d:/mingw/bin/../lib/gcc/mingw32/4.5.2/../../../libkernel32.a(dchds00135.o)
                0x00459734                _imp__CreateFileA@28
 .idata$5       0x00459738        0x4 d:/mingw/bin/../lib/gcc/mingw32/4.5.2/../../../libkernel32.a(dchds00136.o)
                0x00459738                _imp__CreateFileMappingA@24
 .idata$5       0x0045973c        0x4 d:/mingw/bin/../lib/gcc/mingw32/4.5.2/../../../libkernel32.a(dchds00160.o)
                0x0045973c                _imp__CreatePipe@16
 .idata$5       0x00459740        0x4 d:/mingw/bin/../lib/gcc/mingw32/4.5.2/../../../libkernel32.a(dchds00163.o)
                0x00459740                _imp__CreateProcessA@40
 .idata$5       0x00459744        0x4 d:/mingw/bin/../lib/gcc/mingw32/4.5.2/../../../libkernel32.a(dchds00179.o)
                0x00459744                _imp__CreateThread@24
 .idata$5       0x00459748        0x4 d:/mingw/bin/../lib/gcc/mingw32/4.5.2/../../../libkernel32.a(dchds00207.o)
                0x00459748                _imp__DeleteCriticalSection@4
 .idata$5       0x0045974c        0x4 d:/mingw/bin/../lib/gcc/mingw32/4.5.2/../../../libkernel32.a(dchds00236.o)
                0x0045974c                _imp__EnterCriticalSection@4
 .idata$5       0x00459750        0x4 d:/mingw/bin/../lib/gcc/mingw32/4.5.2/../../../libkernel32.a(dchds00279.o)
                0x00459750                _imp__ExitProcess@4
 .idata$5       0x00459754        0x4 d:/mingw/bin/../lib/gcc/mingw32/4.5.2/../../../libkernel32.a(dchds00352.o)
                0x00459754                _imp__FreeLibrary@4
 .idata$5       0x00459758        0x4 d:/mingw/bin/../lib/gcc/mingw32/4.5.2/../../../libkernel32.a(dchds00358.o)
                0x00459758                _imp__GetACP@0
 .idata$5       0x0045975c        0x4 d:/mingw/bin/../lib/gcc/mingw32/4.5.2/../../../libkernel32.a(dchds00368.o)
                0x0045975c                _imp__GetCPInfo@8
 .idata$5       0x00459760        0x4 d:/mingw/bin/../lib/gcc/mingw32/4.5.2/../../../libkernel32.a(dchds00386.o)
                0x00459760                _imp__GetCommState@8
 .idata$5       0x00459764        0x4 d:/mingw/bin/../lib/gcc/mingw32/4.5.2/../../../libkernel32.a(dchds00388.o)
                0x00459764                _imp__GetCommandLineA@0
 .idata$5       0x00459768        0x4 d:/mingw/bin/../lib/gcc/mingw32/4.5.2/../../../libkernel32.a(dchds00444.o)
                0x00459768                _imp__GetCurrentDirectoryA@8
 .idata$5       0x0045976c        0x4 d:/mingw/bin/../lib/gcc/mingw32/4.5.2/../../../libkernel32.a(dchds00473.o)
                0x0045976c                _imp__GetEnvironmentVariableA@12
 .idata$5       0x00459770        0x4 d:/mingw/bin/../lib/gcc/mingw32/4.5.2/../../../libkernel32.a(dchds00510.o)
                0x00459770                _imp__GetLastError@0
 .idata$5       0x00459774        0x4 d:/mingw/bin/../lib/gcc/mingw32/4.5.2/../../../libkernel32.a(dchds00511.o)
                0x00459774                _imp__GetLocalTime@4
 .idata$5       0x00459778        0x4 d:/mingw/bin/../lib/gcc/mingw32/4.5.2/../../../libkernel32.a(dchds00512.o)
                0x00459778                _imp__GetLocaleInfoA@16
 .idata$5       0x0045977c        0x4 d:/mingw/bin/../lib/gcc/mingw32/4.5.2/../../../libkernel32.a(dchds00527.o)
                0x0045977c                _imp__GetModuleFileNameA@12
 .idata$5       0x00459780        0x4 d:/mingw/bin/../lib/gcc/mingw32/4.5.2/../../../libkernel32.a(dchds00529.o)
                0x00459780                _imp__GetModuleHandleA@4
 .idata$5       0x00459784        0x4 d:/mingw/bin/../lib/gcc/mingw32/4.5.2/../../../libkernel32.a(dchds00563.o)
                0x00459784                _imp__GetOEMCP@0
 .idata$5       0x00459788        0x4 d:/mingw/bin/../lib/gcc/mingw32/4.5.2/../../../libkernel32.a(dchds00564.o)
                0x00459788                _imp__GetOverlappedResult@16
 .idata$5       0x0045978c        0x4 d:/mingw/bin/../lib/gcc/mingw32/4.5.2/../../../libkernel32.a(dchds00577.o)
                0x0045978c                _imp__GetProcAddress@8
 .idata$5       0x00459790        0x4 d:/mingw/bin/../lib/gcc/mingw32/4.5.2/../../../libkernel32.a(dchds00606.o)
                0x00459790                _imp__GetStartupInfoA@4
 .idata$5       0x00459794        0x4 d:/mingw/bin/../lib/gcc/mingw32/4.5.2/../../../libkernel32.a(dchds00608.o)
                0x00459794                _imp__GetStdHandle@4
 .idata$5       0x00459798        0x4 d:/mingw/bin/../lib/gcc/mingw32/4.5.2/../../../libkernel32.a(dchds00619.o)
                0x00459798                _imp__GetSystemDirectoryA@8
 .idata$5       0x0045979c        0x4 d:/mingw/bin/../lib/gcc/mingw32/4.5.2/../../../libkernel32.a(dchds00656.o)
                0x0045979c                _imp__GetTickCount@0
 .idata$5       0x004597a0        0x4 d:/mingw/bin/../lib/gcc/mingw32/4.5.2/../../../libkernel32.a(dchds00671.o)
                0x004597a0                _imp__GetVersionExA@4
 .idata$5       0x004597a4        0x4 d:/mingw/bin/../lib/gcc/mingw32/4.5.2/../../../libkernel32.a(dchds00682.o)
                0x004597a4                _imp__GetWindowsDirectoryA@8
 .idata$5       0x004597a8        0x4 d:/mingw/bin/../lib/gcc/mingw32/4.5.2/../../../libkernel32.a(dchds00687.o)
                0x004597a8                _imp__GlobalAlloc@8
 .idata$5       0x004597ac        0x4 d:/mingw/bin/../lib/gcc/mingw32/4.5.2/../../../libkernel32.a(dchds00694.o)
                0x004597ac                _imp__GlobalFree@4
 .idata$5       0x004597b0        0x4 d:/mingw/bin/../lib/gcc/mingw32/4.5.2/../../../libkernel32.a(dchds00698.o)
                0x004597b0                _imp__GlobalLock@4
 .idata$5       0x004597b4        0x4 d:/mingw/bin/../lib/gcc/mingw32/4.5.2/../../../libkernel32.a(dchds00705.o)
                0x004597b4                _imp__GlobalUnlock@4
 .idata$5       0x004597b8        0x4 d:/mingw/bin/../lib/gcc/mingw32/4.5.2/../../../libkernel32.a(dchds00734.o)
                0x004597b8                _imp__InitializeCriticalSection@4
 .idata$5       0x004597bc        0x4 d:/mingw/bin/../lib/gcc/mingw32/4.5.2/../../../libkernel32.a(dchds00763.o)
                0x004597bc                _imp__IsDBCSLeadByteEx@8
 .idata$5       0x004597c0        0x4 d:/mingw/bin/../lib/gcc/mingw32/4.5.2/../../../libkernel32.a(dchds00814.o)
                0x004597c0                _imp__LeaveCriticalSection@4
 .idata$5       0x004597c4        0x4 d:/mingw/bin/../lib/gcc/mingw32/4.5.2/../../../libkernel32.a(dchds00817.o)
                0x004597c4                _imp__LoadLibraryA@4
 .idata$5       0x004597c8        0x4 d:/mingw/bin/../lib/gcc/mingw32/4.5.2/../../../libkernel32.a(dchds00844.o)
                0x004597c8                _imp__MapViewOfFile@20
 .idata$5       0x004597cc        0x4 d:/mingw/bin/../lib/gcc/mingw32/4.5.2/../../../libkernel32.a(dchds00859.o)
                0x004597cc                _imp__MulDiv@12
 .idata$5       0x004597d0        0x4 d:/mingw/bin/../lib/gcc/mingw32/4.5.2/../../../libkernel32.a(dchds00860.o)
                0x004597d0                _imp__MultiByteToWideChar@24
 .idata$5       0x004597d4        0x4 d:/mingw/bin/../lib/gcc/mingw32/4.5.2/../../../libkernel32.a(dchds00947.o)
                0x004597d4                _imp__ReadFile@20
 .idata$5       0x004597d8        0x4 d:/mingw/bin/../lib/gcc/mingw32/4.5.2/../../../libkernel32.a(dchds01010.o)
                0x004597d8                _imp__SetCommBreak@4
 .idata$5       0x004597dc        0x4 d:/mingw/bin/../lib/gcc/mingw32/4.5.2/../../../libkernel32.a(dchds01013.o)
                0x004597dc                _imp__SetCommState@8
 .idata$5       0x004597e0        0x4 d:/mingw/bin/../lib/gcc/mingw32/4.5.2/../../../libkernel32.a(dchds01014.o)
                0x004597e0                _imp__SetCommTimeouts@8
 .idata$5       0x004597e4        0x4 d:/mingw/bin/../lib/gcc/mingw32/4.5.2/../../../libkernel32.a(dchds01052.o)
                0x004597e4                _imp__SetCurrentDirectoryA@4
 .idata$5       0x004597e8        0x4 d:/mingw/bin/../lib/gcc/mingw32/4.5.2/../../../libkernel32.a(dchds01065.o)
                0x004597e8                _imp__SetEvent@4
 .idata$5       0x004597ec        0x4 d:/mingw/bin/../lib/gcc/mingw32/4.5.2/../../../libkernel32.a(dchds01088.o)
                0x004597ec                _imp__SetHandleInformation@12
 .idata$5       0x004597f0        0x4 d:/mingw/bin/../lib/gcc/mingw32/4.5.2/../../../libkernel32.a(dchds01140.o)
                0x004597f0                _imp__SetUnhandledExceptionFilter@4
 .idata$5       0x004597f4        0x4 d:/mingw/bin/../lib/gcc/mingw32/4.5.2/../../../libkernel32.a(dchds01173.o)
                0x004597f4                _imp__TlsGetValue@4
 .idata$5       0x004597f8        0x4 d:/mingw/bin/../lib/gcc/mingw32/4.5.2/../../../libkernel32.a(dchds01188.o)
                0x004597f8                _imp__UnmapViewOfFile@4
 .idata$5       0x004597fc        0x4 d:/mingw/bin/../lib/gcc/mingw32/4.5.2/../../../libkernel32.a(dchds01213.o)
                0x004597fc                _imp__VirtualProtect@16
 .idata$5       0x00459800        0x4 d:/mingw/bin/../lib/gcc/mingw32/4.5.2/../../../libkernel32.a(dchds01215.o)
                0x00459800                _imp__VirtualQuery@12
 .idata$5       0x00459804        0x4 d:/mingw/bin/../lib/gcc/mingw32/4.5.2/../../../libkernel32.a(dchds01223.o)
                0x00459804                _imp__WaitForSingleObject@8
 .idata$5       0x00459808        0x4 d:/mingw/bin/../lib/gcc/mingw32/4.5.2/../../../libkernel32.a(dchds01247.o)
                0x00459808                _imp__WideCharToMultiByte@32
 .idata$5       0x0045980c        0x4 d:/mingw/bin/../lib/gcc/mingw32/4.5.2/../../../libkernel32.a(dchds01267.o)
                0x0045980c                _imp__WriteFile@20
 .idata$5       0x00459810        0x4 d:/mingw/bin/../lib/gcc/mingw32/4.5.2/../../../libkernel32.a(dchdt.o)
 .idata$5       0x00459814        0x0 d:/mingw/bin/../lib/gcc/mingw32/4.5.2/../../../libmoldname.a(dgzlh.o)
 .idata$5       0x00459814        0x4 d:/mingw/bin/../lib/gcc/mingw32/4.5.2/../../../libmoldname.a(dgzls00084.o)
                0x00459814                _imp__strnicmp
 .idata$5       0x00459818        0x4 d:/mingw/bin/../lib/gcc/mingw32/4.5.2/../../../libmoldname.a(dgzlt.o)
 .idata$5       0x0045981c        0x0 d:/mingw/bin/../lib/gcc/mingw32/4.5.2/../../../libmsvcrt.a(duymh.o)
 .idata$5       0x0045981c        0x4 d:/mingw/bin/../lib/gcc/mingw32/4.5.2/../../../libmsvcrt.a(duyms00055.o)
                0x0045981c                _imp____getmainargs
 .idata$5       0x00459820        0x4 d:/mingw/bin/../lib/gcc/mingw32/4.5.2/../../../libmsvcrt.a(duyms00065.o)
                0x00459820                _imp____mb_cur_max
 .idata$5       0x00459824        0x4 d:/mingw/bin/../lib/gcc/mingw32/4.5.2/../../../libmsvcrt.a(duyms00077.o)
                0x00459824                _imp____p__environ
 .idata$5       0x00459828        0x4 d:/mingw/bin/../lib/gcc/mingw32/4.5.2/../../../libmsvcrt.a(duyms00079.o)
                0x00459828                _imp____p__fmode
 .idata$5       0x0045982c        0x4 d:/mingw/bin/../lib/gcc/mingw32/4.5.2/../../../libmsvcrt.a(duyms00099.o)
                0x0045982c                _imp____set_app_type
 .idata$5       0x00459830        0x4 d:/mingw/bin/../lib/gcc/mingw32/4.5.2/../../../libmsvcrt.a(duyms00137.o)
                0x00459830                _imp___assert
 .idata$5       0x00459834        0x4 d:/mingw/bin/../lib/gcc/mingw32/4.5.2/../../../libmsvcrt.a(duyms00147.o)
                0x00459834                _imp___cexit
 .idata$5       0x00459838        0x4 d:/mingw/bin/../lib/gcc/mingw32/4.5.2/../../../libmsvcrt.a(duyms00266.o)
                0x00459838                _imp___iob
 .idata$5       0x0045983c        0x4 d:/mingw/bin/../lib/gcc/mingw32/4.5.2/../../../libmsvcrt.a(duyms00268.o)
                0x0045983c                _imp___isctype
 .idata$5       0x00459840        0x4 d:/mingw/bin/../lib/gcc/mingw32/4.5.2/../../../libmsvcrt.a(duyms00383.o)
                0x00459840                _imp___onexit
 .idata$5       0x00459844        0x4 d:/mingw/bin/../lib/gcc/mingw32/4.5.2/../../../libmsvcrt.a(duyms00392.o)
                0x00459844                _imp___pctype
 .idata$5       0x00459848        0x4 d:/mingw/bin/../lib/gcc/mingw32/4.5.2/../../../libmsvcrt.a(duyms00426.o)
                0x00459848                _imp___setmode
 .idata$5       0x0045984c        0x4 d:/mingw/bin/../lib/gcc/mingw32/4.5.2/../../../libmsvcrt.a(duyms00490.o)
                0x0045984c                _imp___vsnprintf
 .idata$5       0x00459850        0x4 d:/mingw/bin/../lib/gcc/mingw32/4.5.2/../../../libmsvcrt.a(duyms00538.o)
                0x00459850                _imp___winmajor
 .idata$5       0x00459854        0x4 d:/mingw/bin/../lib/gcc/mingw32/4.5.2/../../../libmsvcrt.a(duyms00583.o)
                0x00459854                _imp__abort
 .idata$5       0x00459858        0x4 d:/mingw/bin/../lib/gcc/mingw32/4.5.2/../../../libmsvcrt.a(duyms00590.o)
                0x00459858                _imp__atexit
 .idata$5       0x0045985c        0x4 d:/mingw/bin/../lib/gcc/mingw32/4.5.2/../../../libmsvcrt.a(duyms00591.o)
                0x0045985c                _imp__atof
 .idata$5       0x00459860        0x4 d:/mingw/bin/../lib/gcc/mingw32/4.5.2/../../../libmsvcrt.a(duyms00592.o)
                0x00459860                _imp__atoi
 .idata$5       0x00459864        0x4 d:/mingw/bin/../lib/gcc/mingw32/4.5.2/../../../libmsvcrt.a(duyms00595.o)
                0x00459864                _imp__calloc
 .idata$5       0x00459868        0x4 d:/mingw/bin/../lib/gcc/mingw32/4.5.2/../../../libmsvcrt.a(duyms00604.o)
                0x00459868                _imp__exit
 .idata$5       0x0045986c        0x4 d:/mingw/bin/../lib/gcc/mingw32/4.5.2/../../../libmsvcrt.a(duyms00607.o)
                0x0045986c                _imp__fclose
 .idata$5       0x00459870        0x4 d:/mingw/bin/../lib/gcc/mingw32/4.5.2/../../../libmsvcrt.a(duyms00610.o)
                0x00459870                _imp__fflush
 .idata$5       0x00459874        0x4 d:/mingw/bin/../lib/gcc/mingw32/4.5.2/../../../libmsvcrt.a(duyms00611.o)
                0x00459874                _imp__fgetc
 .idata$5       0x00459878        0x4 d:/mingw/bin/../lib/gcc/mingw32/4.5.2/../../../libmsvcrt.a(duyms00613.o)
                0x00459878                _imp__fgets
 .idata$5       0x0045987c        0x4 d:/mingw/bin/../lib/gcc/mingw32/4.5.2/../../../libmsvcrt.a(duyms00618.o)
                0x0045987c                _imp__fopen
 .idata$5       0x00459880        0x4 d:/mingw/bin/../lib/gcc/mingw32/4.5.2/../../../libmsvcrt.a(duyms00619.o)
                0x00459880                _imp__fprintf
 .idata$5       0x00459884        0x4 d:/mingw/bin/../lib/gcc/mingw32/4.5.2/../../../libmsvcrt.a(duyms00621.o)
                0x00459884                _imp__fputs
 .idata$5       0x00459888        0x4 d:/mingw/bin/../lib/gcc/mingw32/4.5.2/../../../libmsvcrt.a(duyms00625.o)
                0x00459888                _imp__free
 .idata$5       0x0045988c        0x4 d:/mingw/bin/../lib/gcc/mingw32/4.5.2/../../../libmsvcrt.a(duyms00633.o)
                0x0045988c                _imp__fwrite
 .idata$5       0x00459890        0x4 d:/mingw/bin/../lib/gcc/mingw32/4.5.2/../../../libmsvcrt.a(duyms00637.o)
                0x00459890                _imp__getenv
 .idata$5       0x00459894        0x4 d:/mingw/bin/../lib/gcc/mingw32/4.5.2/../../../libmsvcrt.a(duyms00676.o)
                0x00459894                _imp__malloc
 .idata$5       0x00459898        0x4 d:/mingw/bin/../lib/gcc/mingw32/4.5.2/../../../libmsvcrt.a(duyms00682.o)
                0x00459898                _imp__memcpy
 .idata$5       0x0045989c        0x4 d:/mingw/bin/../lib/gcc/mingw32/4.5.2/../../../libmsvcrt.a(duyms00683.o)
                0x0045989c                _imp__memmove
 .idata$5       0x004598a0        0x4 d:/mingw/bin/../lib/gcc/mingw32/4.5.2/../../../libmsvcrt.a(duyms00695.o)
                0x004598a0                _imp__qsort
 .idata$5       0x004598a4        0x4 d:/mingw/bin/../lib/gcc/mingw32/4.5.2/../../../libmsvcrt.a(duyms00698.o)
                0x004598a4                _imp__realloc
 .idata$5       0x004598a8        0x4 d:/mingw/bin/../lib/gcc/mingw32/4.5.2/../../../libmsvcrt.a(duyms00699.o)
                0x004598a8                _imp__remove
 .idata$5       0x004598ac        0x4 d:/mingw/bin/../lib/gcc/mingw32/4.5.2/../../../libmsvcrt.a(duyms00706.o)
                0x004598ac                _imp__signal
 .idata$5       0x004598b0        0x4 d:/mingw/bin/../lib/gcc/mingw32/4.5.2/../../../libmsvcrt.a(duyms00709.o)
                0x004598b0                _imp__sprintf
 .idata$5       0x004598b4        0x4 d:/mingw/bin/../lib/gcc/mingw32/4.5.2/../../../libmsvcrt.a(duyms00712.o)
                0x004598b4                _imp__sscanf
 .idata$5       0x004598b8        0x4 d:/mingw/bin/../lib/gcc/mingw32/4.5.2/../../../libmsvcrt.a(duyms00713.o)
                0x004598b8                _imp__strcat
 .idata$5       0x004598bc        0x4 d:/mingw/bin/../lib/gcc/mingw32/4.5.2/../../../libmsvcrt.a(duyms00714.o)
                0x004598bc                _imp__strchr
 .idata$5       0x004598c0        0x4 d:/mingw/bin/../lib/gcc/mingw32/4.5.2/../../../libmsvcrt.a(duyms00715.o)
                0x004598c0                _imp__strcmp
 .idata$5       0x004598c4        0x4 d:/mingw/bin/../lib/gcc/mingw32/4.5.2/../../../libmsvcrt.a(duyms00717.o)
                0x004598c4                _imp__strcpy
 .idata$5       0x004598c8        0x4 d:/mingw/bin/../lib/gcc/mingw32/4.5.2/../../../libmsvcrt.a(duyms00718.o)
                0x004598c8                _imp__strcspn
 .idata$5       0x004598cc        0x4 d:/mingw/bin/../lib/gcc/mingw32/4.5.2/../../../libmsvcrt.a(duyms00720.o)
                0x004598cc                _imp__strftime
 .idata$5       0x004598d0        0x4 d:/mingw/bin/../lib/gcc/mingw32/4.5.2/../../../libmsvcrt.a(duyms00723.o)
                0x004598d0                _imp__strncmp
 .idata$5       0x004598d4        0x4 d:/mingw/bin/../lib/gcc/mingw32/4.5.2/../../../libmsvcrt.a(duyms00724.o)
                0x004598d4                _imp__strncpy
 .idata$5       0x004598d8        0x4 d:/mingw/bin/../lib/gcc/mingw32/4.5.2/../../../libmsvcrt.a(duyms00726.o)
                0x004598d8                _imp__strrchr
 .idata$5       0x004598dc        0x4 d:/mingw/bin/../lib/gcc/mingw32/4.5.2/../../../libmsvcrt.a(duyms00727.o)
                0x004598dc                _imp__strspn
 .idata$5       0x004598e0        0x4 d:/mingw/bin/../lib/gcc/mingw32/4.5.2/../../../libmsvcrt.a(duyms00731.o)
                0x004598e0                _imp__strtol
 .idata$5       0x004598e4        0x4 d:/mingw/bin/../lib/gcc/mingw32/4.5.2/../../../libmsvcrt.a(duyms00732.o)
                0x004598e4                _imp__strtoul
 .idata$5       0x004598e8        0x4 d:/mingw/bin/../lib/gcc/mingw32/4.5.2/../../../libmsvcrt.a(duyms00742.o)
                0x004598e8                _imp__tolower
 .idata$5       0x004598ec        0x4 d:/mingw/bin/../lib/gcc/mingw32/4.5.2/../../../libmsvcrt.a(duyms00743.o)
                0x004598ec                _imp__toupper
 .idata$5       0x004598f0        0x4 d:/mingw/bin/../lib/gcc/mingw32/4.5.2/../../../libmsvcrt.a(duyms00748.o)
                0x004598f0                _imp__vfprintf
 .idata$5       0x004598f4        0x4 d:/mingw/bin/../lib/gcc/mingw32/4.5.2/../../../libmsvcrt.a(duymt.o)
 .idata$5       0x004598f8        0x0 d:/mingw/bin/../lib/gcc/mingw32/4.5.2/../../../libole32.a(dyadh.o)
 .idata$5       0x004598f8        0x4 d:/mingw/bin/../lib/gcc/mingw32/4.5.2/../../../libole32.a(dyads00012.o)
                0x004598f8                _imp__CoCreateInstance@20
 .idata$5       0x004598fc        0x4 d:/mingw/bin/../lib/gcc/mingw32/4.5.2/../../../libole32.a(dyads00037.o)
                0x004598fc                _imp__CoInitialize@4
 .idata$5       0x00459900        0x4 d:/mingw/bin/../lib/gcc/mingw32/4.5.2/../../../libole32.a(dyads00072.o)
                0x00459900                _imp__CoUninitialize@0
 .idata$5       0x00459904        0x4 d:/mingw/bin/../lib/gcc/mingw32/4.5.2/../../../libole32.a(dyadt.o)
 .idata$5       0x00459908        0x0 d:/mingw/bin/../lib/gcc/mingw32/4.5.2/../../../libshell32.a(dukih.o)
 .idata$5       0x00459908        0x4 d:/mingw/bin/../lib/gcc/mingw32/4.5.2/../../../libshell32.a(dukis00144.o)
                0x00459908                _imp__ShellExecuteA@24
 .idata$5       0x0045990c        0x4 d:/mingw/bin/../lib/gcc/mingw32/4.5.2/../../../libshell32.a(dukit.o)
 .idata$5       0x00459910        0x0 d:/mingw/bin/../lib/gcc/mingw32/4.5.2/../../../libuser32.a(daoih.o)
 .idata$5       0x00459910        0x4 d:/mingw/bin/../lib/gcc/mingw32/4.5.2/../../../libuser32.a(daois00006.o)
                0x00459910                _imp__AppendMenuA@16
 .idata$5       0x00459914        0x4 d:/mingw/bin/../lib/gcc/mingw32/4.5.2/../../../libuser32.a(daois00011.o)
                0x00459914                _imp__BeginPaint@8
 .idata$5       0x00459918        0x4 d:/mingw/bin/../lib/gcc/mingw32/4.5.2/../../../libuser32.a(daois00053.o)
                0x00459918                _imp__CheckDlgButton@12
 .idata$5       0x0045991c        0x4 d:/mingw/bin/../lib/gcc/mingw32/4.5.2/../../../libuser32.a(daois00054.o)
                0x0045991c                _imp__CheckMenuItem@12
 .idata$5       0x00459920        0x4 d:/mingw/bin/../lib/gcc/mingw32/4.5.2/../../../libuser32.a(daois00056.o)
                0x00459920                _imp__CheckRadioButton@16
 .idata$5       0x00459924        0x4 d:/mingw/bin/../lib/gcc/mingw32/4.5.2/../../../libuser32.a(daois00061.o)
                0x00459924                _imp__CloseClipboard@0
 .idata$5       0x00459928        0x4 d:/mingw/bin/../lib/gcc/mingw32/4.5.2/../../../libuser32.a(daois00074.o)
                0x00459928                _imp__CreateCaret@16
 .idata$5       0x0045992c        0x4 d:/mingw/bin/../lib/gcc/mingw32/4.5.2/../../../libuser32.a(daois00080.o)
                0x0045992c                _imp__CreateDialogParamA@20
 .idata$5       0x00459930        0x4 d:/mingw/bin/../lib/gcc/mingw32/4.5.2/../../../libuser32.a(daois00088.o)
                0x00459930                _imp__CreateMenu@0
 .idata$5       0x00459934        0x4 d:/mingw/bin/../lib/gcc/mingw32/4.5.2/../../../libuser32.a(daois00089.o)
                0x00459934                _imp__CreatePopupMenu@0
 .idata$5       0x00459938        0x4 d:/mingw/bin/../lib/gcc/mingw32/4.5.2/../../../libuser32.a(daois00090.o)
                0x00459938                _imp__CreateWindowExA@48
 .idata$5       0x0045993c        0x4 d:/mingw/bin/../lib/gcc/mingw32/4.5.2/../../../libuser32.a(daois00127.o)
                0x0045993c                _imp__DefDlgProcA@16
 .idata$5       0x00459940        0x4 d:/mingw/bin/../lib/gcc/mingw32/4.5.2/../../../libuser32.a(daois00134.o)
                0x00459940                _imp__DefWindowProcA@16
 .idata$5       0x00459944        0x4 d:/mingw/bin/../lib/gcc/mingw32/4.5.2/../../../libuser32.a(daois00137.o)
                0x00459944                _imp__DeleteMenu@12
 .idata$5       0x00459948        0x4 d:/mingw/bin/../lib/gcc/mingw32/4.5.2/../../../libuser32.a(daois00140.o)
                0x00459948                _imp__DestroyCaret@0
 .idata$5       0x0045994c        0x4 d:/mingw/bin/../lib/gcc/mingw32/4.5.2/../../../libuser32.a(daois00144.o)
                0x0045994c                _imp__DestroyWindow@4
 .idata$5       0x00459950        0x4 d:/mingw/bin/../lib/gcc/mingw32/4.5.2/../../../libuser32.a(daois00147.o)
                0x00459950                _imp__DialogBoxParamA@20
 .idata$5       0x00459954        0x4 d:/mingw/bin/../lib/gcc/mingw32/4.5.2/../../../libuser32.a(daois00149.o)
                0x00459954                _imp__DispatchMessageA@4
 .idata$5       0x00459958        0x4 d:/mingw/bin/../lib/gcc/mingw32/4.5.2/../../../libuser32.a(daois00163.o)
                0x00459958                _imp__DrawEdge@16
 .idata$5       0x0045995c        0x4 d:/mingw/bin/../lib/gcc/mingw32/4.5.2/../../../libuser32.a(daois00177.o)
                0x0045995c                _imp__EmptyClipboard@0
 .idata$5       0x00459960        0x4 d:/mingw/bin/../lib/gcc/mingw32/4.5.2/../../../libuser32.a(daois00178.o)
                0x00459960                _imp__EnableMenuItem@12
 .idata$5       0x00459964        0x4 d:/mingw/bin/../lib/gcc/mingw32/4.5.2/../../../libuser32.a(daois00180.o)
                0x00459964                _imp__EnableWindow@8
 .idata$5       0x00459968        0x4 d:/mingw/bin/../lib/gcc/mingw32/4.5.2/../../../libuser32.a(daois00182.o)
                0x00459968                _imp__EndDialog@8
 .idata$5       0x0045996c        0x4 d:/mingw/bin/../lib/gcc/mingw32/4.5.2/../../../libuser32.a(daois00184.o)
                0x0045996c                _imp__EndPaint@8
 .idata$5       0x00459970        0x4 d:/mingw/bin/../lib/gcc/mingw32/4.5.2/../../../libuser32.a(daois00214.o)
                0x00459970                _imp__FlashWindow@8
 .idata$5       0x00459974        0x4 d:/mingw/bin/../lib/gcc/mingw32/4.5.2/../../../libuser32.a(daois00224.o)
                0x00459974                _imp__GetCapture@0
 .idata$5       0x00459978        0x4 d:/mingw/bin/../lib/gcc/mingw32/4.5.2/../../../libuser32.a(daois00225.o)
                0x00459978                _imp__GetCaretBlinkTime@0
 .idata$5       0x0045997c        0x4 d:/mingw/bin/../lib/gcc/mingw32/4.5.2/../../../libuser32.a(daois00236.o)
                0x0045997c                _imp__GetClientRect@8
 .idata$5       0x00459980        0x4 d:/mingw/bin/../lib/gcc/mingw32/4.5.2/../../../libuser32.a(daois00238.o)
                0x00459980                _imp__GetClipboardData@4
 .idata$5       0x00459984        0x4 d:/mingw/bin/../lib/gcc/mingw32/4.5.2/../../../libuser32.a(daois00247.o)
                0x00459984                _imp__GetCursorPos@4
 .idata$5       0x00459988        0x4 d:/mingw/bin/../lib/gcc/mingw32/4.5.2/../../../libuser32.a(daois00248.o)
                0x00459988                _imp__GetDC@4
 .idata$5       0x0045998c        0x4 d:/mingw/bin/../lib/gcc/mingw32/4.5.2/../../../libuser32.a(daois00250.o)
                0x0045998c                _imp__GetDesktopWindow@0
 .idata$5       0x00459990        0x4 d:/mingw/bin/../lib/gcc/mingw32/4.5.2/../../../libuser32.a(daois00253.o)
                0x00459990                _imp__GetDlgItem@8
 .idata$5       0x00459994        0x4 d:/mingw/bin/../lib/gcc/mingw32/4.5.2/../../../libuser32.a(daois00255.o)
                0x00459994                _imp__GetDlgItemTextA@16
 .idata$5       0x00459998        0x4 d:/mingw/bin/../lib/gcc/mingw32/4.5.2/../../../libuser32.a(daois00257.o)
                0x00459998                _imp__GetDoubleClickTime@0
 .idata$5       0x0045999c        0x4 d:/mingw/bin/../lib/gcc/mingw32/4.5.2/../../../libuser32.a(daois00259.o)
                0x0045999c                _imp__GetForegroundWindow@0
 .idata$5       0x004599a0        0x4 d:/mingw/bin/../lib/gcc/mingw32/4.5.2/../../../libuser32.a(daois00269.o)
                0x004599a0                _imp__GetKeyboardLayout@4
 .idata$5       0x004599a4        0x4 d:/mingw/bin/../lib/gcc/mingw32/4.5.2/../../../libuser32.a(daois00273.o)
                0x004599a4                _imp__GetKeyboardState@4
 .idata$5       0x004599a8        0x4 d:/mingw/bin/../lib/gcc/mingw32/4.5.2/../../../libuser32.a(daois00293.o)
                0x004599a8                _imp__GetMessageA@16
 .idata$5       0x004599ac        0x4 d:/mingw/bin/../lib/gcc/mingw32/4.5.2/../../../libuser32.a(daois00296.o)
                0x004599ac                _imp__GetMessageTime@0
 .idata$5       0x004599b0        0x4 d:/mingw/bin/../lib/gcc/mingw32/4.5.2/../../../libuser32.a(daois00304.o)
                0x004599b0                _imp__GetParent@4
 .idata$5       0x004599b4        0x4 d:/mingw/bin/../lib/gcc/mingw32/4.5.2/../../../libuser32.a(daois00323.o)
                0x004599b4                _imp__GetSysColor@4
 .idata$5       0x004599b8        0x4 d:/mingw/bin/../lib/gcc/mingw32/4.5.2/../../../libuser32.a(daois00325.o)
                0x004599b8                _imp__GetSystemMenu@8
 .idata$5       0x004599bc        0x4 d:/mingw/bin/../lib/gcc/mingw32/4.5.2/../../../libuser32.a(daois00342.o)
                0x004599bc                _imp__GetWindowLongA@8
 .idata$5       0x004599c0        0x4 d:/mingw/bin/../lib/gcc/mingw32/4.5.2/../../../libuser32.a(daois00347.o)
                0x004599c0                _imp__GetWindowPlacement@8
 .idata$5       0x004599c4        0x4 d:/mingw/bin/../lib/gcc/mingw32/4.5.2/../../../libuser32.a(daois00348.o)
                0x004599c4                _imp__GetWindowRect@8
 .idata$5       0x004599c8        0x4 d:/mingw/bin/../lib/gcc/mingw32/4.5.2/../../../libuser32.a(daois00350.o)
                0x004599c8                _imp__GetWindowTextA@12
 .idata$5       0x004599cc        0x4 d:/mingw/bin/../lib/gcc/mingw32/4.5.2/../../../libuser32.a(daois00351.o)
                0x004599cc                _imp__GetWindowTextLengthA@4
 .idata$5       0x004599d0        0x4 d:/mingw/bin/../lib/gcc/mingw32/4.5.2/../../../libuser32.a(daois00358.o)
                0x004599d0                _imp__HideCaret@4
 .idata$5       0x004599d4        0x4 d:/mingw/bin/../lib/gcc/mingw32/4.5.2/../../../libuser32.a(daois00364.o)
                0x004599d4                _imp__InsertMenuA@20
 .idata$5       0x004599d8        0x4 d:/mingw/bin/../lib/gcc/mingw32/4.5.2/../../../libuser32.a(daois00370.o)
                0x004599d8                _imp__InvalidateRect@12
 .idata$5       0x004599dc        0x4 d:/mingw/bin/../lib/gcc/mingw32/4.5.2/../../../libuser32.a(daois00384.o)
                0x004599dc                _imp__IsDialogMessageA@8
 .idata$5       0x004599e0        0x4 d:/mingw/bin/../lib/gcc/mingw32/4.5.2/../../../libuser32.a(daois00386.o)
                0x004599e0                _imp__IsDlgButtonChecked@8
 .idata$5       0x004599e4        0x4 d:/mingw/bin/../lib/gcc/mingw32/4.5.2/../../../libuser32.a(daois00389.o)
                0x004599e4                _imp__IsIconic@4
 .idata$5       0x004599e8        0x4 d:/mingw/bin/../lib/gcc/mingw32/4.5.2/../../../libuser32.a(daois00394.o)
                0x004599e8                _imp__IsWindow@4
 .idata$5       0x004599ec        0x4 d:/mingw/bin/../lib/gcc/mingw32/4.5.2/../../../libuser32.a(daois00398.o)
                0x004599ec                _imp__IsZoomed@4
 .idata$5       0x004599f0        0x4 d:/mingw/bin/../lib/gcc/mingw32/4.5.2/../../../libuser32.a(daois00400.o)
                0x004599f0                _imp__KillTimer@8
 .idata$5       0x004599f4        0x4 d:/mingw/bin/../lib/gcc/mingw32/4.5.2/../../../libuser32.a(daois00405.o)
                0x004599f4                _imp__LoadCursorA@8
 .idata$5       0x004599f8        0x4 d:/mingw/bin/../lib/gcc/mingw32/4.5.2/../../../libuser32.a(daois00409.o)
                0x004599f8                _imp__LoadIconA@8
 .idata$5       0x004599fc        0x4 d:/mingw/bin/../lib/gcc/mingw32/4.5.2/../../../libuser32.a(daois00426.o)
                0x004599fc                _imp__MapDialogRect@8
 .idata$5       0x00459a00        0x4 d:/mingw/bin/../lib/gcc/mingw32/4.5.2/../../../libuser32.a(daois00433.o)
                0x00459a00                _imp__MessageBeep@4
 .idata$5       0x00459a04        0x4 d:/mingw/bin/../lib/gcc/mingw32/4.5.2/../../../libuser32.a(daois00434.o)
                0x00459a04                _imp__MessageBoxA@16
 .idata$5       0x00459a08        0x4 d:/mingw/bin/../lib/gcc/mingw32/4.5.2/../../../libuser32.a(daois00437.o)
                0x00459a08                _imp__MessageBoxIndirectA@4
 .idata$5       0x00459a0c        0x4 d:/mingw/bin/../lib/gcc/mingw32/4.5.2/../../../libuser32.a(daois00445.o)
                0x00459a0c                _imp__MoveWindow@24
 .idata$5       0x00459a10        0x4 d:/mingw/bin/../lib/gcc/mingw32/4.5.2/../../../libuser32.a(daois00446.o)
                0x00459a10                _imp__MsgWaitForMultipleObjects@20
 .idata$5       0x00459a14        0x4 d:/mingw/bin/../lib/gcc/mingw32/4.5.2/../../../libuser32.a(daois00455.o)
                0x00459a14                _imp__OpenClipboard@4
 .idata$5       0x00459a18        0x4 d:/mingw/bin/../lib/gcc/mingw32/4.5.2/../../../libuser32.a(daois00464.o)
                0x00459a18                _imp__PeekMessageA@20
 .idata$5       0x00459a1c        0x4 d:/mingw/bin/../lib/gcc/mingw32/4.5.2/../../../libuser32.a(daois00466.o)
                0x00459a1c                _imp__PostMessageA@16
 .idata$5       0x00459a20        0x4 d:/mingw/bin/../lib/gcc/mingw32/4.5.2/../../../libuser32.a(daois00468.o)
                0x00459a20                _imp__PostQuitMessage@4
 .idata$5       0x00459a24        0x4 d:/mingw/bin/../lib/gcc/mingw32/4.5.2/../../../libuser32.a(daois00479.o)
                0x00459a24                _imp__RegisterClassA@4
 .idata$5       0x00459a28        0x4 d:/mingw/bin/../lib/gcc/mingw32/4.5.2/../../../libuser32.a(daois00483.o)
                0x00459a28                _imp__RegisterClipboardFormatA@4
 .idata$5       0x00459a2c        0x4 d:/mingw/bin/../lib/gcc/mingw32/4.5.2/../../../libuser32.a(daois00491.o)
                0x00459a2c                _imp__RegisterWindowMessageA@4
 .idata$5       0x00459a30        0x4 d:/mingw/bin/../lib/gcc/mingw32/4.5.2/../../../libuser32.a(daois00493.o)
                0x00459a30                _imp__ReleaseCapture@0
 .idata$5       0x00459a34        0x4 d:/mingw/bin/../lib/gcc/mingw32/4.5.2/../../../libuser32.a(daois00494.o)
                0x00459a34                _imp__ReleaseDC@8
 .idata$5       0x00459a38        0x4 d:/mingw/bin/../lib/gcc/mingw32/4.5.2/../../../libuser32.a(daois00500.o)
                0x00459a38                _imp__ScreenToClient@8
 .idata$5       0x00459a3c        0x4 d:/mingw/bin/../lib/gcc/mingw32/4.5.2/../../../libuser32.a(daois00505.o)
                0x00459a3c                _imp__SendDlgItemMessageA@20
 .idata$5       0x00459a40        0x4 d:/mingw/bin/../lib/gcc/mingw32/4.5.2/../../../libuser32.a(daois00508.o)
                0x00459a40                _imp__SendMessageA@16
 .idata$5       0x00459a44        0x4 d:/mingw/bin/../lib/gcc/mingw32/4.5.2/../../../libuser32.a(daois00516.o)
                0x00459a44                _imp__SetActiveWindow@4
 .idata$5       0x00459a48        0x4 d:/mingw/bin/../lib/gcc/mingw32/4.5.2/../../../libuser32.a(daois00517.o)
                0x00459a48                _imp__SetCapture@4
 .idata$5       0x00459a4c        0x4 d:/mingw/bin/../lib/gcc/mingw32/4.5.2/../../../libuser32.a(daois00519.o)
                0x00459a4c                _imp__SetCaretPos@8
 .idata$5       0x00459a50        0x4 d:/mingw/bin/../lib/gcc/mingw32/4.5.2/../../../libuser32.a(daois00520.o)
                0x00459a50                _imp__SetClassLongA@12
 .idata$5       0x00459a54        0x4 d:/mingw/bin/../lib/gcc/mingw32/4.5.2/../../../libuser32.a(daois00523.o)
                0x00459a54                _imp__SetClipboardData@8
 .idata$5       0x00459a58        0x4 d:/mingw/bin/../lib/gcc/mingw32/4.5.2/../../../libuser32.a(daois00525.o)
                0x00459a58                _imp__SetCursor@4
 .idata$5       0x00459a5c        0x4 d:/mingw/bin/../lib/gcc/mingw32/4.5.2/../../../libuser32.a(daois00530.o)
                0x00459a5c                _imp__SetDlgItemTextA@12
 .idata$5       0x00459a60        0x4 d:/mingw/bin/../lib/gcc/mingw32/4.5.2/../../../libuser32.a(daois00533.o)
                0x00459a60                _imp__SetFocus@4
 .idata$5       0x00459a64        0x4 d:/mingw/bin/../lib/gcc/mingw32/4.5.2/../../../libuser32.a(daois00534.o)
                0x00459a64                _imp__SetForegroundWindow@4
 .idata$5       0x00459a68        0x4 d:/mingw/bin/../lib/gcc/mingw32/4.5.2/../../../libuser32.a(daois00535.o)
                0x00459a68                _imp__SetKeyboardState@4
 .idata$5       0x00459a6c        0x4 d:/mingw/bin/../lib/gcc/mingw32/4.5.2/../../../libuser32.a(daois00554.o)
                0x00459a6c                _imp__SetScrollInfo@16
 .idata$5       0x00459a70        0x4 d:/mingw/bin/../lib/gcc/mingw32/4.5.2/../../../libuser32.a(daois00563.o)
                0x00459a70                _imp__SetTimer@16
 .idata$5       0x00459a74        0x4 d:/mingw/bin/../lib/gcc/mingw32/4.5.2/../../../libuser32.a(daois00569.o)
                0x00459a74                _imp__SetWindowLongA@12
 .idata$5       0x00459a78        0x4 d:/mingw/bin/../lib/gcc/mingw32/4.5.2/../../../libuser32.a(daois00571.o)
                0x00459a78                _imp__SetWindowPlacement@8
 .idata$5       0x00459a7c        0x4 d:/mingw/bin/../lib/gcc/mingw32/4.5.2/../../../libuser32.a(daois00572.o)
                0x00459a7c                _imp__SetWindowPos@28
 .idata$5       0x00459a80        0x4 d:/mingw/bin/../lib/gcc/mingw32/4.5.2/../../../libuser32.a(daois00574.o)
                0x00459a80                _imp__SetWindowTextA@8
 .idata$5       0x00459a84        0x4 d:/mingw/bin/../lib/gcc/mingw32/4.5.2/../../../libuser32.a(daois00581.o)
                0x00459a84                _imp__ShowCaret@4
 .idata$5       0x00459a88        0x4 d:/mingw/bin/../lib/gcc/mingw32/4.5.2/../../../libuser32.a(daois00582.o)
                0x00459a88                _imp__ShowCursor@4
 .idata$5       0x00459a8c        0x4 d:/mingw/bin/../lib/gcc/mingw32/4.5.2/../../../libuser32.a(daois00585.o)
                0x00459a8c                _imp__ShowWindow@8
 .idata$5       0x00459a90        0x4 d:/mingw/bin/../lib/gcc/mingw32/4.5.2/../../../libuser32.a(daois00591.o)
                0x00459a90                _imp__SystemParametersInfoA@16
 .idata$5       0x00459a94        0x4 d:/mingw/bin/../lib/gcc/mingw32/4.5.2/../../../libuser32.a(daois00598.o)
                0x00459a94                _imp__ToAsciiEx@24
 .idata$5       0x00459a98        0x4 d:/mingw/bin/../lib/gcc/mingw32/4.5.2/../../../libuser32.a(daois00602.o)
                0x00459a98                _imp__TrackPopupMenu@28
 .idata$5       0x00459a9c        0x4 d:/mingw/bin/../lib/gcc/mingw32/4.5.2/../../../libuser32.a(daois00608.o)
                0x00459a9c                _imp__TranslateMessage@4
 .idata$5       0x00459aa0        0x4 d:/mingw/bin/../lib/gcc/mingw32/4.5.2/../../../libuser32.a(daois00622.o)
                0x00459aa0                _imp__UpdateWindow@4
 .idata$5       0x00459aa4        0x4 d:/mingw/bin/../lib/gcc/mingw32/4.5.2/../../../libuser32.a(daois00632.o)
                0x00459aa4                _imp__WinHelpA@16
 .idata$5       0x00459aa8        0x4 d:/mingw/bin/../lib/gcc/mingw32/4.5.2/../../../libuser32.a(daoit.o)
 .idata$5       0x00459aac        0x0 d:/mingw/bin/../lib/gcc/mingw32/4.5.2/../../../libwinmm.a(dopch.o)
 .idata$5       0x00459aac        0x4 d:/mingw/bin/../lib/gcc/mingw32/4.5.2/../../../libwinmm.a(dopcs00008.o)
                0x00459aac                _imp__PlaySoundA@12
 .idata$5       0x00459ab0        0x4 d:/mingw/bin/../lib/gcc/mingw32/4.5.2/../../../libwinmm.a(dopct.o)
 .idata$5       0x00459ab4        0x0 d:/mingw/bin/../lib/gcc/mingw32/4.5.2/../../../libwinspool.a(dykdh.o)
 .idata$5       0x00459ab4        0x4 d:/mingw/bin/../lib/gcc/mingw32/4.5.2/../../../libwinspool.a(dykds00025.o)
                0x00459ab4                _imp__ClosePrinter@4
 .idata$5       0x00459ab8        0x4 d:/mingw/bin/../lib/gcc/mingw32/4.5.2/../../../libwinspool.a(dykds00059.o)
                0x00459ab8                _imp__EndDocPrinter@4
 .idata$5       0x00459abc        0x4 d:/mingw/bin/../lib/gcc/mingw32/4.5.2/../../../libwinspool.a(dykds00060.o)
                0x00459abc                _imp__EndPagePrinter@4
 .idata$5       0x00459ac0        0x4 d:/mingw/bin/../lib/gcc/mingw32/4.5.2/../../../libwinspool.a(dykds00078.o)
                0x00459ac0                _imp__EnumPrintersA@28
 .idata$5       0x00459ac4        0x4 d:/mingw/bin/../lib/gcc/mingw32/4.5.2/../../../libwinspool.a(dykds00102.o)
                0x00459ac4                _imp__OpenPrinterA@12
 .idata$5       0x00459ac8        0x4 d:/mingw/bin/../lib/gcc/mingw32/4.5.2/../../../libwinspool.a(dykds00126.o)
                0x00459ac8                _imp__StartDocPrinterA@12
 .idata$5       0x00459acc        0x4 d:/mingw/bin/../lib/gcc/mingw32/4.5.2/../../../libwinspool.a(dykds00128.o)
                0x00459acc                _imp__StartPagePrinter@4
 .idata$5       0x00459ad0        0x4 d:/mingw/bin/../lib/gcc/mingw32/4.5.2/../../../libwinspool.a(dykds00130.o)
                0x00459ad0                _imp__WritePrinter@16
 .idata$5       0x00459ad4        0x4 d:/mingw/bin/../lib/gcc/mingw32/4.5.2/../../../libwinspool.a(dykdt.o)
                0x00459ad8                __IAT_end__ = .
 SORT(*)(.idata$6)
 .idata$6       0x00459ad8       0x10 d:/mingw/bin/../lib/gcc/mingw32/4.5.2/../../../libadvapi32.a(dgxgs00245.o)
 .idata$6       0x00459ae8        0xe d:/mingw/bin/../lib/gcc/mingw32/4.5.2/../../../libadvapi32.a(dgxgs00386.o)
 .idata$6       0x00459af6       0x10 d:/mingw/bin/../lib/gcc/mingw32/4.5.2/../../../libadvapi32.a(dgxgs00389.o)
 .idata$6       0x00459b06       0x12 d:/mingw/bin/../lib/gcc/mingw32/4.5.2/../../../libadvapi32.a(dgxgs00390.o)
 .idata$6       0x00459b18       0x10 d:/mingw/bin/../lib/gcc/mingw32/4.5.2/../../../libadvapi32.a(dgxgs00393.o)
 .idata$6       0x00459b28       0x12 d:/mingw/bin/../lib/gcc/mingw32/4.5.2/../../../libadvapi32.a(dgxgs00397.o)
 .idata$6       0x00459b3a        0xe d:/mingw/bin/../lib/gcc/mingw32/4.5.2/../../../libadvapi32.a(dgxgs00400.o)
 .idata$6       0x00459b48        0xe d:/mingw/bin/../lib/gcc/mingw32/4.5.2/../../../libadvapi32.a(dgxgs00412.o)
 .idata$6       0x00459b56       0x14 d:/mingw/bin/../lib/gcc/mingw32/4.5.2/../../../libadvapi32.a(dgxgs00423.o)
 .idata$6       0x00459b6a       0x12 d:/mingw/bin/../lib/gcc/mingw32/4.5.2/../../../libadvapi32.a(dgxgs00434.o)
 .idata$6       0x00459b7c        0xe d:/mingw/bin/../lib/gcc/mingw32/4.5.2/../../../libcomctl32.a(dqqhs00042.o)
 .idata$6       0x00459b8a       0x16 d:/mingw/bin/../lib/gcc/mingw32/4.5.2/../../../libcomctl32.a(dqqhs00094.o)
 .idata$6       0x00459ba0       0x10 d:/mingw/bin/../lib/gcc/mingw32/4.5.2/../../../libcomctl32.a(dqqhs00097.o)
 .idata$6       0x00459bb0       0x10 d:/mingw/bin/../lib/gcc/mingw32/4.5.2/../../../libcomctl32.a(dqqhs00098.o)
 .idata$6       0x00459bc0       0x10 d:/mingw/bin/../lib/gcc/mingw32/4.5.2/../../../libcomdlg32.a(demds00000.o)
 .idata$6       0x00459bd0        0xe d:/mingw/bin/../lib/gcc/mingw32/4.5.2/../../../libcomdlg32.a(demds00002.o)
 .idata$6       0x00459bde       0x14 d:/mingw/bin/../lib/gcc/mingw32/4.5.2/../../../libcomdlg32.a(demds00009.o)
 .idata$6       0x00459bf2       0x14 d:/mingw/bin/../lib/gcc/mingw32/4.5.2/../../../libcomdlg32.a(demds00011.o)
 .idata$6       0x00459c06       0x10 d:/mingw/bin/../lib/gcc/mingw32/4.5.2/../../../libgdi32.a(dkfhs00028.o)
 .idata$6       0x00459c16       0x1a d:/mingw/bin/../lib/gcc/mingw32/4.5.2/../../../libgdi32.a(dkfhs00033.o)
 .idata$6       0x00459c30       0x16 d:/mingw/bin/../lib/gcc/mingw32/4.5.2/../../../libgdi32.a(dkfhs00034.o)
 .idata$6       0x00459c46        0xe d:/mingw/bin/../lib/gcc/mingw32/4.5.2/../../../libgdi32.a(dkfhs00046.o)
 .idata$6       0x00459c54       0x16 d:/mingw/bin/../lib/gcc/mingw32/4.5.2/../../../libgdi32.a(dkfhs00047.o)
 .idata$6       0x00459c6a       0x10 d:/mingw/bin/../lib/gcc/mingw32/4.5.2/../../../libgdi32.a(dkfhs00056.o)
 .idata$6       0x00459c7a        0xc d:/mingw/bin/../lib/gcc/mingw32/4.5.2/../../../libgdi32.a(dkfhs00058.o)
 .idata$6       0x00459c86       0x14 d:/mingw/bin/../lib/gcc/mingw32/4.5.2/../../../libgdi32.a(dkfhs00067.o)
 .idata$6       0x00459c9a        0xc d:/mingw/bin/../lib/gcc/mingw32/4.5.2/../../../libgdi32.a(dkfhs00070.o)
 .idata$6       0x00459ca6       0x10 d:/mingw/bin/../lib/gcc/mingw32/4.5.2/../../../libgdi32.a(dkfhs00073.o)
 .idata$6       0x00459cb6       0x12 d:/mingw/bin/../lib/gcc/mingw32/4.5.2/../../../libgdi32.a(dkfhs00096.o)
 .idata$6       0x00459cc8        0xe d:/mingw/bin/../lib/gcc/mingw32/4.5.2/../../../libgdi32.a(dkfhs00102.o)
 .idata$6       0x00459cd6        0xe d:/mingw/bin/../lib/gcc/mingw32/4.5.2/../../../libgdi32.a(dkfhs00103.o)
 .idata$6       0x00459ce4        0xc d:/mingw/bin/../lib/gcc/mingw32/4.5.2/../../../libgdi32.a(dkfhs00122.o)
 .idata$6       0x00459cf0       0x1a d:/mingw/bin/../lib/gcc/mingw32/4.5.2/../../../libgdi32.a(dkfhs00126.o)
 .idata$6       0x00459d0a       0x12 d:/mingw/bin/../lib/gcc/mingw32/4.5.2/../../../libgdi32.a(dkfhs00129.o)
 .idata$6       0x00459d1c       0x12 d:/mingw/bin/../lib/gcc/mingw32/4.5.2/../../../libgdi32.a(dkfhs00130.o)
 .idata$6       0x00459d2e       0x10 d:/mingw/bin/../lib/gcc/mingw32/4.5.2/../../../libgdi32.a(dkfhs00131.o)
 .idata$6       0x00459d3e       0x10 d:/mingw/bin/../lib/gcc/mingw32/4.5.2/../../../libgdi32.a(dkfhs00134.o)
 .idata$6       0x00459d4e       0x1a d:/mingw/bin/../lib/gcc/mingw32/4.5.2/../../../libgdi32.a(dkfhs00136.o)
 .idata$6       0x00459d68       0x10 d:/mingw/bin/../lib/gcc/mingw32/4.5.2/../../../libgdi32.a(dkfhs00148.o)
 .idata$6       0x00459d78        0xe d:/mingw/bin/../lib/gcc/mingw32/4.5.2/../../../libgdi32.a(dkfhs00185.o)
 .idata$6       0x00459d86        0xc d:/mingw/bin/../lib/gcc/mingw32/4.5.2/../../../libgdi32.a(dkfhs00192.o)
 .idata$6       0x00459d92       0x12 d:/mingw/bin/../lib/gcc/mingw32/4.5.2/../../../libgdi32.a(dkfhs00201.o)
 .idata$6       0x00459da4       0x18 d:/mingw/bin/../lib/gcc/mingw32/4.5.2/../../../libgdi32.a(dkfhs00210.o)
 .idata$6       0x00459dbc       0x18 d:/mingw/bin/../lib/gcc/mingw32/4.5.2/../../../libgdi32.a(dkfhs00213.o)
 .idata$6       0x00459dd4       0x12 d:/mingw/bin/../lib/gcc/mingw32/4.5.2/../../../libgdi32.a(dkfhs00219.o)
 .idata$6       0x00459de6       0x14 d:/mingw/bin/../lib/gcc/mingw32/4.5.2/../../../libgdi32.a(dkfhs00227.o)
 .idata$6       0x00459dfa        0xa d:/mingw/bin/../lib/gcc/mingw32/4.5.2/../../../libgdi32.a(dkfhs00231.o)
 .idata$6       0x00459e04        0xc d:/mingw/bin/../lib/gcc/mingw32/4.5.2/../../../libgdi32.a(dkfhs00234.o)
 .idata$6       0x00459e10        0xc d:/mingw/bin/../lib/gcc/mingw32/4.5.2/../../../libgdi32.a(dkfhs00256.o)
 .idata$6       0x00459e1c       0x12 d:/mingw/bin/../lib/gcc/mingw32/4.5.2/../../../libgdi32.a(dkfhs00260.o)
 .idata$6       0x00459e2e        0xc d:/mingw/bin/../lib/gcc/mingw32/4.5.2/../../../libgdi32.a(dkfhs00263.o)
 .idata$6       0x00459e3a       0x10 d:/mingw/bin/../lib/gcc/mingw32/4.5.2/../../../libgdi32.a(dkfhs00281.o)
 .idata$6       0x00459e4a       0x10 d:/mingw/bin/../lib/gcc/mingw32/4.5.2/../../../libgdi32.a(dkfhs00282.o)
 .idata$6       0x00459e5a        0xe d:/mingw/bin/../lib/gcc/mingw32/4.5.2/../../../libgdi32.a(dkfhs00287.o)
 .idata$6       0x00459e68        0xc d:/mingw/bin/../lib/gcc/mingw32/4.5.2/../../../libgdi32.a(dkfhs00288.o)
 .idata$6       0x00459e74        0xe d:/mingw/bin/../lib/gcc/mingw32/4.5.2/../../../libgdi32.a(dkfhs00306.o)
 .idata$6       0x00459e82       0x14 d:/mingw/bin/../lib/gcc/mingw32/4.5.2/../../../libgdi32.a(dkfhs00311.o)
 .idata$6       0x00459e96        0xc d:/mingw/bin/../lib/gcc/mingw32/4.5.2/../../../libgdi32.a(dkfhs00312.o)
 .idata$6       0x00459ea2       0x10 d:/mingw/bin/../lib/gcc/mingw32/4.5.2/../../../libgdi32.a(dkfhs00321.o)
 .idata$6       0x00459eb2       0x10 d:/mingw/bin/../lib/gcc/mingw32/4.5.2/../../../libgdi32.a(dkfhs00323.o)
 .idata$6       0x00459ec2        0xc d:/mingw/bin/../lib/gcc/mingw32/4.5.2/../../../libgdi32.a(dkfhs00339.o)
 .idata$6       0x00459ece       0x18 d:/mingw/bin/../lib/gcc/mingw32/4.5.2/../../../libgdi32.a(dkfhs00341.o)
 .idata$6       0x00459ee6       0x12 d:/mingw/bin/../lib/gcc/mingw32/4.5.2/../../../libgdi32.a(dkfhs00342.o)
 .idata$6       0x00459ef8       0x10 d:/mingw/bin/../lib/gcc/mingw32/4.5.2/../../../libgdi32.a(dkfhs00343.o)
 .idata$6       0x00459f08       0x1c d:/mingw/bin/../lib/gcc/mingw32/4.5.2/../../../libimm32.a(dkrgs00023.o)
 .idata$6       0x00459f24       0x10 d:/mingw/bin/../lib/gcc/mingw32/4.5.2/../../../libimm32.a(dkrgs00025.o)
 .idata$6       0x00459f34       0x14 d:/mingw/bin/../lib/gcc/mingw32/4.5.2/../../../libimm32.a(dkrgs00059.o)
 .idata$6       0x00459f48       0x1a d:/mingw/bin/../lib/gcc/mingw32/4.5.2/../../../libimm32.a(dkrgs00061.o)
 .idata$6       0x00459f62       0x1a d:/mingw/bin/../lib/gcc/mingw32/4.5.2/../../../libimm32.a(dkrgs00065.o)
 .idata$6       0x00459f7c       0x10 d:/mingw/bin/../lib/gcc/mingw32/4.5.2/../../../libkernel32.a(dchds00016.o)
 .idata$6       0x00459f8c        0x8 d:/mingw/bin/../lib/gcc/mingw32/4.5.2/../../../libkernel32.a(dchds00054.o)
 .idata$6       0x00459f94       0x12 d:/mingw/bin/../lib/gcc/mingw32/4.5.2/../../../libkernel32.a(dchds00079.o)
 .idata$6       0x00459fa6        0xe d:/mingw/bin/../lib/gcc/mingw32/4.5.2/../../../libkernel32.a(dchds00082.o)
 .idata$6       0x00459fb4       0x10 d:/mingw/bin/../lib/gcc/mingw32/4.5.2/../../../libkernel32.a(dchds00129.o)
 .idata$6       0x00459fc4        0xe d:/mingw/bin/../lib/gcc/mingw32/4.5.2/../../../libkernel32.a(dchds00135.o)
 .idata$6       0x00459fd2       0x16 d:/mingw/bin/../lib/gcc/mingw32/4.5.2/../../../libkernel32.a(dchds00136.o)
 .idata$6       0x00459fe8        0xe d:/mingw/bin/../lib/gcc/mingw32/4.5.2/../../../libkernel32.a(dchds00160.o)
 .idata$6       0x00459ff6       0x12 d:/mingw/bin/../lib/gcc/mingw32/4.5.2/../../../libkernel32.a(dchds00163.o)
 .idata$6       0x0045a008       0x10 d:/mingw/bin/../lib/gcc/mingw32/4.5.2/../../../libkernel32.a(dchds00179.o)
 .idata$6       0x0045a018       0x18 d:/mingw/bin/../lib/gcc/mingw32/4.5.2/../../../libkernel32.a(dchds00207.o)
 .idata$6       0x0045a030       0x18 d:/mingw/bin/../lib/gcc/mingw32/4.5.2/../../../libkernel32.a(dchds00236.o)
 .idata$6       0x0045a048        0xe d:/mingw/bin/../lib/gcc/mingw32/4.5.2/../../../libkernel32.a(dchds00279.o)
 .idata$6       0x0045a056        0xe d:/mingw/bin/../lib/gcc/mingw32/4.5.2/../../../libkernel32.a(dchds00352.o)
 .idata$6       0x0045a064        0xa d:/mingw/bin/../lib/gcc/mingw32/4.5.2/../../../libkernel32.a(dchds00358.o)
 .idata$6       0x0045a06e        0xc d:/mingw/bin/../lib/gcc/mingw32/4.5.2/../../../libkernel32.a(dchds00368.o)
 .idata$6       0x0045a07a       0x10 d:/mingw/bin/../lib/gcc/mingw32/4.5.2/../../../libkernel32.a(dchds00386.o)
 .idata$6       0x0045a08a       0x12 d:/mingw/bin/../lib/gcc/mingw32/4.5.2/../../../libkernel32.a(dchds00388.o)
 .idata$6       0x0045a09c       0x18 d:/mingw/bin/../lib/gcc/mingw32/4.5.2/../../../libkernel32.a(dchds00444.o)
 .idata$6       0x0045a0b4       0x1a d:/mingw/bin/../lib/gcc/mingw32/4.5.2/../../../libkernel32.a(dchds00473.o)
 .idata$6       0x0045a0ce       0x10 d:/mingw/bin/../lib/gcc/mingw32/4.5.2/../../../libkernel32.a(dchds00510.o)
 .idata$6       0x0045a0de       0x10 d:/mingw/bin/../lib/gcc/mingw32/4.5.2/../../../libkernel32.a(dchds00511.o)
 .idata$6       0x0045a0ee       0x12 d:/mingw/bin/../lib/gcc/mingw32/4.5.2/../../../libkernel32.a(dchds00512.o)
 .idata$6       0x0045a100       0x16 d:/mingw/bin/../lib/gcc/mingw32/4.5.2/../../../libkernel32.a(dchds00527.o)
 .idata$6       0x0045a116       0x14 d:/mingw/bin/../lib/gcc/mingw32/4.5.2/../../../libkernel32.a(dchds00529.o)
 .idata$6       0x0045a12a        0xc d:/mingw/bin/../lib/gcc/mingw32/4.5.2/../../../libkernel32.a(dchds00563.o)
 .idata$6       0x0045a136       0x16 d:/mingw/bin/../lib/gcc/mingw32/4.5.2/../../../libkernel32.a(dchds00564.o)
 .idata$6       0x0045a14c       0x12 d:/mingw/bin/../lib/gcc/mingw32/4.5.2/../../../libkernel32.a(dchds00577.o)
 .idata$6       0x0045a15e       0x12 d:/mingw/bin/../lib/gcc/mingw32/4.5.2/../../../libkernel32.a(dchds00606.o)
 .idata$6       0x0045a170       0x10 d:/mingw/bin/../lib/gcc/mingw32/4.5.2/../../../libkernel32.a(dchds00608.o)
 .idata$6       0x0045a180       0x16 d:/mingw/bin/../lib/gcc/mingw32/4.5.2/../../../libkernel32.a(dchds00619.o)
 .idata$6       0x0045a196       0x10 d:/mingw/bin/../lib/gcc/mingw32/4.5.2/../../../libkernel32.a(dchds00656.o)
 .idata$6       0x0045a1a6       0x10 d:/mingw/bin/../lib/gcc/mingw32/4.5.2/../../../libkernel32.a(dchds00671.o)
 .idata$6       0x0045a1b6       0x18 d:/mingw/bin/../lib/gcc/mingw32/4.5.2/../../../libkernel32.a(dchds00682.o)
 .idata$6       0x0045a1ce        0xe d:/mingw/bin/../lib/gcc/mingw32/4.5.2/../../../libkernel32.a(dchds00687.o)
 .idata$6       0x0045a1dc        0xe d:/mingw/bin/../lib/gcc/mingw32/4.5.2/../../../libkernel32.a(dchds00694.o)
 .idata$6       0x0045a1ea        0xe d:/mingw/bin/../lib/gcc/mingw32/4.5.2/../../../libkernel32.a(dchds00698.o)
 .idata$6       0x0045a1f8       0x10 d:/mingw/bin/../lib/gcc/mingw32/4.5.2/../../../libkernel32.a(dchds00705.o)
 .idata$6       0x0045a208       0x1c d:/mingw/bin/../lib/gcc/mingw32/4.5.2/../../../libkernel32.a(dchds00734.o)
 .idata$6       0x0045a224       0x14 d:/mingw/bin/../lib/gcc/mingw32/4.5.2/../../../libkernel32.a(dchds00763.o)
 .idata$6       0x0045a238       0x18 d:/mingw/bin/../lib/gcc/mingw32/4.5.2/../../../libkernel32.a(dchds00814.o)
 .idata$6       0x0045a250       0x10 d:/mingw/bin/../lib/gcc/mingw32/4.5.2/../../../libkernel32.a(dchds00817.o)
 .idata$6       0x0045a260       0x10 d:/mingw/bin/../lib/gcc/mingw32/4.5.2/../../../libkernel32.a(dchds00844.o)
 .idata$6       0x0045a270        0xa d:/mingw/bin/../lib/gcc/mingw32/4.5.2/../../../libkernel32.a(dchds00859.o)
 .idata$6       0x0045a27a       0x16 d:/mingw/bin/../lib/gcc/mingw32/4.5.2/../../../libkernel32.a(dchds00860.o)
 .idata$6       0x0045a290        0xc d:/mingw/bin/../lib/gcc/mingw32/4.5.2/../../../libkernel32.a(dchds00947.o)
 .idata$6       0x0045a29c       0x10 d:/mingw/bin/../lib/gcc/mingw32/4.5.2/../../../libkernel32.a(dchds01010.o)
 .idata$6       0x0045a2ac       0x10 d:/mingw/bin/../lib/gcc/mingw32/4.5.2/../../../libkernel32.a(dchds01013.o)
 .idata$6       0x0045a2bc       0x12 d:/mingw/bin/../lib/gcc/mingw32/4.5.2/../../../libkernel32.a(dchds01014.o)
 .idata$6       0x0045a2ce       0x18 d:/mingw/bin/../lib/gcc/mingw32/4.5.2/../../../libkernel32.a(dchds01052.o)
 .idata$6       0x0045a2e6        0xc d:/mingw/bin/../lib/gcc/mingw32/4.5.2/../../../libkernel32.a(dchds01065.o)
 .idata$6       0x0045a2f2       0x18 d:/mingw/bin/../lib/gcc/mingw32/4.5.2/../../../libkernel32.a(dchds01088.o)
 .idata$6       0x0045a30a       0x1e d:/mingw/bin/../lib/gcc/mingw32/4.5.2/../../../libkernel32.a(dchds01140.o)
 .idata$6       0x0045a328        0xe d:/mingw/bin/../lib/gcc/mingw32/4.5.2/../../../libkernel32.a(dchds01173.o)
 .idata$6       0x0045a336       0x12 d:/mingw/bin/../lib/gcc/mingw32/4.5.2/../../../libkernel32.a(dchds01188.o)
 .idata$6       0x0045a348       0x12 d:/mingw/bin/../lib/gcc/mingw32/4.5.2/../../../libkernel32.a(dchds01213.o)
 .idata$6       0x0045a35a       0x10 d:/mingw/bin/../lib/gcc/mingw32/4.5.2/../../../libkernel32.a(dchds01215.o)
 .idata$6       0x0045a36a       0x16 d:/mingw/bin/../lib/gcc/mingw32/4.5.2/../../../libkernel32.a(dchds01223.o)
 .idata$6       0x0045a380       0x16 d:/mingw/bin/../lib/gcc/mingw32/4.5.2/../../../libkernel32.a(dchds01247.o)
 .idata$6       0x0045a396        0xc d:/mingw/bin/../lib/gcc/mingw32/4.5.2/../../../libkernel32.a(dchds01267.o)
 .idata$6       0x0045a3a2        0xc d:/mingw/bin/../lib/gcc/mingw32/4.5.2/../../../libmoldname.a(dgzls00084.o)
 .idata$6       0x0045a3ae       0x10 d:/mingw/bin/../lib/gcc/mingw32/4.5.2/../../../libmsvcrt.a(duyms00055.o)
 .idata$6       0x0045a3be       0x10 d:/mingw/bin/../lib/gcc/mingw32/4.5.2/../../../libmsvcrt.a(duyms00065.o)
 .idata$6       0x0045a3ce       0x10 d:/mingw/bin/../lib/gcc/mingw32/4.5.2/../../../libmsvcrt.a(duyms00077.o)
 .idata$6       0x0045a3de        0xe d:/mingw/bin/../lib/gcc/mingw32/4.5.2/../../../libmsvcrt.a(duyms00079.o)
 .idata$6       0x0045a3ec       0x12 d:/mingw/bin/../lib/gcc/mingw32/4.5.2/../../../libmsvcrt.a(duyms00099.o)
 .idata$6       0x0045a3fe        0xa d:/mingw/bin/../lib/gcc/mingw32/4.5.2/../../../libmsvcrt.a(duyms00137.o)
 .idata$6       0x0045a408        0xa d:/mingw/bin/../lib/gcc/mingw32/4.5.2/../../../libmsvcrt.a(duyms00147.o)
 .idata$6       0x0045a412        0x8 d:/mingw/bin/../lib/gcc/mingw32/4.5.2/../../../libmsvcrt.a(duyms00266.o)
 .idata$6       0x0045a41a        0xc d:/mingw/bin/../lib/gcc/mingw32/4.5.2/../../../libmsvcrt.a(duyms00268.o)
 .idata$6       0x0045a426        0xa d:/mingw/bin/../lib/gcc/mingw32/4.5.2/../../../libmsvcrt.a(duyms00383.o)
 .idata$6       0x0045a430        0xa d:/mingw/bin/../lib/gcc/mingw32/4.5.2/../../../libmsvcrt.a(duyms00392.o)
 .idata$6       0x0045a43a        0xc d:/mingw/bin/../lib/gcc/mingw32/4.5.2/../../../libmsvcrt.a(duyms00426.o)
 .idata$6       0x0045a446        0xe d:/mingw/bin/../lib/gcc/mingw32/4.5.2/../../../libmsvcrt.a(duyms00490.o)
 .idata$6       0x0045a454        0xc d:/mingw/bin/../lib/gcc/mingw32/4.5.2/../../../libmsvcrt.a(duyms00538.o)
 .idata$6       0x0045a460        0x8 d:/mingw/bin/../lib/gcc/mingw32/4.5.2/../../../libmsvcrt.a(duyms00583.o)
 .idata$6       0x0045a468        0xa d:/mingw/bin/../lib/gcc/mingw32/4.5.2/../../../libmsvcrt.a(duyms00590.o)
 .idata$6       0x0045a472        0x8 d:/mingw/bin/../lib/gcc/mingw32/4.5.2/../../../libmsvcrt.a(duyms00591.o)
 .idata$6       0x0045a47a        0x8 d:/mingw/bin/../lib/gcc/mingw32/4.5.2/../../../libmsvcrt.a(duyms00592.o)
 .idata$6       0x0045a482        0xa d:/mingw/bin/../lib/gcc/mingw32/4.5.2/../../../libmsvcrt.a(duyms00595.o)
 .idata$6       0x0045a48c        0x8 d:/mingw/bin/../lib/gcc/mingw32/4.5.2/../../../libmsvcrt.a(duyms00604.o)
 .idata$6       0x0045a494        0xa d:/mingw/bin/../lib/gcc/mingw32/4.5.2/../../../libmsvcrt.a(duyms00607.o)
 .idata$6       0x0045a49e        0xa d:/mingw/bin/../lib/gcc/mingw32/4.5.2/../../../libmsvcrt.a(duyms00610.o)
 .idata$6       0x0045a4a8        0x8 d:/mingw/bin/../lib/gcc/mingw32/4.5.2/../../../libmsvcrt.a(duyms00611.o)
 .idata$6       0x0045a4b0        0x8 d:/mingw/bin/../lib/gcc/mingw32/4.5.2/../../../libmsvcrt.a(duyms00613.o)
 .idata$6       0x0045a4b8        0x8 d:/mingw/bin/../lib/gcc/mingw32/4.5.2/../../../libmsvcrt.a(duyms00618.o)
 .idata$6       0x0045a4c0        0xa d:/mingw/bin/../lib/gcc/mingw32/4.5.2/../../../libmsvcrt.a(duyms00619.o)
 .idata$6       0x0045a4ca        0x8 d:/mingw/bin/../lib/gcc/mingw32/4.5.2/../../../libmsvcrt.a(duyms00621.o)
 .idata$6       0x0045a4d2        0x8 d:/mingw/bin/../lib/gcc/mingw32/4.5.2/../../../libmsvcrt.a(duyms00625.o)
 .idata$6       0x0045a4da        0xa d:/mingw/bin/../lib/gcc/mingw32/4.5.2/../../../libmsvcrt.a(duyms00633.o)
 .idata$6       0x0045a4e4        0xa d:/mingw/bin/../lib/gcc/mingw32/4.5.2/../../../libmsvcrt.a(duyms00637.o)
 .idata$6       0x0045a4ee        0xa d:/mingw/bin/../lib/gcc/mingw32/4.5.2/../../../libmsvcrt.a(duyms00676.o)
 .idata$6       0x0045a4f8        0xa d:/mingw/bin/../lib/gcc/mingw32/4.5.2/../../../libmsvcrt.a(duyms00682.o)
 .idata$6       0x0045a502        0xa d:/mingw/bin/../lib/gcc/mingw32/4.5.2/../../../libmsvcrt.a(duyms00683.o)
 .idata$6       0x0045a50c        0x8 d:/mingw/bin/../lib/gcc/mingw32/4.5.2/../../../libmsvcrt.a(duyms00695.o)
 .idata$6       0x0045a514        0xa d:/mingw/bin/../lib/gcc/mingw32/4.5.2/../../../libmsvcrt.a(duyms00698.o)
 .idata$6       0x0045a51e        0xa d:/mingw/bin/../lib/gcc/mingw32/4.5.2/../../../libmsvcrt.a(duyms00699.o)
 .idata$6       0x0045a528        0xa d:/mingw/bin/../lib/gcc/mingw32/4.5.2/../../../libmsvcrt.a(duyms00706.o)
 .idata$6       0x0045a532        0xa d:/mingw/bin/../lib/gcc/mingw32/4.5.2/../../../libmsvcrt.a(duyms00709.o)
 .idata$6       0x0045a53c        0xa d:/mingw/bin/../lib/gcc/mingw32/4.5.2/../../../libmsvcrt.a(duyms00712.o)
 .idata$6       0x0045a546        0xa d:/mingw/bin/../lib/gcc/mingw32/4.5.2/../../../libmsvcrt.a(duyms00713.o)
 .idata$6       0x0045a550        0xa d:/mingw/bin/../lib/gcc/mingw32/4.5.2/../../../libmsvcrt.a(duyms00714.o)
 .idata$6       0x0045a55a        0xa d:/mingw/bin/../lib/gcc/mingw32/4.5.2/../../../libmsvcrt.a(duyms00715.o)
 .idata$6       0x0045a564        0xa d:/mingw/bin/../lib/gcc/mingw32/4.5.2/../../../libmsvcrt.a(duyms00717.o)
 .idata$6       0x0045a56e        0xa d:/mingw/bin/../lib/gcc/mingw32/4.5.2/../../../libmsvcrt.a(duyms00718.o)
 .idata$6       0x0045a578        0xc d:/mingw/bin/../lib/gcc/mingw32/4.5.2/../../../libmsvcrt.a(duyms00720.o)
 .idata$6       0x0045a584        0xa d:/mingw/bin/../lib/gcc/mingw32/4.5.2/../../../libmsvcrt.a(duyms00723.o)
 .idata$6       0x0045a58e        0xa d:/mingw/bin/../lib/gcc/mingw32/4.5.2/../../../libmsvcrt.a(duyms00724.o)
 .idata$6       0x0045a598        0xa d:/mingw/bin/../lib/gcc/mingw32/4.5.2/../../../libmsvcrt.a(duyms00726.o)
 .idata$6       0x0045a5a2        0xa d:/mingw/bin/../lib/gcc/mingw32/4.5.2/../../../libmsvcrt.a(duyms00727.o)
 .idata$6       0x0045a5ac        0xa d:/mingw/bin/../lib/gcc/mingw32/4.5.2/../../../libmsvcrt.a(duyms00731.o)
 .idata$6       0x0045a5b6        0xa d:/mingw/bin/../lib/gcc/mingw32/4.5.2/../../../libmsvcrt.a(duyms00732.o)
 .idata$6       0x0045a5c0        0xa d:/mingw/bin/../lib/gcc/mingw32/4.5.2/../../../libmsvcrt.a(duyms00742.o)
 .idata$6       0x0045a5ca        0xa d:/mingw/bin/../lib/gcc/mingw32/4.5.2/../../../libmsvcrt.a(duyms00743.o)
 .idata$6       0x0045a5d4        0xc d:/mingw/bin/../lib/gcc/mingw32/4.5.2/../../../libmsvcrt.a(duyms00748.o)
 .idata$6       0x0045a5e0       0x14 d:/mingw/bin/../lib/gcc/mingw32/4.5.2/../../../libole32.a(dyads00012.o)
 .idata$6       0x0045a5f4       0x10 d:/mingw/bin/../lib/gcc/mingw32/4.5.2/../../../libole32.a(dyads00037.o)
 .idata$6       0x0045a604       0x12 d:/mingw/bin/../lib/gcc/mingw32/4.5.2/../../../libole32.a(dyads00072.o)
 .idata$6       0x0045a616       0x10 d:/mingw/bin/../lib/gcc/mingw32/4.5.2/../../../libshell32.a(dukis00144.o)
 .idata$6       0x0045a626        0xe d:/mingw/bin/../lib/gcc/mingw32/4.5.2/../../../libuser32.a(daois00006.o)
 .idata$6       0x0045a634        0xe d:/mingw/bin/../lib/gcc/mingw32/4.5.2/../../../libuser32.a(daois00011.o)
 .idata$6       0x0045a642       0x12 d:/mingw/bin/../lib/gcc/mingw32/4.5.2/../../../libuser32.a(daois00053.o)
 .idata$6       0x0045a654       0x10 d:/mingw/bin/../lib/gcc/mingw32/4.5.2/../../../libuser32.a(daois00054.o)
 .idata$6       0x0045a664       0x14 d:/mingw/bin/../lib/gcc/mingw32/4.5.2/../../../libuser32.a(daois00056.o)
 .idata$6       0x0045a678       0x12 d:/mingw/bin/../lib/gcc/mingw32/4.5.2/../../../libuser32.a(daois00061.o)
 .idata$6       0x0045a68a        0xe d:/mingw/bin/../lib/gcc/mingw32/4.5.2/../../../libuser32.a(daois00074.o)
 .idata$6       0x0045a698       0x16 d:/mingw/bin/../lib/gcc/mingw32/4.5.2/../../../libuser32.a(daois00080.o)
 .idata$6       0x0045a6ae        0xe d:/mingw/bin/../lib/gcc/mingw32/4.5.2/../../../libuser32.a(daois00088.o)
 .idata$6       0x0045a6bc       0x12 d:/mingw/bin/../lib/gcc/mingw32/4.5.2/../../../libuser32.a(daois00089.o)
 .idata$6       0x0045a6ce       0x12 d:/mingw/bin/../lib/gcc/mingw32/4.5.2/../../../libuser32.a(daois00090.o)
 .idata$6       0x0045a6e0        0xe d:/mingw/bin/../lib/gcc/mingw32/4.5.2/../../../libuser32.a(daois00127.o)
 .idata$6       0x0045a6ee       0x12 d:/mingw/bin/../lib/gcc/mingw32/4.5.2/../../../libuser32.a(daois00134.o)
 .idata$6       0x0045a700        0xe d:/mingw/bin/../lib/gcc/mingw32/4.5.2/../../../libuser32.a(daois00137.o)
 .idata$6       0x0045a70e       0x10 d:/mingw/bin/../lib/gcc/mingw32/4.5.2/../../../libuser32.a(daois00140.o)
 .idata$6       0x0045a71e       0x10 d:/mingw/bin/../lib/gcc/mingw32/4.5.2/../../../libuser32.a(daois00144.o)
 .idata$6       0x0045a72e       0x12 d:/mingw/bin/../lib/gcc/mingw32/4.5.2/../../../libuser32.a(daois00147.o)
 .idata$6       0x0045a740       0x14 d:/mingw/bin/../lib/gcc/mingw32/4.5.2/../../../libuser32.a(daois00149.o)
 .idata$6       0x0045a754        0xc d:/mingw/bin/../lib/gcc/mingw32/4.5.2/../../../libuser32.a(daois00163.o)
 .idata$6       0x0045a760       0x12 d:/mingw/bin/../lib/gcc/mingw32/4.5.2/../../../libuser32.a(daois00177.o)
 .idata$6       0x0045a772       0x12 d:/mingw/bin/../lib/gcc/mingw32/4.5.2/../../../libuser32.a(daois00178.o)
 .idata$6       0x0045a784       0x10 d:/mingw/bin/../lib/gcc/mingw32/4.5.2/../../../libuser32.a(daois00180.o)
 .idata$6       0x0045a794        0xc d:/mingw/bin/../lib/gcc/mingw32/4.5.2/../../../libuser32.a(daois00182.o)
 .idata$6       0x0045a7a0        0xc d:/mingw/bin/../lib/gcc/mingw32/4.5.2/../../../libuser32.a(daois00184.o)
 .idata$6       0x0045a7ac        0xe d:/mingw/bin/../lib/gcc/mingw32/4.5.2/../../../libuser32.a(daois00214.o)
 .idata$6       0x0045a7ba        0xe d:/mingw/bin/../lib/gcc/mingw32/4.5.2/../../../libuser32.a(daois00224.o)
 .idata$6       0x0045a7c8       0x14 d:/mingw/bin/../lib/gcc/mingw32/4.5.2/../../../libuser32.a(daois00225.o)
 .idata$6       0x0045a7dc       0x10 d:/mingw/bin/../lib/gcc/mingw32/4.5.2/../../../libuser32.a(daois00236.o)
 .idata$6       0x0045a7ec       0x14 d:/mingw/bin/../lib/gcc/mingw32/4.5.2/../../../libuser32.a(daois00238.o)
 .idata$6       0x0045a800       0x10 d:/mingw/bin/../lib/gcc/mingw32/4.5.2/../../../libuser32.a(daois00247.o)
 .idata$6       0x0045a810        0x8 d:/mingw/bin/../lib/gcc/mingw32/4.5.2/../../../libuser32.a(daois00248.o)
 .idata$6       0x0045a818       0x14 d:/mingw/bin/../lib/gcc/mingw32/4.5.2/../../../libuser32.a(daois00250.o)
 .idata$6       0x0045a82c        0xe d:/mingw/bin/../lib/gcc/mingw32/4.5.2/../../../libuser32.a(daois00253.o)
 .idata$6       0x0045a83a       0x12 d:/mingw/bin/../lib/gcc/mingw32/4.5.2/../../../libuser32.a(daois00255.o)
 .idata$6       0x0045a84c       0x16 d:/mingw/bin/../lib/gcc/mingw32/4.5.2/../../../libuser32.a(daois00257.o)
 .idata$6       0x0045a862       0x16 d:/mingw/bin/../lib/gcc/mingw32/4.5.2/../../../libuser32.a(daois00259.o)
 .idata$6       0x0045a878       0x14 d:/mingw/bin/../lib/gcc/mingw32/4.5.2/../../../libuser32.a(daois00269.o)
 .idata$6       0x0045a88c       0x14 d:/mingw/bin/../lib/gcc/mingw32/4.5.2/../../../libuser32.a(daois00273.o)
 .idata$6       0x0045a8a0        0xe d:/mingw/bin/../lib/gcc/mingw32/4.5.2/../../../libuser32.a(daois00293.o)
 .idata$6       0x0045a8ae       0x12 d:/mingw/bin/../lib/gcc/mingw32/4.5.2/../../../libuser32.a(daois00296.o)
 .idata$6       0x0045a8c0        0xc d:/mingw/bin/../lib/gcc/mingw32/4.5.2/../../../libuser32.a(daois00304.o)
 .idata$6       0x0045a8cc        0xe d:/mingw/bin/../lib/gcc/mingw32/4.5.2/../../../libuser32.a(daois00323.o)
 .idata$6       0x0045a8da       0x10 d:/mingw/bin/../lib/gcc/mingw32/4.5.2/../../../libuser32.a(daois00325.o)
 .idata$6       0x0045a8ea       0x12 d:/mingw/bin/../lib/gcc/mingw32/4.5.2/../../../libuser32.a(daois00342.o)
 .idata$6       0x0045a8fc       0x16 d:/mingw/bin/../lib/gcc/mingw32/4.5.2/../../../libuser32.a(daois00347.o)
 .idata$6       0x0045a912       0x10 d:/mingw/bin/../lib/gcc/mingw32/4.5.2/../../../libuser32.a(daois00348.o)
 .idata$6       0x0045a922       0x12 d:/mingw/bin/../lib/gcc/mingw32/4.5.2/../../../libuser32.a(daois00350.o)
 .idata$6       0x0045a934       0x18 d:/mingw/bin/../lib/gcc/mingw32/4.5.2/../../../libuser32.a(daois00351.o)
 .idata$6       0x0045a94c        0xc d:/mingw/bin/../lib/gcc/mingw32/4.5.2/../../../libuser32.a(daois00358.o)
 .idata$6       0x0045a958        0xe d:/mingw/bin/../lib/gcc/mingw32/4.5.2/../../../libuser32.a(daois00364.o)
 .idata$6       0x0045a966       0x12 d:/mingw/bin/../lib/gcc/mingw32/4.5.2/../../../libuser32.a(daois00370.o)
 .idata$6       0x0045a978       0x14 d:/mingw/bin/../lib/gcc/mingw32/4.5.2/../../../libuser32.a(daois00384.o)
 .idata$6       0x0045a98c       0x16 d:/mingw/bin/../lib/gcc/mingw32/4.5.2/../../../libuser32.a(daois00386.o)
 .idata$6       0x0045a9a2        0xc d:/mingw/bin/../lib/gcc/mingw32/4.5.2/../../../libuser32.a(daois00389.o)
 .idata$6       0x0045a9ae        0xc d:/mingw/bin/../lib/gcc/mingw32/4.5.2/../../../libuser32.a(daois00394.o)
 .idata$6       0x0045a9ba        0xc d:/mingw/bin/../lib/gcc/mingw32/4.5.2/../../../libuser32.a(daois00398.o)
 .idata$6       0x0045a9c6        0xc d:/mingw/bin/../lib/gcc/mingw32/4.5.2/../../../libuser32.a(daois00400.o)
 .idata$6       0x0045a9d2        0xe d:/mingw/bin/../lib/gcc/mingw32/4.5.2/../../../libuser32.a(daois00405.o)
 .idata$6       0x0045a9e0        0xc d:/mingw/bin/../lib/gcc/mingw32/4.5.2/../../../libuser32.a(daois00409.o)
 .idata$6       0x0045a9ec       0x10 d:/mingw/bin/../lib/gcc/mingw32/4.5.2/../../../libuser32.a(daois00426.o)
 .idata$6       0x0045a9fc        0xe d:/mingw/bin/../lib/gcc/mingw32/4.5.2/../../../libuser32.a(daois00433.o)
 .idata$6       0x0045aa0a        0xe d:/mingw/bin/../lib/gcc/mingw32/4.5.2/../../../libuser32.a(daois00434.o)
 .idata$6       0x0045aa18       0x16 d:/mingw/bin/../lib/gcc/mingw32/4.5.2/../../../libuser32.a(daois00437.o)
 .idata$6       0x0045aa2e        0xe d:/mingw/bin/../lib/gcc/mingw32/4.5.2/../../../libuser32.a(daois00445.o)
 .idata$6       0x0045aa3c       0x1c d:/mingw/bin/../lib/gcc/mingw32/4.5.2/../../../libuser32.a(daois00446.o)
 .idata$6       0x0045aa58       0x10 d:/mingw/bin/../lib/gcc/mingw32/4.5.2/../../../libuser32.a(daois00455.o)
 .idata$6       0x0045aa68       0x10 d:/mingw/bin/../lib/gcc/mingw32/4.5.2/../../../libuser32.a(daois00464.o)
 .idata$6       0x0045aa78       0x10 d:/mingw/bin/../lib/gcc/mingw32/4.5.2/../../../libuser32.a(daois00466.o)
 .idata$6       0x0045aa88       0x12 d:/mingw/bin/../lib/gcc/mingw32/4.5.2/../../../libuser32.a(daois00468.o)
 .idata$6       0x0045aa9a       0x12 d:/mingw/bin/../lib/gcc/mingw32/4.5.2/../../../libuser32.a(daois00479.o)
 .idata$6       0x0045aaac       0x1c d:/mingw/bin/../lib/gcc/mingw32/4.5.2/../../../libuser32.a(daois00483.o)
 .idata$6       0x0045aac8       0x1a d:/mingw/bin/../lib/gcc/mingw32/4.5.2/../../../libuser32.a(daois00491.o)
 .idata$6       0x0045aae2       0x12 d:/mingw/bin/../lib/gcc/mingw32/4.5.2/../../../libuser32.a(daois00493.o)
 .idata$6       0x0045aaf4        0xc d:/mingw/bin/../lib/gcc/mingw32/4.5.2/../../../libuser32.a(daois00494.o)
 .idata$6       0x0045ab00       0x12 d:/mingw/bin/../lib/gcc/mingw32/4.5.2/../../../libuser32.a(daois00500.o)
 .idata$6       0x0045ab12       0x16 d:/mingw/bin/../lib/gcc/mingw32/4.5.2/../../../libuser32.a(daois00505.o)
 .idata$6       0x0045ab28       0x10 d:/mingw/bin/../lib/gcc/mingw32/4.5.2/../../../libuser32.a(daois00508.o)
 .idata$6       0x0045ab38       0x12 d:/mingw/bin/../lib/gcc/mingw32/4.5.2/../../../libuser32.a(daois00516.o)
 .idata$6       0x0045ab4a        0xe d:/mingw/bin/../lib/gcc/mingw32/4.5.2/../../../libuser32.a(daois00517.o)
 .idata$6       0x0045ab58        0xe d:/mingw/bin/../lib/gcc/mingw32/4.5.2/../../../libuser32.a(daois00519.o)
 .idata$6       0x0045ab66       0x10 d:/mingw/bin/../lib/gcc/mingw32/4.5.2/../../../libuser32.a(daois00520.o)
 .idata$6       0x0045ab76       0x14 d:/mingw/bin/../lib/gcc/mingw32/4.5.2/../../../libuser32.a(daois00523.o)
 .idata$6       0x0045ab8a        0xc d:/mingw/bin/../lib/gcc/mingw32/4.5.2/../../../libuser32.a(daois00525.o)
 .idata$6       0x0045ab96       0x12 d:/mingw/bin/../lib/gcc/mingw32/4.5.2/../../../libuser32.a(daois00530.o)
 .idata$6       0x0045aba8        0xc d:/mingw/bin/../lib/gcc/mingw32/4.5.2/../../../libuser32.a(daois00533.o)
 .idata$6       0x0045abb4       0x16 d:/mingw/bin/../lib/gcc/mingw32/4.5.2/../../../libuser32.a(daois00534.o)
 .idata$6       0x0045abca       0x14 d:/mingw/bin/../lib/gcc/mingw32/4.5.2/../../../libuser32.a(daois00535.o)
 .idata$6       0x0045abde       0x10 d:/mingw/bin/../lib/gcc/mingw32/4.5.2/../../../libuser32.a(daois00554.o)
 .idata$6       0x0045abee        0xc d:/mingw/bin/../lib/gcc/mingw32/4.5.2/../../../libuser32.a(daois00563.o)
 .idata$6       0x0045abfa       0x12 d:/mingw/bin/../lib/gcc/mingw32/4.5.2/../../../libuser32.a(daois00569.o)
 .idata$6       0x0045ac0c       0x16 d:/mingw/bin/../lib/gcc/mingw32/4.5.2/../../../libuser32.a(daois00571.o)
 .idata$6       0x0045ac22       0x10 d:/mingw/bin/../lib/gcc/mingw32/4.5.2/../../../libuser32.a(daois00572.o)
 .idata$6       0x0045ac32       0x12 d:/mingw/bin/../lib/gcc/mingw32/4.5.2/../../../libuser32.a(daois00574.o)
 .idata$6       0x0045ac44        0xc d:/mingw/bin/../lib/gcc/mingw32/4.5.2/../../../libuser32.a(daois00581.o)
 .idata$6       0x0045ac50        0xe d:/mingw/bin/../lib/gcc/mingw32/4.5.2/../../../libuser32.a(daois00582.o)
 .idata$6       0x0045ac5e        0xe d:/mingw/bin/../lib/gcc/mingw32/4.5.2/../../../libuser32.a(daois00585.o)
 .idata$6       0x0045ac6c       0x18 d:/mingw/bin/../lib/gcc/mingw32/4.5.2/../../../libuser32.a(daois00591.o)
 .idata$6       0x0045ac84        0xc d:/mingw/bin/../lib/gcc/mingw32/4.5.2/../../../libuser32.a(daois00598.o)
 .idata$6       0x0045ac90       0x12 d:/mingw/bin/../lib/gcc/mingw32/4.5.2/../../../libuser32.a(daois00602.o)
 .idata$6       0x0045aca2       0x14 d:/mingw/bin/../lib/gcc/mingw32/4.5.2/../../../libuser32.a(daois00608.o)
 .idata$6       0x0045acb6       0x10 d:/mingw/bin/../lib/gcc/mingw32/4.5.2/../../../libuser32.a(daois00622.o)
 .idata$6       0x0045acc6        0xc d:/mingw/bin/../lib/gcc/mingw32/4.5.2/../../../libuser32.a(daois00632.o)
 .idata$6       0x0045acd2        0xe d:/mingw/bin/../lib/gcc/mingw32/4.5.2/../../../libwinmm.a(dopcs00008.o)
 .idata$6       0x0045ace0       0x10 d:/mingw/bin/../lib/gcc/mingw32/4.5.2/../../../libwinspool.a(dykds00025.o)
 .idata$6       0x0045acf0       0x10 d:/mingw/bin/../lib/gcc/mingw32/4.5.2/../../../libwinspool.a(dykds00059.o)
 .idata$6       0x0045ad00       0x12 d:/mingw/bin/../lib/gcc/mingw32/4.5.2/../../../libwinspool.a(dykds00060.o)
 .idata$6       0x0045ad12       0x10 d:/mingw/bin/../lib/gcc/mingw32/4.5.2/../../../libwinspool.a(dykds00078.o)
 .idata$6       0x0045ad22       0x10 d:/mingw/bin/../lib/gcc/mingw32/4.5.2/../../../libwinspool.a(dykds00102.o)
 .idata$6       0x0045ad32       0x14 d:/mingw/bin/../lib/gcc/mingw32/4.5.2/../../../libwinspool.a(dykds00126.o)
 .idata$6       0x0045ad46       0x14 d:/mingw/bin/../lib/gcc/mingw32/4.5.2/../../../libwinspool.a(dykds00128.o)
 .idata$6       0x0045ad5a       0x10 d:/mingw/bin/../lib/gcc/mingw32/4.5.2/../../../libwinspool.a(dykds00130.o)
 SORT(*)(.idata$7)
 *fill*         0x0045ad6a        0x2 00
 .idata$7       0x0045ad6c        0x4 d:/mingw/bin/../lib/gcc/mingw32/4.5.2/../../../libadvapi32.a(dgxgs00245.o)
 .idata$7       0x0045ad70        0x4 d:/mingw/bin/../lib/gcc/mingw32/4.5.2/../../../libadvapi32.a(dgxgs00386.o)
 .idata$7       0x0045ad74        0x4 d:/mingw/bin/../lib/gcc/mingw32/4.5.2/../../../libadvapi32.a(dgxgs00389.o)
 .idata$7       0x0045ad78        0x4 d:/mingw/bin/../lib/gcc/mingw32/4.5.2/../../../libadvapi32.a(dgxgs00390.o)
 .idata$7       0x0045ad7c        0x4 d:/mingw/bin/../lib/gcc/mingw32/4.5.2/../../../libadvapi32.a(dgxgs00393.o)
 .idata$7       0x0045ad80        0x4 d:/mingw/bin/../lib/gcc/mingw32/4.5.2/../../../libadvapi32.a(dgxgs00397.o)
 .idata$7       0x0045ad84        0x4 d:/mingw/bin/../lib/gcc/mingw32/4.5.2/../../../libadvapi32.a(dgxgs00400.o)
 .idata$7       0x0045ad88        0x4 d:/mingw/bin/../lib/gcc/mingw32/4.5.2/../../../libadvapi32.a(dgxgs00412.o)
 .idata$7       0x0045ad8c        0x4 d:/mingw/bin/../lib/gcc/mingw32/4.5.2/../../../libadvapi32.a(dgxgs00423.o)
 .idata$7       0x0045ad90        0x4 d:/mingw/bin/../lib/gcc/mingw32/4.5.2/../../../libadvapi32.a(dgxgs00434.o)
 .idata$7       0x0045ad94       0x10 d:/mingw/bin/../lib/gcc/mingw32/4.5.2/../../../libadvapi32.a(dgxgt.o)
                0x0045ad94                _libadvapi32_a_iname
 .idata$7       0x0045ada4        0x4 d:/mingw/bin/../lib/gcc/mingw32/4.5.2/../../../libcomctl32.a(dqqhs00042.o)
 .idata$7       0x0045ada8        0x4 d:/mingw/bin/../lib/gcc/mingw32/4.5.2/../../../libcomctl32.a(dqqhs00094.o)
 .idata$7       0x0045adac        0x4 d:/mingw/bin/../lib/gcc/mingw32/4.5.2/../../../libcomctl32.a(dqqhs00097.o)
 .idata$7       0x0045adb0        0x4 d:/mingw/bin/../lib/gcc/mingw32/4.5.2/../../../libcomctl32.a(dqqhs00098.o)
 .idata$7       0x0045adb4       0x10 d:/mingw/bin/../lib/gcc/mingw32/4.5.2/../../../libcomctl32.a(dqqht.o)
                0x0045adb4                _libcomctl32_a_iname
 .idata$7       0x0045adc4        0x4 d:/mingw/bin/../lib/gcc/mingw32/4.5.2/../../../libcomdlg32.a(demds00000.o)
 .idata$7       0x0045adc8        0x4 d:/mingw/bin/../lib/gcc/mingw32/4.5.2/../../../libcomdlg32.a(demds00002.o)
 .idata$7       0x0045adcc        0x4 d:/mingw/bin/../lib/gcc/mingw32/4.5.2/../../../libcomdlg32.a(demds00009.o)
 .idata$7       0x0045add0        0x4 d:/mingw/bin/../lib/gcc/mingw32/4.5.2/../../../libcomdlg32.a(demds00011.o)
 .idata$7       0x0045add4       0x10 d:/mingw/bin/../lib/gcc/mingw32/4.5.2/../../../libcomdlg32.a(demdt.o)
                0x0045add4                _libcomdlg32_a_iname
 .idata$7       0x0045ade4        0x4 d:/mingw/bin/../lib/gcc/mingw32/4.5.2/../../../libgdi32.a(dkfhs00028.o)
 .idata$7       0x0045ade8        0x4 d:/mingw/bin/../lib/gcc/mingw32/4.5.2/../../../libgdi32.a(dkfhs00033.o)
 .idata$7       0x0045adec        0x4 d:/mingw/bin/../lib/gcc/mingw32/4.5.2/../../../libgdi32.a(dkfhs00034.o)
 .idata$7       0x0045adf0        0x4 d:/mingw/bin/../lib/gcc/mingw32/4.5.2/../../../libgdi32.a(dkfhs00046.o)
 .idata$7       0x0045adf4        0x4 d:/mingw/bin/../lib/gcc/mingw32/4.5.2/../../../libgdi32.a(dkfhs00047.o)
 .idata$7       0x0045adf8        0x4 d:/mingw/bin/../lib/gcc/mingw32/4.5.2/../../../libgdi32.a(dkfhs00056.o)
 .idata$7       0x0045adfc        0x4 d:/mingw/bin/../lib/gcc/mingw32/4.5.2/../../../libgdi32.a(dkfhs00058.o)
 .idata$7       0x0045ae00        0x4 d:/mingw/bin/../lib/gcc/mingw32/4.5.2/../../../libgdi32.a(dkfhs00067.o)
 .idata$7       0x0045ae04        0x4 d:/mingw/bin/../lib/gcc/mingw32/4.5.2/../../../libgdi32.a(dkfhs00070.o)
 .idata$7       0x0045ae08        0x4 d:/mingw/bin/../lib/gcc/mingw32/4.5.2/../../../libgdi32.a(dkfhs00073.o)
 .idata$7       0x0045ae0c        0x4 d:/mingw/bin/../lib/gcc/mingw32/4.5.2/../../../libgdi32.a(dkfhs00096.o)
 .idata$7       0x0045ae10        0x4 d:/mingw/bin/../lib/gcc/mingw32/4.5.2/../../../libgdi32.a(dkfhs00102.o)
 .idata$7       0x0045ae14        0x4 d:/mingw/bin/../lib/gcc/mingw32/4.5.2/../../../libgdi32.a(dkfhs00103.o)
 .idata$7       0x0045ae18        0x4 d:/mingw/bin/../lib/gcc/mingw32/4.5.2/../../../libgdi32.a(dkfhs00122.o)
 .idata$7       0x0045ae1c        0x4 d:/mingw/bin/../lib/gcc/mingw32/4.5.2/../../../libgdi32.a(dkfhs00126.o)
 .idata$7       0x0045ae20        0x4 d:/mingw/bin/../lib/gcc/mingw32/4.5.2/../../../libgdi32.a(dkfhs00129.o)
 .idata$7       0x0045ae24        0x4 d:/mingw/bin/../lib/gcc/mingw32/4.5.2/../../../libgdi32.a(dkfhs00130.o)
 .idata$7       0x0045ae28        0x4 d:/mingw/bin/../lib/gcc/mingw32/4.5.2/../../../libgdi32.a(dkfhs00131.o)
 .idata$7       0x0045ae2c        0x4 d:/mingw/bin/../lib/gcc/mingw32/4.5.2/../../../libgdi32.a(dkfhs00134.o)
 .idata$7       0x0045ae30        0x4 d:/mingw/bin/../lib/gcc/mingw32/4.5.2/../../../libgdi32.a(dkfhs00136.o)
 .idata$7       0x0045ae34        0x4 d:/mingw/bin/../lib/gcc/mingw32/4.5.2/../../../libgdi32.a(dkfhs00148.o)
 .idata$7       0x0045ae38        0x4 d:/mingw/bin/../lib/gcc/mingw32/4.5.2/../../../libgdi32.a(dkfhs00185.o)
 .idata$7       0x0045ae3c        0x4 d:/mingw/bin/../lib/gcc/mingw32/4.5.2/../../../libgdi32.a(dkfhs00192.o)
 .idata$7       0x0045ae40        0x4 d:/mingw/bin/../lib/gcc/mingw32/4.5.2/../../../libgdi32.a(dkfhs00201.o)
 .idata$7       0x0045ae44        0x4 d:/mingw/bin/../lib/gcc/mingw32/4.5.2/../../../libgdi32.a(dkfhs00210.o)
 .idata$7       0x0045ae48        0x4 d:/mingw/bin/../lib/gcc/mingw32/4.5.2/../../../libgdi32.a(dkfhs00213.o)
 .idata$7       0x0045ae4c        0x4 d:/mingw/bin/../lib/gcc/mingw32/4.5.2/../../../libgdi32.a(dkfhs00219.o)
 .idata$7       0x0045ae50        0x4 d:/mingw/bin/../lib/gcc/mingw32/4.5.2/../../../libgdi32.a(dkfhs00227.o)
 .idata$7       0x0045ae54        0x4 d:/mingw/bin/../lib/gcc/mingw32/4.5.2/../../../libgdi32.a(dkfhs00231.o)
 .idata$7       0x0045ae58        0x4 d:/mingw/bin/../lib/gcc/mingw32/4.5.2/../../../libgdi32.a(dkfhs00234.o)
 .idata$7       0x0045ae5c        0x4 d:/mingw/bin/../lib/gcc/mingw32/4.5.2/../../../libgdi32.a(dkfhs00256.o)
 .idata$7       0x0045ae60        0x4 d:/mingw/bin/../lib/gcc/mingw32/4.5.2/../../../libgdi32.a(dkfhs00260.o)
 .idata$7       0x0045ae64        0x4 d:/mingw/bin/../lib/gcc/mingw32/4.5.2/../../../libgdi32.a(dkfhs00263.o)
 .idata$7       0x0045ae68        0x4 d:/mingw/bin/../lib/gcc/mingw32/4.5.2/../../../libgdi32.a(dkfhs00281.o)
 .idata$7       0x0045ae6c        0x4 d:/mingw/bin/../lib/gcc/mingw32/4.5.2/../../../libgdi32.a(dkfhs00282.o)
 .idata$7       0x0045ae70        0x4 d:/mingw/bin/../lib/gcc/mingw32/4.5.2/../../../libgdi32.a(dkfhs00287.o)
 .idata$7       0x0045ae74        0x4 d:/mingw/bin/../lib/gcc/mingw32/4.5.2/../../../libgdi32.a(dkfhs00288.o)
 .idata$7       0x0045ae78        0x4 d:/mingw/bin/../lib/gcc/mingw32/4.5.2/../../../libgdi32.a(dkfhs00306.o)
 .idata$7       0x0045ae7c        0x4 d:/mingw/bin/../lib/gcc/mingw32/4.5.2/../../../libgdi32.a(dkfhs00311.o)
 .idata$7       0x0045ae80        0x4 d:/mingw/bin/../lib/gcc/mingw32/4.5.2/../../../libgdi32.a(dkfhs00312.o)
 .idata$7       0x0045ae84        0x4 d:/mingw/bin/../lib/gcc/mingw32/4.5.2/../../../libgdi32.a(dkfhs00321.o)
 .idata$7       0x0045ae88        0x4 d:/mingw/bin/../lib/gcc/mingw32/4.5.2/../../../libgdi32.a(dkfhs00323.o)
 .idata$7       0x0045ae8c        0x4 d:/mingw/bin/../lib/gcc/mingw32/4.5.2/../../../libgdi32.a(dkfhs00339.o)
 .idata$7       0x0045ae90        0x4 d:/mingw/bin/../lib/gcc/mingw32/4.5.2/../../../libgdi32.a(dkfhs00341.o)
 .idata$7       0x0045ae94        0x4 d:/mingw/bin/../lib/gcc/mingw32/4.5.2/../../../libgdi32.a(dkfhs00342.o)
 .idata$7       0x0045ae98        0x4 d:/mingw/bin/../lib/gcc/mingw32/4.5.2/../../../libgdi32.a(dkfhs00343.o)
 .idata$7       0x0045ae9c        0xc d:/mingw/bin/../lib/gcc/mingw32/4.5.2/../../../libgdi32.a(dkfht.o)
                0x0045ae9c                _libgdi32_a_iname
 .idata$7       0x0045aea8        0x4 d:/mingw/bin/../lib/gcc/mingw32/4.5.2/../../../libimm32.a(dkrgs00023.o)
 .idata$7       0x0045aeac        0x4 d:/mingw/bin/../lib/gcc/mingw32/4.5.2/../../../libimm32.a(dkrgs00025.o)
 .idata$7       0x0045aeb0        0x4 d:/mingw/bin/../lib/gcc/mingw32/4.5.2/../../../libimm32.a(dkrgs00059.o)
 .idata$7       0x0045aeb4        0x4 d:/mingw/bin/../lib/gcc/mingw32/4.5.2/../../../libimm32.a(dkrgs00061.o)
 .idata$7       0x0045aeb8        0x4 d:/mingw/bin/../lib/gcc/mingw32/4.5.2/../../../libimm32.a(dkrgs00065.o)
 .idata$7       0x0045aebc        0xc d:/mingw/bin/../lib/gcc/mingw32/4.5.2/../../../libimm32.a(dkrgt.o)
                0x0045aebc                _libimm32_a_iname
 .idata$7       0x0045aec8        0x4 d:/mingw/bin/../lib/gcc/mingw32/4.5.2/../../../libkernel32.a(dchds00016.o)
 .idata$7       0x0045aecc        0x4 d:/mingw/bin/../lib/gcc/mingw32/4.5.2/../../../libkernel32.a(dchds00054.o)
 .idata$7       0x0045aed0        0x4 d:/mingw/bin/../lib/gcc/mingw32/4.5.2/../../../libkernel32.a(dchds00079.o)
 .idata$7       0x0045aed4        0x4 d:/mingw/bin/../lib/gcc/mingw32/4.5.2/../../../libkernel32.a(dchds00082.o)
 .idata$7       0x0045aed8        0x4 d:/mingw/bin/../lib/gcc/mingw32/4.5.2/../../../libkernel32.a(dchds00129.o)
 .idata$7       0x0045aedc        0x4 d:/mingw/bin/../lib/gcc/mingw32/4.5.2/../../../libkernel32.a(dchds00135.o)
 .idata$7       0x0045aee0        0x4 d:/mingw/bin/../lib/gcc/mingw32/4.5.2/../../../libkernel32.a(dchds00136.o)
 .idata$7       0x0045aee4        0x4 d:/mingw/bin/../lib/gcc/mingw32/4.5.2/../../../libkernel32.a(dchds00160.o)
 .idata$7       0x0045aee8        0x4 d:/mingw/bin/../lib/gcc/mingw32/4.5.2/../../../libkernel32.a(dchds00163.o)
 .idata$7       0x0045aeec        0x4 d:/mingw/bin/../lib/gcc/mingw32/4.5.2/../../../libkernel32.a(dchds00179.o)
 .idata$7       0x0045aef0        0x4 d:/mingw/bin/../lib/gcc/mingw32/4.5.2/../../../libkernel32.a(dchds00207.o)
 .idata$7       0x0045aef4        0x4 d:/mingw/bin/../lib/gcc/mingw32/4.5.2/../../../libkernel32.a(dchds00236.o)
 .idata$7       0x0045aef8        0x4 d:/mingw/bin/../lib/gcc/mingw32/4.5.2/../../../libkernel32.a(dchds00279.o)
 .idata$7       0x0045aefc        0x4 d:/mingw/bin/../lib/gcc/mingw32/4.5.2/../../../libkernel32.a(dchds00352.o)
 .idata$7       0x0045af00        0x4 d:/mingw/bin/../lib/gcc/mingw32/4.5.2/../../../libkernel32.a(dchds00358.o)
 .idata$7       0x0045af04        0x4 d:/mingw/bin/../lib/gcc/mingw32/4.5.2/../../../libkernel32.a(dchds00368.o)
 .idata$7       0x0045af08        0x4 d:/mingw/bin/../lib/gcc/mingw32/4.5.2/../../../libkernel32.a(dchds00386.o)
 .idata$7       0x0045af0c        0x4 d:/mingw/bin/../lib/gcc/mingw32/4.5.2/../../../libkernel32.a(dchds00388.o)
 .idata$7       0x0045af10        0x4 d:/mingw/bin/../lib/gcc/mingw32/4.5.2/../../../libkernel32.a(dchds00444.o)
 .idata$7       0x0045af14        0x4 d:/mingw/bin/../lib/gcc/mingw32/4.5.2/../../../libkernel32.a(dchds00473.o)
 .idata$7       0x0045af18        0x4 d:/mingw/bin/../lib/gcc/mingw32/4.5.2/../../../libkernel32.a(dchds00510.o)
 .idata$7       0x0045af1c        0x4 d:/mingw/bin/../lib/gcc/mingw32/4.5.2/../../../libkernel32.a(dchds00511.o)
 .idata$7       0x0045af20        0x4 d:/mingw/bin/../lib/gcc/mingw32/4.5.2/../../../libkernel32.a(dchds00512.o)
 .idata$7       0x0045af24        0x4 d:/mingw/bin/../lib/gcc/mingw32/4.5.2/../../../libkernel32.a(dchds00527.o)
 .idata$7       0x0045af28        0x4 d:/mingw/bin/../lib/gcc/mingw32/4.5.2/../../../libkernel32.a(dchds00529.o)
 .idata$7       0x0045af2c        0x4 d:/mingw/bin/../lib/gcc/mingw32/4.5.2/../../../libkernel32.a(dchds00563.o)
 .idata$7       0x0045af30        0x4 d:/mingw/bin/../lib/gcc/mingw32/4.5.2/../../../libkernel32.a(dchds00564.o)
 .idata$7       0x0045af34        0x4 d:/mingw/bin/../lib/gcc/mingw32/4.5.2/../../../libkernel32.a(dchds00577.o)
 .idata$7       0x0045af38        0x4 d:/mingw/bin/../lib/gcc/mingw32/4.5.2/../../../libkernel32.a(dchds00606.o)
 .idata$7       0x0045af3c        0x4 d:/mingw/bin/../lib/gcc/mingw32/4.5.2/../../../libkernel32.a(dchds00608.o)
 .idata$7       0x0045af40        0x4 d:/mingw/bin/../lib/gcc/mingw32/4.5.2/../../../libkernel32.a(dchds00619.o)
 .idata$7       0x0045af44        0x4 d:/mingw/bin/../lib/gcc/mingw32/4.5.2/../../../libkernel32.a(dchds00656.o)
 .idata$7       0x0045af48        0x4 d:/mingw/bin/../lib/gcc/mingw32/4.5.2/../../../libkernel32.a(dchds00671.o)
 .idata$7       0x0045af4c        0x4 d:/mingw/bin/../lib/gcc/mingw32/4.5.2/../../../libkernel32.a(dchds00682.o)
 .idata$7       0x0045af50        0x4 d:/mingw/bin/../lib/gcc/mingw32/4.5.2/../../../libkernel32.a(dchds00687.o)
 .idata$7       0x0045af54        0x4 d:/mingw/bin/../lib/gcc/mingw32/4.5.2/../../../libkernel32.a(dchds00694.o)
 .idata$7       0x0045af58        0x4 d:/mingw/bin/../lib/gcc/mingw32/4.5.2/../../../libkernel32.a(dchds00698.o)
 .idata$7       0x0045af5c        0x4 d:/mingw/bin/../lib/gcc/mingw32/4.5.2/../../../libkernel32.a(dchds00705.o)
 .idata$7       0x0045af60        0x4 d:/mingw/bin/../lib/gcc/mingw32/4.5.2/../../../libkernel32.a(dchds00734.o)
 .idata$7       0x0045af64        0x4 d:/mingw/bin/../lib/gcc/mingw32/4.5.2/../../../libkernel32.a(dchds00763.o)
 .idata$7       0x0045af68        0x4 d:/mingw/bin/../lib/gcc/mingw32/4.5.2/../../../libkernel32.a(dchds00814.o)
 .idata$7       0x0045af6c        0x4 d:/mingw/bin/../lib/gcc/mingw32/4.5.2/../../../libkernel32.a(dchds00817.o)
 .idata$7       0x0045af70        0x4 d:/mingw/bin/../lib/gcc/mingw32/4.5.2/../../../libkernel32.a(dchds00844.o)
 .idata$7       0x0045af74        0x4 d:/mingw/bin/../lib/gcc/mingw32/4.5.2/../../../libkernel32.a(dchds00859.o)
 .idata$7       0x0045af78        0x4 d:/mingw/bin/../lib/gcc/mingw32/4.5.2/../../../libkernel32.a(dchds00860.o)
 .idata$7       0x0045af7c        0x4 d:/mingw/bin/../lib/gcc/mingw32/4.5.2/../../../libkernel32.a(dchds00947.o)
 .idata$7       0x0045af80        0x4 d:/mingw/bin/../lib/gcc/mingw32/4.5.2/../../../libkernel32.a(dchds01010.o)
 .idata$7       0x0045af84        0x4 d:/mingw/bin/../lib/gcc/mingw32/4.5.2/../../../libkernel32.a(dchds01013.o)
 .idata$7       0x0045af88        0x4 d:/mingw/bin/../lib/gcc/mingw32/4.5.2/../../../libkernel32.a(dchds01014.o)
 .idata$7       0x0045af8c        0x4 d:/mingw/bin/../lib/gcc/mingw32/4.5.2/../../../libkernel32.a(dchds01052.o)
 .idata$7       0x0045af90        0x4 d:/mingw/bin/../lib/gcc/mingw32/4.5.2/../../../libkernel32.a(dchds01065.o)
 .idata$7       0x0045af94        0x4 d:/mingw/bin/../lib/gcc/mingw32/4.5.2/../../../libkernel32.a(dchds01088.o)
 .idata$7       0x0045af98        0x4 d:/mingw/bin/../lib/gcc/mingw32/4.5.2/../../../libkernel32.a(dchds01140.o)
 .idata$7       0x0045af9c        0x4 d:/mingw/bin/../lib/gcc/mingw32/4.5.2/../../../libkernel32.a(dchds01173.o)
 .idata$7       0x0045afa0        0x4 d:/mingw/bin/../lib/gcc/mingw32/4.5.2/../../../libkernel32.a(dchds01188.o)
 .idata$7       0x0045afa4        0x4 d:/mingw/bin/../lib/gcc/mingw32/4.5.2/../../../libkernel32.a(dchds01213.o)
 .idata$7       0x0045afa8        0x4 d:/mingw/bin/../lib/gcc/mingw32/4.5.2/../../../libkernel32.a(dchds01215.o)
 .idata$7       0x0045afac        0x4 d:/mingw/bin/../lib/gcc/mingw32/4.5.2/../../../libkernel32.a(dchds01223.o)
 .idata$7       0x0045afb0        0x4 d:/mingw/bin/../lib/gcc/mingw32/4.5.2/../../../libkernel32.a(dchds01247.o)
 .idata$7       0x0045afb4        0x4 d:/mingw/bin/../lib/gcc/mingw32/4.5.2/../../../libkernel32.a(dchds01267.o)
 .idata$7       0x0045afb8       0x10 d:/mingw/bin/../lib/gcc/mingw32/4.5.2/../../../libkernel32.a(dchdt.o)
                0x0045afb8                _libkernel32_a_iname
 .idata$7       0x0045afc8        0x4 d:/mingw/bin/../lib/gcc/mingw32/4.5.2/../../../libmoldname.a(dgzls00084.o)
 .idata$7       0x0045afcc        0xc d:/mingw/bin/../lib/gcc/mingw32/4.5.2/../../../libmoldname.a(dgzlt.o)
                0x0045afcc                _libmoldname_a_iname
 .idata$7       0x0045afd8        0x4 d:/mingw/bin/../lib/gcc/mingw32/4.5.2/../../../libmsvcrt.a(duyms00055.o)
 .idata$7       0x0045afdc        0x4 d:/mingw/bin/../lib/gcc/mingw32/4.5.2/../../../libmsvcrt.a(duyms00065.o)
 .idata$7       0x0045afe0        0x4 d:/mingw/bin/../lib/gcc/mingw32/4.5.2/../../../libmsvcrt.a(duyms00077.o)
 .idata$7       0x0045afe4        0x4 d:/mingw/bin/../lib/gcc/mingw32/4.5.2/../../../libmsvcrt.a(duyms00079.o)
 .idata$7       0x0045afe8        0x4 d:/mingw/bin/../lib/gcc/mingw32/4.5.2/../../../libmsvcrt.a(duyms00099.o)
 .idata$7       0x0045afec        0x4 d:/mingw/bin/../lib/gcc/mingw32/4.5.2/../../../libmsvcrt.a(duyms00137.o)
 .idata$7       0x0045aff0        0x4 d:/mingw/bin/../lib/gcc/mingw32/4.5.2/../../../libmsvcrt.a(duyms00147.o)
 .idata$7       0x0045aff4        0x4 d:/mingw/bin/../lib/gcc/mingw32/4.5.2/../../../libmsvcrt.a(duyms00266.o)
 .idata$7       0x0045aff8        0x4 d:/mingw/bin/../lib/gcc/mingw32/4.5.2/../../../libmsvcrt.a(duyms00268.o)
 .idata$7       0x0045affc        0x4 d:/mingw/bin/../lib/gcc/mingw32/4.5.2/../../../libmsvcrt.a(duyms00383.o)
 .idata$7       0x0045b000        0x4 d:/mingw/bin/../lib/gcc/mingw32/4.5.2/../../../libmsvcrt.a(duyms00392.o)
 .idata$7       0x0045b004        0x4 d:/mingw/bin/../lib/gcc/mingw32/4.5.2/../../../libmsvcrt.a(duyms00426.o)
 .idata$7       0x0045b008        0x4 d:/mingw/bin/../lib/gcc/mingw32/4.5.2/../../../libmsvcrt.a(duyms00490.o)
 .idata$7       0x0045b00c        0x4 d:/mingw/bin/../lib/gcc/mingw32/4.5.2/../../../libmsvcrt.a(duyms00538.o)
 .idata$7       0x0045b010        0x4 d:/mingw/bin/../lib/gcc/mingw32/4.5.2/../../../libmsvcrt.a(duyms00583.o)
 .idata$7       0x0045b014        0x4 d:/mingw/bin/../lib/gcc/mingw32/4.5.2/../../../libmsvcrt.a(duyms00590.o)
 .idata$7       0x0045b018        0x4 d:/mingw/bin/../lib/gcc/mingw32/4.5.2/../../../libmsvcrt.a(duyms00591.o)
 .idata$7       0x0045b01c        0x4 d:/mingw/bin/../lib/gcc/mingw32/4.5.2/../../../libmsvcrt.a(duyms00592.o)
 .idata$7       0x0045b020        0x4 d:/mingw/bin/../lib/gcc/mingw32/4.5.2/../../../libmsvcrt.a(duyms00595.o)
 .idata$7       0x0045b024        0x4 d:/mingw/bin/../lib/gcc/mingw32/4.5.2/../../../libmsvcrt.a(duyms00604.o)
 .idata$7       0x0045b028        0x4 d:/mingw/bin/../lib/gcc/mingw32/4.5.2/../../../libmsvcrt.a(duyms00607.o)
 .idata$7       0x0045b02c        0x4 d:/mingw/bin/../lib/gcc/mingw32/4.5.2/../../../libmsvcrt.a(duyms00610.o)
 .idata$7       0x0045b030        0x4 d:/mingw/bin/../lib/gcc/mingw32/4.5.2/../../../libmsvcrt.a(duyms00611.o)
 .idata$7       0x0045b034        0x4 d:/mingw/bin/../lib/gcc/mingw32/4.5.2/../../../libmsvcrt.a(duyms00613.o)
 .idata$7       0x0045b038        0x4 d:/mingw/bin/../lib/gcc/mingw32/4.5.2/../../../libmsvcrt.a(duyms00618.o)
 .idata$7       0x0045b03c        0x4 d:/mingw/bin/../lib/gcc/mingw32/4.5.2/../../../libmsvcrt.a(duyms00619.o)
 .idata$7       0x0045b040        0x4 d:/mingw/bin/../lib/gcc/mingw32/4.5.2/../../../libmsvcrt.a(duyms00621.o)
 .idata$7       0x0045b044        0x4 d:/mingw/bin/../lib/gcc/mingw32/4.5.2/../../../libmsvcrt.a(duyms00625.o)
 .idata$7       0x0045b048        0x4 d:/mingw/bin/../lib/gcc/mingw32/4.5.2/../../../libmsvcrt.a(duyms00633.o)
 .idata$7       0x0045b04c        0x4 d:/mingw/bin/../lib/gcc/mingw32/4.5.2/../../../libmsvcrt.a(duyms00637.o)
 .idata$7       0x0045b050        0x4 d:/mingw/bin/../lib/gcc/mingw32/4.5.2/../../../libmsvcrt.a(duyms00676.o)
 .idata$7       0x0045b054        0x4 d:/mingw/bin/../lib/gcc/mingw32/4.5.2/../../../libmsvcrt.a(duyms00682.o)
 .idata$7       0x0045b058        0x4 d:/mingw/bin/../lib/gcc/mingw32/4.5.2/../../../libmsvcrt.a(duyms00683.o)
 .idata$7       0x0045b05c        0x4 d:/mingw/bin/../lib/gcc/mingw32/4.5.2/../../../libmsvcrt.a(duyms00695.o)
 .idata$7       0x0045b060        0x4 d:/mingw/bin/../lib/gcc/mingw32/4.5.2/../../../libmsvcrt.a(duyms00698.o)
 .idata$7       0x0045b064        0x4 d:/mingw/bin/../lib/gcc/mingw32/4.5.2/../../../libmsvcrt.a(duyms00699.o)
 .idata$7       0x0045b068        0x4 d:/mingw/bin/../lib/gcc/mingw32/4.5.2/../../../libmsvcrt.a(duyms00706.o)
 .idata$7       0x0045b06c        0x4 d:/mingw/bin/../lib/gcc/mingw32/4.5.2/../../../libmsvcrt.a(duyms00709.o)
 .idata$7       0x0045b070        0x4 d:/mingw/bin/../lib/gcc/mingw32/4.5.2/../../../libmsvcrt.a(duyms00712.o)
 .idata$7       0x0045b074        0x4 d:/mingw/bin/../lib/gcc/mingw32/4.5.2/../../../libmsvcrt.a(duyms00713.o)
 .idata$7       0x0045b078        0x4 d:/mingw/bin/../lib/gcc/mingw32/4.5.2/../../../libmsvcrt.a(duyms00714.o)
 .idata$7       0x0045b07c        0x4 d:/mingw/bin/../lib/gcc/mingw32/4.5.2/../../../libmsvcrt.a(duyms00715.o)
 .idata$7       0x0045b080        0x4 d:/mingw/bin/../lib/gcc/mingw32/4.5.2/../../../libmsvcrt.a(duyms00717.o)
 .idata$7       0x0045b084        0x4 d:/mingw/bin/../lib/gcc/mingw32/4.5.2/../../../libmsvcrt.a(duyms00718.o)
 .idata$7       0x0045b088        0x4 d:/mingw/bin/../lib/gcc/mingw32/4.5.2/../../../libmsvcrt.a(duyms00720.o)
 .idata$7       0x0045b08c        0x4 d:/mingw/bin/../lib/gcc/mingw32/4.5.2/../../../libmsvcrt.a(duyms00723.o)
 .idata$7       0x0045b090        0x4 d:/mingw/bin/../lib/gcc/mingw32/4.5.2/../../../libmsvcrt.a(duyms00724.o)
 .idata$7       0x0045b094        0x4 d:/mingw/bin/../lib/gcc/mingw32/4.5.2/../../../libmsvcrt.a(duyms00726.o)
 .idata$7       0x0045b098        0x4 d:/mingw/bin/../lib/gcc/mingw32/4.5.2/../../../libmsvcrt.a(duyms00727.o)
 .idata$7       0x0045b09c        0x4 d:/mingw/bin/../lib/gcc/mingw32/4.5.2/../../../libmsvcrt.a(duyms00731.o)
 .idata$7       0x0045b0a0        0x4 d:/mingw/bin/../lib/gcc/mingw32/4.5.2/../../../libmsvcrt.a(duyms00732.o)
 .idata$7       0x0045b0a4        0x4 d:/mingw/bin/../lib/gcc/mingw32/4.5.2/../../../libmsvcrt.a(duyms00742.o)
 .idata$7       0x0045b0a8        0x4 d:/mingw/bin/../lib/gcc/mingw32/4.5.2/../../../libmsvcrt.a(duyms00743.o)
 .idata$7       0x0045b0ac        0x4 d:/mingw/bin/../lib/gcc/mingw32/4.5.2/../../../libmsvcrt.a(duyms00748.o)
 .idata$7       0x0045b0b0        0xc d:/mingw/bin/../lib/gcc/mingw32/4.5.2/../../../libmsvcrt.a(duymt.o)
                0x0045b0b0                _libmsvcrt_a_iname
 .idata$7       0x0045b0bc        0x4 d:/mingw/bin/../lib/gcc/mingw32/4.5.2/../../../libole32.a(dyads00012.o)
 .idata$7       0x0045b0c0        0x4 d:/mingw/bin/../lib/gcc/mingw32/4.5.2/../../../libole32.a(dyads00037.o)
 .idata$7       0x0045b0c4        0x4 d:/mingw/bin/../lib/gcc/mingw32/4.5.2/../../../libole32.a(dyads00072.o)
 .idata$7       0x0045b0c8        0xc d:/mingw/bin/../lib/gcc/mingw32/4.5.2/../../../libole32.a(dyadt.o)
                0x0045b0c8                _libole32_a_iname
 .idata$7       0x0045b0d4        0x4 d:/mingw/bin/../lib/gcc/mingw32/4.5.2/../../../libshell32.a(dukis00144.o)
 .idata$7       0x0045b0d8        0xc d:/mingw/bin/../lib/gcc/mingw32/4.5.2/../../../libshell32.a(dukit.o)
                0x0045b0d8                _libshell32_a_iname
 .idata$7       0x0045b0e4        0x4 d:/mingw/bin/../lib/gcc/mingw32/4.5.2/../../../libuser32.a(daois00006.o)
 .idata$7       0x0045b0e8        0x4 d:/mingw/bin/../lib/gcc/mingw32/4.5.2/../../../libuser32.a(daois00011.o)
 .idata$7       0x0045b0ec        0x4 d:/mingw/bin/../lib/gcc/mingw32/4.5.2/../../../libuser32.a(daois00053.o)
 .idata$7       0x0045b0f0        0x4 d:/mingw/bin/../lib/gcc/mingw32/4.5.2/../../../libuser32.a(daois00054.o)
 .idata$7       0x0045b0f4        0x4 d:/mingw/bin/../lib/gcc/mingw32/4.5.2/../../../libuser32.a(daois00056.o)
 .idata$7       0x0045b0f8        0x4 d:/mingw/bin/../lib/gcc/mingw32/4.5.2/../../../libuser32.a(daois00061.o)
 .idata$7       0x0045b0fc        0x4 d:/mingw/bin/../lib/gcc/mingw32/4.5.2/../../../libuser32.a(daois00074.o)
 .idata$7       0x0045b100        0x4 d:/mingw/bin/../lib/gcc/mingw32/4.5.2/../../../libuser32.a(daois00080.o)
 .idata$7       0x0045b104        0x4 d:/mingw/bin/../lib/gcc/mingw32/4.5.2/../../../libuser32.a(daois00088.o)
 .idata$7       0x0045b108        0x4 d:/mingw/bin/../lib/gcc/mingw32/4.5.2/../../../libuser32.a(daois00089.o)
 .idata$7       0x0045b10c        0x4 d:/mingw/bin/../lib/gcc/mingw32/4.5.2/../../../libuser32.a(daois00090.o)
 .idata$7       0x0045b110        0x4 d:/mingw/bin/../lib/gcc/mingw32/4.5.2/../../../libuser32.a(daois00127.o)
 .idata$7       0x0045b114        0x4 d:/mingw/bin/../lib/gcc/mingw32/4.5.2/../../../libuser32.a(daois00134.o)
 .idata$7       0x0045b118        0x4 d:/mingw/bin/../lib/gcc/mingw32/4.5.2/../../../libuser32.a(daois00137.o)
 .idata$7       0x0045b11c        0x4 d:/mingw/bin/../lib/gcc/mingw32/4.5.2/../../../libuser32.a(daois00140.o)
 .idata$7       0x0045b120        0x4 d:/mingw/bin/../lib/gcc/mingw32/4.5.2/../../../libuser32.a(daois00144.o)
 .idata$7       0x0045b124        0x4 d:/mingw/bin/../lib/gcc/mingw32/4.5.2/../../../libuser32.a(daois00147.o)
 .idata$7       0x0045b128        0x4 d:/mingw/bin/../lib/gcc/mingw32/4.5.2/../../../libuser32.a(daois00149.o)
 .idata$7       0x0045b12c        0x4 d:/mingw/bin/../lib/gcc/mingw32/4.5.2/../../../libuser32.a(daois00163.o)
 .idata$7       0x0045b130        0x4 d:/mingw/bin/../lib/gcc/mingw32/4.5.2/../../../libuser32.a(daois00177.o)
 .idata$7       0x0045b134        0x4 d:/mingw/bin/../lib/gcc/mingw32/4.5.2/../../../libuser32.a(daois00178.o)
 .idata$7       0x0045b138        0x4 d:/mingw/bin/../lib/gcc/mingw32/4.5.2/../../../libuser32.a(daois00180.o)
 .idata$7       0x0045b13c        0x4 d:/mingw/bin/../lib/gcc/mingw32/4.5.2/../../../libuser32.a(daois00182.o)
 .idata$7       0x0045b140        0x4 d:/mingw/bin/../lib/gcc/mingw32/4.5.2/../../../libuser32.a(daois00184.o)
 .idata$7       0x0045b144        0x4 d:/mingw/bin/../lib/gcc/mingw32/4.5.2/../../../libuser32.a(daois00214.o)
 .idata$7       0x0045b148        0x4 d:/mingw/bin/../lib/gcc/mingw32/4.5.2/../../../libuser32.a(daois00224.o)
 .idata$7       0x0045b14c        0x4 d:/mingw/bin/../lib/gcc/mingw32/4.5.2/../../../libuser32.a(daois00225.o)
 .idata$7       0x0045b150        0x4 d:/mingw/bin/../lib/gcc/mingw32/4.5.2/../../../libuser32.a(daois00236.o)
 .idata$7       0x0045b154        0x4 d:/mingw/bin/../lib/gcc/mingw32/4.5.2/../../../libuser32.a(daois00238.o)
 .idata$7       0x0045b158        0x4 d:/mingw/bin/../lib/gcc/mingw32/4.5.2/../../../libuser32.a(daois00247.o)
 .idata$7       0x0045b15c        0x4 d:/mingw/bin/../lib/gcc/mingw32/4.5.2/../../../libuser32.a(daois00248.o)
 .idata$7       0x0045b160        0x4 d:/mingw/bin/../lib/gcc/mingw32/4.5.2/../../../libuser32.a(daois00250.o)
 .idata$7       0x0045b164        0x4 d:/mingw/bin/../lib/gcc/mingw32/4.5.2/../../../libuser32.a(daois00253.o)
 .idata$7       0x0045b168        0x4 d:/mingw/bin/../lib/gcc/mingw32/4.5.2/../../../libuser32.a(daois00255.o)
 .idata$7       0x0045b16c        0x4 d:/mingw/bin/../lib/gcc/mingw32/4.5.2/../../../libuser32.a(daois00257.o)
 .idata$7       0x0045b170        0x4 d:/mingw/bin/../lib/gcc/mingw32/4.5.2/../../../libuser32.a(daois00259.o)
 .idata$7       0x0045b174        0x4 d:/mingw/bin/../lib/gcc/mingw32/4.5.2/../../../libuser32.a(daois00269.o)
 .idata$7       0x0045b178        0x4 d:/mingw/bin/../lib/gcc/mingw32/4.5.2/../../../libuser32.a(daois00273.o)
 .idata$7       0x0045b17c        0x4 d:/mingw/bin/../lib/gcc/mingw32/4.5.2/../../../libuser32.a(daois00293.o)
 .idata$7       0x0045b180        0x4 d:/mingw/bin/../lib/gcc/mingw32/4.5.2/../../../libuser32.a(daois00296.o)
 .idata$7       0x0045b184        0x4 d:/mingw/bin/../lib/gcc/mingw32/4.5.2/../../../libuser32.a(daois00304.o)
 .idata$7       0x0045b188        0x4 d:/mingw/bin/../lib/gcc/mingw32/4.5.2/../../../libuser32.a(daois00323.o)
 .idata$7       0x0045b18c        0x4 d:/mingw/bin/../lib/gcc/mingw32/4.5.2/../../../libuser32.a(daois00325.o)
 .idata$7       0x0045b190        0x4 d:/mingw/bin/../lib/gcc/mingw32/4.5.2/../../../libuser32.a(daois00342.o)
 .idata$7       0x0045b194        0x4 d:/mingw/bin/../lib/gcc/mingw32/4.5.2/../../../libuser32.a(daois00347.o)
 .idata$7       0x0045b198        0x4 d:/mingw/bin/../lib/gcc/mingw32/4.5.2/../../../libuser32.a(daois00348.o)
 .idata$7       0x0045b19c        0x4 d:/mingw/bin/../lib/gcc/mingw32/4.5.2/../../../libuser32.a(daois00350.o)
 .idata$7       0x0045b1a0        0x4 d:/mingw/bin/../lib/gcc/mingw32/4.5.2/../../../libuser32.a(daois00351.o)
 .idata$7       0x0045b1a4        0x4 d:/mingw/bin/../lib/gcc/mingw32/4.5.2/../../../libuser32.a(daois00358.o)
 .idata$7       0x0045b1a8        0x4 d:/mingw/bin/../lib/gcc/mingw32/4.5.2/../../../libuser32.a(daois00364.o)
 .idata$7       0x0045b1ac        0x4 d:/mingw/bin/../lib/gcc/mingw32/4.5.2/../../../libuser32.a(daois00370.o)
 .idata$7       0x0045b1b0        0x4 d:/mingw/bin/../lib/gcc/mingw32/4.5.2/../../../libuser32.a(daois00384.o)
 .idata$7       0x0045b1b4        0x4 d:/mingw/bin/../lib/gcc/mingw32/4.5.2/../../../libuser32.a(daois00386.o)
 .idata$7       0x0045b1b8        0x4 d:/mingw/bin/../lib/gcc/mingw32/4.5.2/../../../libuser32.a(daois00389.o)
 .idata$7       0x0045b1bc        0x4 d:/mingw/bin/../lib/gcc/mingw32/4.5.2/../../../libuser32.a(daois00394.o)
 .idata$7       0x0045b1c0        0x4 d:/mingw/bin/../lib/gcc/mingw32/4.5.2/../../../libuser32.a(daois00398.o)
 .idata$7       0x0045b1c4        0x4 d:/mingw/bin/../lib/gcc/mingw32/4.5.2/../../../libuser32.a(daois00400.o)
 .idata$7       0x0045b1c8        0x4 d:/mingw/bin/../lib/gcc/mingw32/4.5.2/../../../libuser32.a(daois00405.o)
 .idata$7       0x0045b1cc        0x4 d:/mingw/bin/../lib/gcc/mingw32/4.5.2/../../../libuser32.a(daois00409.o)
 .idata$7       0x0045b1d0        0x4 d:/mingw/bin/../lib/gcc/mingw32/4.5.2/../../../libuser32.a(daois00426.o)
 .idata$7       0x0045b1d4        0x4 d:/mingw/bin/../lib/gcc/mingw32/4.5.2/../../../libuser32.a(daois00433.o)
 .idata$7       0x0045b1d8        0x4 d:/mingw/bin/../lib/gcc/mingw32/4.5.2/../../../libuser32.a(daois00434.o)
 .idata$7       0x0045b1dc        0x4 d:/mingw/bin/../lib/gcc/mingw32/4.5.2/../../../libuser32.a(daois00437.o)
 .idata$7       0x0045b1e0        0x4 d:/mingw/bin/../lib/gcc/mingw32/4.5.2/../../../libuser32.a(daois00445.o)
 .idata$7       0x0045b1e4        0x4 d:/mingw/bin/../lib/gcc/mingw32/4.5.2/../../../libuser32.a(daois00446.o)
 .idata$7       0x0045b1e8        0x4 d:/mingw/bin/../lib/gcc/mingw32/4.5.2/../../../libuser32.a(daois00455.o)
 .idata$7       0x0045b1ec        0x4 d:/mingw/bin/../lib/gcc/mingw32/4.5.2/../../../libuser32.a(daois00464.o)
 .idata$7       0x0045b1f0        0x4 d:/mingw/bin/../lib/gcc/mingw32/4.5.2/../../../libuser32.a(daois00466.o)
 .idata$7       0x0045b1f4        0x4 d:/mingw/bin/../lib/gcc/mingw32/4.5.2/../../../libuser32.a(daois00468.o)
 .idata$7       0x0045b1f8        0x4 d:/mingw/bin/../lib/gcc/mingw32/4.5.2/../../../libuser32.a(daois00479.o)
 .idata$7       0x0045b1fc        0x4 d:/mingw/bin/../lib/gcc/mingw32/4.5.2/../../../libuser32.a(daois00483.o)
 .idata$7       0x0045b200        0x4 d:/mingw/bin/../lib/gcc/mingw32/4.5.2/../../../libuser32.a(daois00491.o)
 .idata$7       0x0045b204        0x4 d:/mingw/bin/../lib/gcc/mingw32/4.5.2/../../../libuser32.a(daois00493.o)
 .idata$7       0x0045b208        0x4 d:/mingw/bin/../lib/gcc/mingw32/4.5.2/../../../libuser32.a(daois00494.o)
 .idata$7       0x0045b20c        0x4 d:/mingw/bin/../lib/gcc/mingw32/4.5.2/../../../libuser32.a(daois00500.o)
 .idata$7       0x0045b210        0x4 d:/mingw/bin/../lib/gcc/mingw32/4.5.2/../../../libuser32.a(daois00505.o)
 .idata$7       0x0045b214        0x4 d:/mingw/bin/../lib/gcc/mingw32/4.5.2/../../../libuser32.a(daois00508.o)
 .idata$7       0x0045b218        0x4 d:/mingw/bin/../lib/gcc/mingw32/4.5.2/../../../libuser32.a(daois00516.o)
 .idata$7       0x0045b21c        0x4 d:/mingw/bin/../lib/gcc/mingw32/4.5.2/../../../libuser32.a(daois00517.o)
 .idata$7       0x0045b220        0x4 d:/mingw/bin/../lib/gcc/mingw32/4.5.2/../../../libuser32.a(daois00519.o)
 .idata$7       0x0045b224        0x4 d:/mingw/bin/../lib/gcc/mingw32/4.5.2/../../../libuser32.a(daois00520.o)
 .idata$7       0x0045b228        0x4 d:/mingw/bin/../lib/gcc/mingw32/4.5.2/../../../libuser32.a(daois00523.o)
 .idata$7       0x0045b22c        0x4 d:/mingw/bin/../lib/gcc/mingw32/4.5.2/../../../libuser32.a(daois00525.o)
 .idata$7       0x0045b230        0x4 d:/mingw/bin/../lib/gcc/mingw32/4.5.2/../../../libuser32.a(daois00530.o)
 .idata$7       0x0045b234        0x4 d:/mingw/bin/../lib/gcc/mingw32/4.5.2/../../../libuser32.a(daois00533.o)
 .idata$7       0x0045b238        0x4 d:/mingw/bin/../lib/gcc/mingw32/4.5.2/../../../libuser32.a(daois00534.o)
 .idata$7       0x0045b23c        0x4 d:/mingw/bin/../lib/gcc/mingw32/4.5.2/../../../libuser32.a(daois00535.o)
 .idata$7       0x0045b240        0x4 d:/mingw/bin/../lib/gcc/mingw32/4.5.2/../../../libuser32.a(daois00554.o)
 .idata$7       0x0045b244        0x4 d:/mingw/bin/../lib/gcc/mingw32/4.5.2/../../../libuser32.a(daois00563.o)
 .idata$7       0x0045b248        0x4 d:/mingw/bin/../lib/gcc/mingw32/4.5.2/../../../libuser32.a(daois00569.o)
 .idata$7       0x0045b24c        0x4 d:/mingw/bin/../lib/gcc/mingw32/4.5.2/../../../libuser32.a(daois00571.o)
 .idata$7       0x0045b250        0x4 d:/mingw/bin/../lib/gcc/mingw32/4.5.2/../../../libuser32.a(daois00572.o)
 .idata$7       0x0045b254        0x4 d:/mingw/bin/../lib/gcc/mingw32/4.5.2/../../../libuser32.a(daois00574.o)
 .idata$7       0x0045b258        0x4 d:/mingw/bin/../lib/gcc/mingw32/4.5.2/../../../libuser32.a(daois00581.o)
 .idata$7       0x0045b25c        0x4 d:/mingw/bin/../lib/gcc/mingw32/4.5.2/../../../libuser32.a(daois00582.o)
 .idata$7       0x0045b260        0x4 d:/mingw/bin/../lib/gcc/mingw32/4.5.2/../../../libuser32.a(daois00585.o)
 .idata$7       0x0045b264        0x4 d:/mingw/bin/../lib/gcc/mingw32/4.5.2/../../../libuser32.a(daois00591.o)
 .idata$7       0x0045b268        0x4 d:/mingw/bin/../lib/gcc/mingw32/4.5.2/../../../libuser32.a(daois00598.o)
 .idata$7       0x0045b26c        0x4 d:/mingw/bin/../lib/gcc/mingw32/4.5.2/../../../libuser32.a(daois00602.o)
 .idata$7       0x0045b270        0x4 d:/mingw/bin/../lib/gcc/mingw32/4.5.2/../../../libuser32.a(daois00608.o)
 .idata$7       0x0045b274        0x4 d:/mingw/bin/../lib/gcc/mingw32/4.5.2/../../../libuser32.a(daois00622.o)
 .idata$7       0x0045b278        0x4 d:/mingw/bin/../lib/gcc/mingw32/4.5.2/../../../libuser32.a(daois00632.o)
 .idata$7       0x0045b27c        0xc d:/mingw/bin/../lib/gcc/mingw32/4.5.2/../../../libuser32.a(daoit.o)
                0x0045b27c                _libuser32_a_iname
 .idata$7       0x0045b288        0x4 d:/mingw/bin/../lib/gcc/mingw32/4.5.2/../../../libwinmm.a(dopcs00008.o)
 .idata$7       0x0045b28c        0xc d:/mingw/bin/../lib/gcc/mingw32/4.5.2/../../../libwinmm.a(dopct.o)
                0x0045b28c                _libwinmm_a_iname
 .idata$7       0x0045b298        0x4 d:/mingw/bin/../lib/gcc/mingw32/4.5.2/../../../libwinspool.a(dykds00025.o)
 .idata$7       0x0045b29c        0x4 d:/mingw/bin/../lib/gcc/mingw32/4.5.2/../../../libwinspool.a(dykds00059.o)
 .idata$7       0x0045b2a0        0x4 d:/mingw/bin/../lib/gcc/mingw32/4.5.2/../../../libwinspool.a(dykds00060.o)
 .idata$7       0x0045b2a4        0x4 d:/mingw/bin/../lib/gcc/mingw32/4.5.2/../../../libwinspool.a(dykds00078.o)
 .idata$7       0x0045b2a8        0x4 d:/mingw/bin/../lib/gcc/mingw32/4.5.2/../../../libwinspool.a(dykds00102.o)
 .idata$7       0x0045b2ac        0x4 d:/mingw/bin/../lib/gcc/mingw32/4.5.2/../../../libwinspool.a(dykds00126.o)
 .idata$7       0x0045b2b0        0x4 d:/mingw/bin/../lib/gcc/mingw32/4.5.2/../../../libwinspool.a(dykds00128.o)
 .idata$7       0x0045b2b4        0x4 d:/mingw/bin/../lib/gcc/mingw32/4.5.2/../../../libwinspool.a(dykds00130.o)
 .idata$7       0x0045b2b8       0x10 d:/mingw/bin/../lib/gcc/mingw32/4.5.2/../../../libwinspool.a(dykdt.o)
                0x0045b2b8                _libwinspool_a_iname

.CRT            0x0045c000      0x200
                0x0045c000                ___crt_xc_start__ = .
 *(SORT(.CRT$XC*))
                0x0045c000                ___crt_xc_end__ = .
                0x0045c000                ___crt_xi_start__ = .
 *(SORT(.CRT$XI*))
                0x0045c000                ___crt_xi_end__ = .
                0x0045c000                ___crt_xl_start__ = .
 *(SORT(.CRT$XL*))
 .CRT$XLA       0x0045c000        0x4 d:/mingw/bin/../lib/gcc/mingw32/4.5.2/../../../libmingw32.a(tlssup.o)
                0x0045c000                __xl_a
 .CRT$XLC       0x0045c004        0x4 d:/mingw/bin/../lib/gcc/mingw32/4.5.2/../../../libmingw32.a(tlssup.o)
                0x0045c004                __xl_c
 .CRT$XLD       0x0045c008        0x4 d:/mingw/bin/../lib/gcc/mingw32/4.5.2/../../../libmingw32.a(tlssup.o)
                0x0045c008                __xl_d
 .CRT$XLZ       0x0045c00c        0x4 d:/mingw/bin/../lib/gcc/mingw32/4.5.2/../../../libmingw32.a(tlssup.o)
                0x0045c00c                __xl_z
                0x0045c010                ___crt_xp_start__ = .
 *(SORT(.CRT$XP*))
                0x0045c010                ___crt_xp_end__ = .
                0x0045c010                ___crt_xt_start__ = .
 *(SORT(.CRT$XT*))
                0x0045c010                ___crt_xt_end__ = .
 .CRT$XDA       0x0045c010        0x4 d:/mingw/bin/../lib/gcc/mingw32/4.5.2/../../../libmingw32.a(tlssup.o)
 .CRT$XDZ       0x0045c014        0x4 d:/mingw/bin/../lib/gcc/mingw32/4.5.2/../../../libmingw32.a(tlssup.o)

.tls            0x0045d000      0x200
                0x0045d000                ___tls_start__ = .
 *(.tls)
 .tls           0x0045d000       0x18 d:/mingw/bin/../lib/gcc/mingw32/4.5.2/../../../libmingw32.a(tlssup.o)
                0x0045d000                _tls_used
 *(.tls$)
 *(SORT(.tls$*))
 .tls$AAA       0x0045d018        0x4 d:/mingw/bin/../lib/gcc/mingw32/4.5.2/../../../libmingw32.a(tlssup.o)
                0x0045d018                _tls_start
 .tls$ZZZ       0x0045d01c        0x4 d:/mingw/bin/../lib/gcc/mingw32/4.5.2/../../../libmingw32.a(tlssup.o)
                0x0045d01c                _tls_end
                0x0045d020                ___tls_end__ = .

.endjunk        0x0045e000        0x0
                0x0045e000                PROVIDE (end, .)
                0x0045e000                PROVIDE (_end, .)
                0x0045e000                __end__ = .

.rsrc           0x0045e000     0x3c00
 *(.rsrc)
 .rsrc          0x0045e000     0x3bf4 puttytel.res.o
 *(SORT(.rsrc$*))

.reloc
 *(.reloc)

.stab
 *(.stab)

.stabstr
 *(.stabstr)

.debug_aranges
 *(.debug_aranges)

.debug_pubnames
 *(.debug_pubnames)

.debug_pubtypes
 *(.debug_pubtypes)

.debug_info
 *(.debug_info)
 *(.gnu.linkonce.wi.*)

.debug_abbrev
 *(.debug_abbrev)

.debug_line
 *(.debug_line)

.debug_frame
 *(.debug_frame*)

.debug_str
 *(.debug_str)

.debug_loc
 *(.debug_loc)

.debug_macinfo
 *(.debug_macinfo)

.debug_weaknames
 *(.debug_weaknames)

.debug_funcnames
 *(.debug_funcnames)

.debug_typenames
 *(.debug_typenames)

.debug_varnames
 *(.debug_varnames)

.debug_ranges
 *(.debug_ranges)

.debug_types
 *(.debug_types)
 *(.gnu.linkonce.wt.*)
OUTPUT(puttytel.exe pei-i386)
